ccopy_reg
_reconstructor
p0
(c__main__
markovModel
p1
c__builtin__
object
p2
Ntp3
Rp4
(dp5
S'lang'
p6
S'mon'
p7
sS'logSum'
p8
F147.90379787264968
sS'linesAdded'
p9
I136
sS'numSamples'
p10
I9145
sS'ngramLength'
p11
I2
sS'modelFileName'
p12
S'models/monUnicode_2_MM_model.save'
p13
sS'detectorType'
p14
S'MARKOV'
p15
sS'probA'
p16
(dp17
V\u1001
p18
I386
sV\u1000
p19
I831
sV\u1003
p20
I1
sV\u1002
p21
I17
sV\u1005
p22
I425
sV\u1004
p23
I925
sV\u1007
p24
I9
sV\u1006
p25
I200
sV\u1009
p26
I20
sV\u100b
p27
I5
sV\u100a
p28
I346
sV\u100d
p29
I4
sV\u100c
p30
I6
sV\u100f
p31
I8
sV\u1011
p32
I165
sV\u1010
p33
I692
sV\u1013
p34
I7
sV\u1012
p35
I118
sV\u1015
p36
I678
sV\u1014
p37
I561
sV\u1017
p38
I9
sV\u1016
p39
I191
sV\u1019
p40
I927
sV\u1018
p41
I77
sV\u101b
p42
I605
sV\u101a
p43
I278
sV\u101d
p44
I102
sV\u101c
p45
I404
sV\u101f
p46
I54
sV\u101e
p47
I507
sV\u1021
p48
I523
sV\u1025
p49
I10
sV\u1026
p50
I51
sV\u103f
p51
I3
ssS'fileName'
p52
S'testdata/monUnicode.txt'
p53
sS'model'
p54
(dp55
sS'font'
p56
S'unicode'
p57
sS'probBGivenA'
p58
(dp59
g18
(dp60
V\u1000
p61
I1
sV\u1004
p62
I3
sV 
p63
I1
sV)
p64
I1
sV\u102b
p65
I5
sV\u102d
p66
I26
sV\u102c
p67
I1
sV\u102f
p68
I20
sV\u1031
p69
I2
sV\u1010
p70
I4
sV\u1032
p71
I36
sV\u1014
p72
I5
sV\u101b
p73
I1
sV\u1036
p74
I58
sV\u1019
p75
I2
sV\u103b
p76
I116
sV\u103d
p77
I50
sV\u103c
p78
I51
sV\u101e
p79
I3
ssg19
(dp80
V\u1001
p81
I3
sV\u1006
p82
I2
sV\u100f
p83
I3
sV\u1010
p84
I7
sV\u1015
p85
I3
sV\u1014
p86
I5
sV\u1019
p87
I1
sV\u101b
p88
I13
sV\u101a
p89
I2
sV\u101d
p90
I1
sV\u101c
p91
I13
sV\u101e
p92
I2
sV\u1021
p93
I1
sg63
I55
sV\u102d
p94
I120
sV\u102c
p95
I10
sV\u102f
p96
I1
sV\u1031
p97
I57
sV\u1032
p98
I4
sV\u1039
p99
I8
sV\u103b
p100
I42
sV\u103a
p101
I306
sV\u103d
p102
I8
sV\u103c
p103
I164
ssg20
(dp104
g64
I1
ssg21
(dp105
V\u1005
p106
I1
sV\u102f
p107
I1
sV\u1039
p108
I1
sV\u103b
p109
I11
sV\u101a
p110
I2
sV\u101c
p111
I1
ssg22
(dp112
V\u1021
p113
I1
sg63
I1
sV\u1005
p114
I17
sV\u1000
p115
I6
sV\u1009
p116
I15
sV\u100a
p117
I27
sV\u102d
p118
I27
sV\u102c
p119
I66
sV\u102f
p120
I49
sV\u102e
p121
I26
sV\u1031
p122
I13
sV\u1019
p123
I2
sV\u1032
p124
I3
sV\u1015
p125
I2
sV\u1036
p126
I7
sV\u1039
p127
I11
sV\u101b
p128
I7
sV\u103a
p129
I128
sV\u103d
p130
I12
sV\u101f
p131
I2
sV\u101e
p132
I3
ssg23
(dp133
V\u103a
p134
I825
sV\u1031
p135
I1
sV\u1014
p136
I3
sV\u1037
p137
I14
sV\u1036
p138
I30
sV\u101a
p139
I5
sV\u103d
p140
I6
sV\u103c
p141
I41
ssg24
(dp142
V\u1030
p143
I4
sV\u101a
p144
I2
sV\u201d
p145
I1
sV\u102c
p146
I2
ssg25
(dp147
V\u1000
p148
I3
sV\u1004
p149
I20
sV\u100b
p150
I1
sV\u102d
p151
I83
sV\u102f
p152
I22
sV\u1031
p153
I23
sV\u1032
p154
I2
sV\u1015
p155
I1
sV\u1014
p156
I12
sV\u1036
p157
I1
sV\u101a
p158
I1
sV\u103d
p159
I31
ssg26
(dp160
V\u103a
p161
I20
ssg27
(dp162
V\u1039
p163
I2
sV\u102d
p164
I3
ssg28
(dp165
V\u1004
p166
I1
sV\u102c
p167
I5
sV\u102e
p168
I17
sV\u1031
p169
I2
sV\u1037
p170
I7
sV\u1038
p171
I1
sV\u103a
p172
I300
sV\u103d
p173
I5
sV\u103e
p174
I8
ssg29
(dp175
V\u1021
p176
I1
sg63
I1
sV\u102b
p177
I1
sV\u1019
p178
I1
ssg30
(dp179
V\u1019
p180
I2
sV\u102c
p181
I4
ssg31
(dp182
V\u1039
p183
I4
sV\u103a
p184
I1
sV\u102c
p185
I3
ssg32
(dp186
V\u1000
p187
I6
sV\u1004
p188
I2
sV\u101d
p189
I3
sV\u100a
p190
I7
sV\u102d
p191
I23
sV\u102c
p192
I37
sV\u102f
p193
I10
sV\u1031
p194
I30
sV\u1030
p195
I4
sV\u1032
p196
I10
sV\u1015
p197
I4
sV\u1014
p198
I1
sV\u1036
p199
I2
sV\u1019
p200
I1
sV\u103d
p201
I25
ssg33
(dp202
V\u1001
p203
I11
sV\u1000
p204
I12
sV\u1005
p205
I12
sV\u1004
p206
I23
sV\u1006
p207
I2
sV\u100a
p208
I12
sV\u1010
p209
I2
sV\u1015
p210
I11
sV\u1014
p211
I8
sV\u1016
p212
I1
sV\u1019
p213
I6
sV\u101b
p214
I4
sV\u101a
p215
I70
sV\u101d
p216
I1
sV\u101c
p217
I2
sV\u101e
p218
I1
sV\u102d
p219
I75
sV\u102c
p220
I42
sV\u102f
p221
I2
sV\u102e
p222
I31
sV\u1031
p223
I63
sV\u1030
p224
I14
sV\u1032
p225
I39
sV\u1036
p226
I3
sV\u103a
p227
I78
sV\u103d
p228
I167
ssg34
(dp229
V\u1019
p230
I1
sV\u102b
p231
I2
sV\u102d
p232
I3
sV\u1014
p233
I1
ssg35
(dp234
V\u1021
p235
I1
sg63
I1
sV\u1005
p236
I1
sV\u1000
p237
I2
sV\u102b
p238
I16
sV\u102f
p239
I4
sV\u102e
p240
I35
sV\u1031
p241
I31
sV\u1014
p242
I4
sV\u1019
p243
I2
sV\u101b
p244
I16
sV\u103a
p245
I4
sV\u101e
p246
I1
ssg36
(dp247
V\u1001
p248
I3
sV\u1000
p249
I3
sV\u1005
p250
I4
sV\u1004
p251
I7
sV\u100b
p252
I3
sV\u100a
p253
I4
sV\u1011
p254
I4
sV\u1010
p255
I4
sV\u1012
p256
I7
sV\u1015
p257
I1
sV\u1014
p258
I3
sV\u1019
p259
I3
sV\u101b
p260
I2
sV\u101c
p261
I1
sV\u1021
p262
I1
sV\u102b
p263
I173
sV\u102d
p264
I11
sV\u102f
p265
I21
sV\u102e
p266
I15
sV\u1031
p267
I50
sV\u1030
p268
I5
sV\u1032
p269
I4
sV\u1036
p270
I1
sV\u1039
p271
I1
sV\u103b
p272
I2
sV\u103a
p273
I85
sV\u103d
p274
I67
sV\u103c
p275
I193
ssg37
(dp276
V\u1000
p277
I16
sV\u101a
p278
I40
sV\u1005
p279
I4
sV\u1030
p280
I3
sV\u100a
p281
I17
sV\u102d
p282
I90
sV\u102c
p283
I15
sV\u102f
p284
I2
sV\u102e
p285
I4
sV\u1031
p286
I89
sV\u1010
p287
I1
sV\u1032
p288
I17
sV\u1015
p289
I1
sV\u1039
p290
I7
sV\u103a
p291
I156
sV\u103d
p292
I31
sV\u101c
p293
I1
sV\u103e
p294
I67
ssg38
(dp295
V\u1019
p296
I6
sV\u103b
p297
I1
sV\u101f
p298
I2
ssg39
(dp299
V\u1000
p300
I17
sV\u1030
p301
I1
sV\u102d
p302
I8
sV\u1031
p303
I12
sV\u1010
p304
I2
sV\u103d
p305
I52
sV\u103c
p306
I99
ssg40
(dp307
V\u1001
p308
I6
sV\u1000
p309
I13
sV\u1005
p310
I2
sV\u1004
p311
I4
sV\u1006
p312
I3
sV\u100a
p313
I17
sV\u1011
p314
I2
sV\u1010
p315
I27
sV\u1015
p316
I8
sV\u1014
p317
I2
sV\u1016
p318
I4
sV\u1019
p319
I2
sV\u101b
p320
I21
sV\u101a
p321
I16
sV\u101c
p322
I4
sV\u101f
p323
I9
sV\u101e
p324
I3
sV\u1021
p325
I3
sg63
I3
sV\u102d
p326
I40
sV\u102c
p327
I22
sV\u102f
p328
I1
sV\u102e
p329
I71
sV\u1031
p330
I6
sV\u1030
p331
I6
sV\u1032
p332
I31
sV\u1039
p333
I2
sV\u1038
p334
I6
sV\u103b
p335
I271
sV\u103a
p336
I92
sV\u103d
p337
I25
sV\u103c
p338
I49
sV\u103e
p339
I156
ssg41
(dp340
V\u1000
p341
I3
sV\u103d
p342
I1
sV\u102d
p343
I9
sV\u102c
p344
I9
sV\u102e
p345
I2
sV\u1031
p346
I13
sV\u1030
p347
I8
sV\u1032
p348
I22
sV\u101a
p349
I7
sV\u101d
p350
I3
ssg42
(dp351
V\u1001
p352
I6
sV\u1000
p353
I9
sV\u1005
p354
I1
sV\u1004
p355
I40
sV\u100a
p356
I5
sV\u1010
p357
I5
sV\u1015
p358
I24
sV\u1014
p359
I10
sV\u1016
p360
I1
sV\u1019
p361
I15
sV\u1018
p362
I2
sV\u101b
p363
I23
sV\u101a
p364
I16
sV\u101c
p365
I5
sV\u101f
p366
I2
sV\u101e
p367
I12
sV\u1021
p368
I2
sg63
I15
sV\u102d
p369
I2
sV\u102c
p370
I56
sV\u102f
p371
I6
sV\u102e
p372
I1
sV\u1031
p373
I178
sV\u1032
p374
I20
sV\u103d
p375
I52
sV\u103e
p376
I96
sV\u104a
p377
I1
ssg43
(dp378
V\u1001
p379
I4
sV\u1000
p380
I2
sV\u1004
p381
I13
sV\u1009
p382
I1
sV\u100a
p383
I1
sV\u102c
p384
I5
sV\u102f
p385
I1
sV\u1031
p386
I1
sV\u1030
p387
I12
sV\u1014
p388
I9
sV\u1039
p389
I2
sV\u103a
p390
I222
sV\u103d
p391
I2
sV\u103e
p392
I3
ssg44
(dp393
g63
I6
sV\u1004
p394
I63
sV\u1000
p395
I1
sg64
I1
sV\u1048
p396
I3
sV\u102b
p397
I5
sV\u102d
p398
I1
sV\u102e
p399
I3
sV\u1031
p400
I6
sV\u1010
p401
I1
sV\u1014
p402
I7
sV\u2019
p403
I2
sV\u101b
p404
I1
sV\u103a
p405
I1
sV\u103e
p406
I1
ssg45
(dp407
V\u1012
p408
I1
sV\u1000
p409
I35
sV\u1005
p410
I1
sV\u1004
p411
I8
sg63
I1
sV\u1010
p412
I2
sV\u100a
p413
I45
sV\u102d
p414
I69
sV\u102c
p415
I55
sV\u102f
p416
I43
sV\u1031
p417
I35
sV\u1030
p418
I26
sV\u1032
p419
I11
sV\u1036
p420
I3
sV\u1019
p421
I3
sV\u103b
p422
I9
sV\u103a
p423
I1
sV\u103d
p424
I25
sV\u103e
p425
I31
ssg46
(dp426
g63
I2
sV\u102d
p427
I5
sV\u102c
p428
I19
sV\u102f
p429
I25
sV\u1031
p430
I1
sV\u1030
p431
I2
ssg47
(dp432
V\u1000
p433
I15
sV\u1005
p434
I1
sV\u1004
p435
I8
sV\u100a
p436
I105
sV\u100f
p437
I1
sV\u1010
p438
I10
sV\u1015
p439
I2
sV\u1014
p440
I1
sV\u1019
p441
I74
sV\u1018
p442
I15
sV\u101b
p443
I1
sV\u101a
p444
I1
sV\u101c
p445
I17
sV\u102d
p446
I35
sV\u102c
p447
I65
sV\u102f
p448
I10
sV\u102e
p449
I14
sV\u1031
p450
I56
sV\u1030
p451
I44
sV\u1036
p452
I8
sV\u103d
p453
I22
sV\u103c
p454
I2
ssg48
(dp455
V\u1001
p456
I44
sV\u1000
p457
I34
sV\u1005
p458
I30
sV\u1004
p459
I4
sV\u1006
p460
I13
sV\u100b
p461
I1
sV\u100a
p462
I3
sV\u1011
p463
I19
sV\u1010
p464
I29
sV\u1013
p465
I3
sV\u1015
p466
I19
sV\u1014
p467
I24
sV\u1016
p468
I36
sV\u1019
p469
I120
sV\u101b
p470
I31
sV\u101a
p471
I1
sV\u101d
p472
I5
sV\u101c
p473
I13
sV\u101e
p474
I14
sV\u102d
p475
I14
sV\u102c
p476
I36
sV\u102f
p477
I3
sV\u1031
p478
I19
sV\u1032
p479
I8
ssg49
(dp480
V\u1015
p481
I10
ssg50
(dp482
V\u1038
p483
I51
ssg51
(dp484
V\u102c
p485
I1
sV\u1014
p486
I2
sssS'totalNGram'
p487
I9145
sb.