ccopy_reg
_reconstructor
p0
(c__main__
ngramModel
p1
c__builtin__
object
p2
Ntp3
Rp4
(dp5
S'lang'
p6
S'mon'
p7
sS'logSum'
p8
F3727.0137697552345
sS'linesAdded'
p9
I272
sS'numSamples'
p10
I46825
sS'ngramLength'
p11
I3
sS'modelFileName'
p12
S'models/monUnicode_3_model.save'
p13
sS'detectorType'
p14
S'NGRAM'
p15
sS'fileName'
p16
S'testdata/monUnicode.txt'
p17
sS'model'
p18
(dp19
(V\u1019
p20
V\u103a
p21
V\u1037
p22
tp23
I1
s(V\u101a
p24
V\u103a
p25
V\u104c
p26
tp27
I1
s(V\u1005
p28
V\u102c
p29
V\u1038
p30
tp31
I50
s(V\u103c
p32
V\u102e
p33
V\u1038
p34
tp35
I45
s(V\u102c
p36
V\u1038
p37
V\u1019
p38
tp39
I32
s(V\u103f
p40
V\u1014
p41
V\u102c
p42
tp43
I2
s(V 
p44
V\u1000
p45
V\u1031
p46
tp47
I10
s(V\u1036
p48
V\u1010
p49
V\u1000
p50
tp51
I1
s(V\u1036
p52
V\u1019
p53
V\u1032
p54
tp55
I5
s(V\u1004
p56
V\u103c
p57
V\u1004
p58
tp59
I1
s(V\u1038
p60
g44
V\u1011
p61
tp62
I6
s(V\u103a
p63
V\u1005
p64
V\u1032
p65
tp66
I3
s(V\u103e
p67
V\u102c
p68
g44
tp69
I47
s(V\u1015
p70
V\u103c
p71
V\u1014
p72
tp73
I11
s(V\u1005
p74
V\u101f
p75
V\u102c
p76
tp77
I2
s(g44
V\u101c
p78
V\u103d
p79
tp80
I9
s(V\u1015
p81
V\u103a
p82
V\u1000
p83
tp84
I2
s(V\u101c
p85
V\u1036
p86
V\u1018
p87
tp88
I2
s(g44
V\u1014
p89
V\u1005
p90
tp91
I3
s(V\u1011
p92
V\u1031
p93
V\u102c
p94
tp95
I30
s(V\u1005
p96
V\u102c
p97
V\u1021
p98
tp99
I1
s(V\u100a
p100
V\u103a
p101
V\u104b
p102
tp103
I48
s(V\u1032
p104
V\u101c
p105
V\u103d
p106
tp107
I2
s(Ve
p108
Vr
p109
Vy
p110
tp111
I1
s(V\u1031
p112
V\u102c
p113
g44
tp114
I37
s(V\u102b
p115
V\u101d
p116
V\u1004
p117
tp118
I40
s(V\u102b
p119
V\u101c
p120
V\u100a
p121
tp122
I1
s(V\u1000
p123
V\u103a
p124
V\u1014
p125
tp126
I34
s(V\u201d
p127
g44
V\u1016
p128
tp129
I1
s(V\u1026
p130
V\u1038
p131
V\u1014
p132
tp133
I2
s(V\u1036
p134
V\u1011
p135
V\u1030
p136
tp137
I1
s(V\u1037
p138
V\u101b
p139
V\u101b
p140
tp141
I6
s(V\u101a
p142
V\u103a
p143
V\u1019
p144
tp145
I19
s(V\u1004
p146
V\u103c
p147
V\u102d
p148
tp149
I39
s(V\u1012
p150
V\u1000
p151
V\u102d
p152
tp153
I1
s(V\u103a
p154
V\u1015
p155
V\u103c
p156
tp157
I53
s(V\u102f
p158
V\u1037
p159
V\u104a
p160
tp161
I2
s(V\u1038
p162
g44
V\u1006
p163
tp164
I15
s(V\u103a
p165
V\u101a
p166
V\u1004
p167
tp168
I1
s(V\u101b
p169
V\u1004
p170
V\u103a
p171
tp172
I40
s(V\u1046
p173
g44
V\u1016
p174
tp175
I1
s(V.
p176
VI
p177
g176
tp178
I2
s(V\u1037
p179
g44
V\u1011
p180
tp181
I5
s(V\u1032
p182
V\u104a
p183
V\u1019
p184
tp185
I1
s(V\u103a
p186
g44
VN
p187
tp188
I1
s(V\u102c
p189
g44
V\u100a
p190
tp191
I3
s(V\u1000
p192
V\u101c
p193
V\u1030
p194
tp195
I1
s(V\u1038
p196
g44
V\u1046
p197
tp198
I1
s(V\u102f
p199
V\u101b
p200
V\u1004
p201
tp202
I4
s(V\u102c
p203
V\u1019
p204
V\u102d
p205
tp206
I1
s(V\u1001
p207
V\u103b
p208
V\u1031
p209
tp210
I6
s(g44
V\u1037
p211
V\u1005
p212
tp213
I1
s(V\u1000
p214
V\u1014
p215
V\u103a
p216
tp217
I3
s(V\u1038
p218
V\u1010
p219
V\u102d
p220
tp221
I11
s(V\u1005
p222
V\u103a
p223
V\u1005
p224
tp225
I1
s(V\u1001
p226
V\u1036
p227
V\u1004
p228
tp229
I2
s(Vn
p230
g108
Vt
p231
tp232
I4
s(V\u1038
p233
V\u1012
p234
V\u102f
p235
tp236
I2
s(V\u1015
p237
V\u103d
p238
V\u102c
p239
tp240
I7
s(V\u103a
p241
V\u101e
p242
V\u101c
p243
tp244
I3
s(V\u1036
p245
V\u1021
p246
V\u1000
p247
tp248
I1
s(V\u102f
p249
g44
V\u1011
p250
tp251
I7
s(V\u1006
p252
V\u1000
p253
V\u103a
p254
tp255
I3
s(V\u1021
p256
V\u101e
p257
V\u1000
p258
tp259
I1
s(V\u1005
p260
V\u100a
p261
V\u103a
p262
tp263
I27
s(V\u1037
p264
V\u101b
p265
V\u1032
p266
tp267
I1
s(V\u1041
p268
V\u1040
p269
V\u101d
p270
tp271
I2
s(V\u1036
p272
V\u100a
p273
V\u102e
p274
tp275
I4
s(V\u1031
p276
V\u1007
p277
V\u201d
p278
tp279
I1
s(V\u1021
p280
V\u1005
p281
V\u102c
p282
tp283
I1
s(V\u1038
p284
V/
p285
V\u1019
p286
tp287
I2
s(V\u103a
p288
V\u101b
p289
V\u1031
p290
tp291
I37
s(V\u102e
p292
V\u1014
p293
V\u103e
p294
tp295
I1
s(V\u1006
p296
V\u102d
p297
V\u102f
p298
tp299
I83
s(V\u201d
p300
g44
V\u1021
p301
tp302
I2
s(g44
V\u1005
p303
V\u101e
p304
tp305
I3
s(V\u1010
p306
V\u1032
p307
V\u1037
p308
tp309
I39
s(V\u102c
p310
V\u1038
p311
g285
tp312
I2
s(V\u1038
p313
V\u1019
p314
V\u102d
p315
tp316
I3
s(V\u103a
p317
g44
V\u101d
p318
tp319
I3
s(V\u1038
p320
V\u100c
p321
V\u102c
p322
tp323
I1
s(V\u1000
p324
V\u103d
p325
V\u1032
p326
tp327
I3
s(V\u102f
p328
V\u1018
p329
V\u102d
p330
tp331
I1
s(V\u1037
p332
V\u1021
p333
V\u1010
p334
tp335
I1
s(V\u1021
p336
V\u1014
p337
V\u1030
p338
tp339
I3
s(g44
V\u1041
p340
V\u1049
p341
tp342
I1
s(V\u102f
p343
V\u1015
p344
V\u1004
p345
tp346
I2
s(V\u1036
p347
V\u1038
p348
V\u1015
p349
tp350
I2
s(V\u1037
p351
g44
VU
p352
tp353
I2
s(g44
V\u2018
p354
V\u1014
p355
tp356
I1
s(V\u1001
p357
V\u103c
p358
V\u102f
p359
tp360
I1
s(V\u102c
p361
V\u1010
p362
V\u103d
p363
tp364
I2
s(V\u103d
p365
V\u1032
p366
g44
tp367
I7
s(V\u103e
p368
V\u101a
p369
V\u103a
p370
tp371
I21
s(V\u102c
p372
V\u1038
p373
g44
tp374
I60
s(V\u1038
p375
V\u1025
p376
V\u1015
p377
tp378
I2
s(V\u2019
p379
g44
V\u1021
p380
tp381
I1
s(V\u103a
p382
V\u101c
p383
V\u103d
p384
tp385
I7
s(V\u103a
p386
V\u1021
p387
V\u1015
p388
tp389
I1
s(V\u102f
p390
V\u1019
p391
V\u103e
p392
tp393
I4
s(V\u1043
p394
V\u1040
p395
g44
tp396
I9
s(VD
p397
VJ
p398
VC
p399
tp400
I1
s(V\u1025
p401
V\u1015
p402
V\u1019
p403
tp404
I2
s(V\u101e
p405
V\u100a
p406
V\u1037
p407
tp408
I5
s(Vi
p409
g108
g109
tp410
I1
s(V\u1019
p411
V\u101a
p412
V\u102c
p413
tp414
I1
s(V\u1014
p415
V\u1031
p416
V\u1015
p417
tp418
I7
s(V\u1000
p419
V\u100f
p420
V\u1039
p421
tp422
I3
s(g44
V\u1000
p423
V\u103b
p424
tp425
I21
s(V\u1012
p426
V\u102b
p427
V\u1014
p428
tp429
I2
s(V\u1005
p430
V\u103a
p431
V\u101c
p432
tp433
I6
s(V\u101b
p434
V\u102c
p435
V\u101b
p436
tp437
I1
s(V\u1032
p438
V\u1037
p439
V\u1015
p440
tp441
I8
s(V\u1015
p442
V\u103c
p443
V\u101e
p444
tp445
I5
s(V\u104a
p446
g44
V\u101a
p447
tp448
I1
s(V\u1000
p449
V\u103a
p450
V-
p451
tp452
I1
s(V\u102f
p453
V)
p454
g44
tp455
I1
s(V\u103e
p456
V\u102f
p457
V\u1000
p458
tp459
I2
s(V\u1038
p460
V\u101e
p461
V\u102c
p462
tp463
I50
s(V\u1010
p464
V\u102d
p465
V\u101a
p466
tp467
I1
s(V\u103b
p468
V\u1031
p469
V\u1038
p470
tp471
I4
s(V\u1000
p472
V\u103b
p473
V\u102d
p474
tp475
I2
s(V\u104b
p476
g44
V\u1014
p477
tp478
I2
s(V\u1010
p479
V\u103a
p480
V\u1018
p481
tp482
I4
s(V\u1031
p483
V\u101c
p484
V\u1031
p485
tp486
I1
s(V\u104f
p487
g44
V\u101e
p488
tp489
I3
s(V\u103e
p490
g44
V\u201c
p491
tp492
I2
s(V\u1037
p493
V\u1000
p494
V\u102c
p495
tp496
I1
s(V\u102d
p497
V\u102f
p498
V\u101d
p499
tp500
I2
s(V\u102d
p501
V\u101b
p502
V\u1031
p503
tp504
I3
s(V\u103a
p505
g44
V\u1048
p506
tp507
I1
s(V\u1031
p508
V\u101f
p509
V\u102c
p510
tp511
I2
s(V\u1038
p512
V\u1005
p513
V\u1031
p514
tp515
I1
s(V\u101b
p516
V\u101b
p517
V\u103e
p518
tp519
I17
s(V\u1014
p520
V\u103a
p521
V\u1001
p522
tp523
I2
s(V\u103e
p524
V\u1031
p525
V\u102c
p526
tp527
I7
s(V\u1032
p528
V\u104a
p529
V\u1010
p530
tp531
I1
s(V\u1014
p532
V\u1031
p533
V\u1019
p534
tp535
I2
s(V\u102d
p536
V\u102f
p537
V\u1015
p538
tp539
I13
s(V\u103a
p540
g44
V\u101a
p541
tp542
I6
s(g454
V\u104a
p543
V(
p544
tp545
I1
s(V\u1019
p546
V\u1030
p547
V\u1010
p548
tp549
I2
s(V\u1011
p550
V\u102d
p551
V\u1001
p552
tp553
I5
s(g44
g399
Vo
p554
tp555
I1
s(V\u102c
p556
V\u1005
p557
V\u102f
p558
tp559
I5
s(V\u102b
p560
g44
V\u1015
p561
tp562
I1
s(V\u101b
p563
V\u101f
p564
V\u1031
p565
tp566
I1
s(V\u103a
p567
V\u1038
p568
V\u1010
p569
tp570
I17
s(g44
V\u1019
p571
V\u1010
p572
tp573
I5
s(V\u103a
p574
V\u1019
p575
g44
tp576
I1
s(V\u1004
p577
V\u103a
p578
V\u1002
p579
tp580
I9
s(V\u1010
p581
V\u103a
p582
V\u1001
p583
tp584
I5
s(V\u201c
p585
V\u1016
p586
V\u1000
p587
tp588
I1
s(g352
g187
VF
p589
tp590
I1
s(V\u1031
p591
V\u1010
p592
V\u1032
p593
tp594
I3
s(V\u100a
p595
V\u103a
p596
g44
tp597
I29
s(V\u1037
p598
V\u1019
p599
V\u101e
p600
tp601
I1
s(V\u102f
p602
V\u1037
p603
V\u101e
p604
tp605
I7
s(V\u104d
p606
g44
V\u1001
p607
tp608
I1
s(V\u101e
p609
V\u1030
p610
V:
p611
tp612
I4
s(VB
p613
g589
g44
tp614
I1
s(g544
V\u101e
p615
V\u1030
p616
tp617
I1
s(V\u1021
p618
V\u1001
p619
V\u1036
p620
tp621
I1
s(V\u103e
p622
V\u1019
p623
V\u103a
p624
tp625
I5
s(V\u1036
p626
V\u101a
p627
V\u1030
p628
tp629
I2
s(V\u102d
p630
V\u102f
p631
V\u1012
p632
tp633
I1
s(V\u103e
p634
V\u102c
p635
V\u1016
p636
tp637
I9
s(V\u1038
p638
V\u1021
p639
V\u1006
p640
tp641
I1
s(V\u1014
p642
V\u103d
p643
V\u1031
p644
tp645
I31
s(V\u103e
p646
g44
V\u1044
p647
tp648
I1
s(V\u102c
p649
g44
V\u1004
p650
tp651
I2
s(g544
VS
p652
g187
tp653
I1
s(V\u1015
p654
V\u1012
p655
V\u1031
p656
tp657
I7
s(V\u1041
p658
g44
V\u1014
p659
tp660
I1
s(V\u102b
p661
V\u1014
p662
V\u102e
p663
tp664
I1
s(V\u1038
p665
V\u1015
p666
V\u1015
p667
tp668
I1
s(V\u102c
p669
V\u1019
p670
V\u101e
p671
tp672
I1
s(V\u1047
p673
V\u1049
p674
g44
tp675
I1
s(V\u1000
p676
V\u101d
p677
V\u1010
p678
tp679
I1
s(V\u1031
p680
V\u101e
p681
V\u1019
p682
tp683
I1
s(V\u101d
p684
g44
V\u1001
p685
tp686
I1
s(V\u1012
p687
V\u1031
p688
V\u1000
p689
tp690
I1
s(V\u102d
p691
g44
V\u1019
p692
tp693
I2
s(V\u103a
p694
V\u1001
p695
V\u1032
p696
tp697
I7
s(g44
V\u1014
p698
V\u101c
p699
tp700
I1
s(g44
V\u1000
p701
V\u102d
p702
tp703
I30
s(V\u1040
p704
V\u1041
p705
V\u1042
p706
tp707
I1
s(g44
g399
Vh
p708
tp709
I1
s(V\u102b
p710
V\u1037
p711
V\u101c
p712
tp713
I1
s(V\u1010
p714
V\u1000
p715
V\u102c
p716
tp717
I1
s(V\u1000
p718
V\u1001
p719
V\u103b
p720
tp721
I3
s(V\u1038
p722
V\u1021
p723
V\u101d
p724
tp725
I3
s(V\u1000
p726
V\u103a
p727
V\u101b
p728
tp729
I19
s(VL
p730
g397
g454
tp731
I1
s(V\u1021
p732
V\u102f
p733
V\u1015
p734
tp735
I3
s(V\u102d
p736
V\u102f
p737
V\u1038
p738
tp739
I159
s(g44
V\u1010
p740
V\u1031
p741
tp742
I6
s(V\u102b
p743
V\u1019
p744
V\u103b
p745
tp746
I1
s(V\u1012
p747
g44
V\u101b
p748
tp749
I1
s(V\u1037
p750
g44
V\u1018
p751
tp752
I3
s(V\u1021
p753
V\u1001
p754
V\u1010
p755
tp756
I1
s(V\u102c
p757
V\u1019
p758
V\u1014
p759
tp760
I1
s(V\u101c
p761
V\u1010
p762
V\u103a
p763
tp764
I2
s(V\u1037
p765
V\u1000
p766
V\u101b
p767
tp768
I1
s(V\u1031
p769
V\u102c
p770
V\u1021
p771
tp772
I1
s(V\u102b
p773
V\u1000
p774
V\u103c
p775
tp776
I12
s(g44
g544
V\u1042
p777
tp778
I5
s(V\u1014
p779
V\u103e
p780
V\u102f
p781
tp782
I13
s(V\u102d
p783
V\u101e
p784
V\u1004
p785
tp786
I1
s(V\u102d
p787
V\u103f
p788
V\u102c
p789
tp790
I1
s(V\u102e
p791
V\u1014
p792
V\u102d
p793
tp794
I2
s(V\u103e
p795
V\u1030
p796
V\u1038
p797
tp798
I3
s(V\u1030
p799
V\u1038
p800
V\u101e
p801
tp802
I1
s(V\u1030
p803
V\u101e
p804
V\u100a
p805
tp806
I1
s(V\u1001
p807
g44
V\u1016
p808
tp809
I1
s(V\u1037
p810
V\u101e
p811
V\u102d
p812
tp813
I3
s(V\u1012
p814
V\u102e
p815
V\u1014
p816
tp817
I3
s(V\u1010
p818
V\u101a
p819
V\u103a
p820
tp821
I70
s(V\u1036
p822
V\u101c
p823
V\u1000
p824
tp825
I1
s(g44
V\u1006
p826
V\u102f
p827
tp828
I4
s(V\u104b
p829
g44
V\u1016
p830
tp831
I1
s(V\u101e
p832
V\u1010
p833
V\u1004
p834
tp835
I6
s(V\u1005
p836
V\u1000
p837
g44
tp838
I1
s(V\u1001
p839
V\u101b
p840
V\u102e
p841
tp842
I1
s(g544
V\u1045
p843
V\u1042
p844
tp845
I1
s(V\u1040
p846
g454
g44
tp847
I4
s(V\u1005
p848
V\u102f
p849
V\u1015
p850
tp851
I3
s(V\u1031
p852
g44
V\u101d
p853
tp854
I1
s(V\u101b
p855
V\u1000
p856
V\u103c
p857
tp858
I3
s(V\u1031
p859
V\u101b
p860
V\u1032
p861
tp862
I7
s(V\u1000
p863
V\u103c
p864
V\u103d
p865
tp866
I3
s(V\u102d
p867
V\u1001
p868
V\u102d
p869
tp870
I5
s(V\u201c
p871
V\u1005
p872
V\u1005
p873
tp874
I1
s(V\u102f
p875
g44
V\u1006
p876
tp877
I5
s(V\u1039
p878
V\u1015
p879
V\u1036
p880
tp881
I1
s(V\u104a
p882
g44
V\u201c
p883
tp884
I1
s(V\u1019
p885
V\u103b
p886
V\u1000
p887
tp888
I2
s(V\u102d
p889
V\u1021
p890
V\u101c
p891
tp892
I2
s(V\u102c
p893
g44
V\u1021
p894
tp895
I29
s(g187
g613
g589
tp896
I1
s(V\u1032
p897
V\u101b
p898
V\u101c
p899
tp900
I1
s(V\u1019
p901
V\u1021
p902
V\u1000
p903
tp904
I2
s(g109
g109
g108
tp905
I1
s(V\u1021
p906
V\u101d
p907
V\u1031
p908
tp909
I3
s(V\u103e
p910
g44
VM
p911
tp912
I1
s(V\u1038
p913
V\u1000
p914
V\u102d
p915
tp916
I29
s(V\u1006
p917
V\u1036
p918
V\u1001
p919
tp920
I1
s(V\u1014
p921
V\u101c
p922
V\u1036
p923
tp924
I1
s(V\u101a
p925
V\u1000
p926
V\u103a
p927
tp928
I2
s(V\u102e
p929
V\u101e
p930
V\u1019
p931
tp932
I2
s(g44
V\u1019
p933
V\u1030
p934
tp935
I1
s(V\u102d
p936
V\u1016
p937
V\u102d
p938
tp939
I1
s(V\u1031
p940
g44
V\u1004
p941
tp942
I1
s(V\u101e
p943
V\u101c
p944
V\u102d
p945
tp946
I7
s(V\u1010
p947
V\u1030
p948
V\u100a
p949
tp950
I5
s(g730
g409
g230
tp951
I1
s(V\u103c
p952
V\u1010
p953
V\u102c
p954
tp955
I1
s(V\u1010
p956
V\u1001
p957
V\u103c
p958
tp959
I5
s(V\u1037
p960
V\u101f
p961
V\u102c
p962
tp963
I1
s(V\u101a
p964
V\u1031
p965
V\u102c
p966
tp967
I1
s(V\u1021
p968
V\u1016
p969
V\u103c
p970
tp971
I5
s(V\u103a
p972
g44
V\u201c
p973
tp974
I1
s(V\u103a
p975
V\u1019
p976
V\u1000
p977
tp978
I8
s(g44
V\u1000
p979
g44
tp980
I4
s(V\u1031
p981
V\u1038
p982
V\u101e
p983
tp984
I17
s(V\u103a
p985
g44
V\u104e
p986
tp987
I1
s(V\u1021
p988
V\u1001
p989
V\u103d
p990
tp991
I4
s(V\u1037
p992
V\u1010
p993
V\u1032
p994
tp995
I5
s(V\u103a
p996
V\u1016
p997
V\u103c
p998
tp999
I8
s(V\u1010
p1000
V\u103a
p1001
V\u1021
p1002
tp1003
I1
s(V\u102c
p1004
V\u1019
p1005
V\u1015
p1006
tp1007
I1
s(V\u1044
p1008
V\u1045
p1009
g44
tp1010
I1
s(V\u103a
p1011
V\u1015
p1012
V\u102b
p1013
tp1014
I26
s(g44
V\u1021
p1015
V\u1013
p1016
tp1017
I3
s(g44
V\u1015
p1018
V\u1030
p1019
tp1020
I4
s(V\u1030
p1021
V\u1001
p1022
V\u103d
p1023
tp1024
I2
s(V\u103a
p1025
V\u1010
p1026
V\u103d
p1027
tp1028
I37
s(V\u1001
p1029
V\u102b
p1030
V\u1019
p1031
tp1032
I1
s(V\u101a
p1033
V\u1004
p1034
V\u103a
p1035
tp1036
I13
s(V\u103d
p1037
V\u1032
p1038
V\u1021
p1039
tp1040
I1
s(V\u103a
p1041
V\u101c
p1042
V\u103e
p1043
tp1044
I2
s(V\u1014
p1045
V\u103e
p1046
V\u102c
p1047
tp1048
I2
s(V\u103a
p1049
V\u1021
p1050
V\u1001
p1051
tp1052
I6
s(V\u1031
p1053
V\u1015
p1054
V\u103c
p1055
tp1056
I7
s(V\u1038
p1057
V\u1002
p1058
V\u101a
p1059
tp1060
I2
s(V\u1005
p1061
g44
V\u101b
p1062
tp1063
I1
s(V\u1000
p1064
V\u1015
p1065
V\u103a
p1066
tp1067
I1
s(V\u104a
p1068
V\u1019
p1069
V\u103d
p1070
tp1071
I1
s(V\u103d
p1072
V\u103e
p1073
V\u1019
p1074
tp1075
I1
s(Vl
p1076
g554
Vm
p1077
tp1078
I1
s(V\u102f
p1079
g44
V\u1001
p1080
tp1081
I2
s(V\u1021
p1082
V\u1031
p1083
V\u102c
p1084
tp1085
I19
s(V\u103a
p1086
V\u1001
p1087
V\u103c
p1088
tp1089
I2
s(V\u101f
p1090
V\u102d
p1091
V\u1010
p1092
tp1093
I1
s(V\u1019
p1094
V\u1038
p1095
V\u103a
p1096
tp1097
I6
s(V\u1012
p1098
V\u1031
p1099
g44
tp1100
I3
s(V\u1015
p1101
V\u103c
p1102
V\u1031
p1103
tp1104
I24
s(V\u1021
p1105
V\u102d
p1106
V\u102f
p1107
tp1108
I6
s(V\u102c
p1109
V\u101e
p1110
V\u102c
p1111
tp1112
I1
s(g44
V\u1010
p1113
V\u1016
p1114
tp1115
I1
s(V\u201c
p1116
V\u101d
p1117
g44
tp1118
I1
s(V\u1038
p1119
V\u1017
p1120
V\u101f
p1121
tp1122
I1
s(V\u1038
p1123
V\u101c
p1124
V\u1004
p1125
tp1126
I3
s(V\u1012
p1127
V\u1031
p1128
V\u101e
p1129
tp1130
I11
s(V\u103a
p1131
V\u1001
p1132
V\u102f
p1133
tp1134
I2
s(V\u101d
p1135
V\u103a
p1136
V\u104a
p1137
tp1138
I1
s(V\u101d
p1139
V\u1000
p1140
g44
tp1141
I1
s(g44
V\u1018
p1142
V\u1000
p1143
tp1144
I1
s(g454
g44
V\u1012
p1145
tp1146
I1
s(V\u1004
p1147
V\u1014
p1148
V\u103a
p1149
tp1150
I3
s(V\u101b
p1151
V\u103e
p1152
V\u1031
p1153
tp1154
I3
s(V\u103a
p1155
V\u104b
p1156
V\u101c
p1157
tp1158
I1
s(V\u103e
p1159
V\u1031
p1160
V\u1021
p1161
tp1162
I1
s(V\u1019
p1163
V\u1032
p1164
g44
tp1165
I3
s(V\u103c
p1166
V\u102f
p1167
V\u1001
p1168
tp1169
I4
s(V\u1005
p1170
V\u1031
p1171
V\u102c
p1172
tp1173
I6
s(V\u103d
p1174
V\u1032
p1175
V\u1011
p1176
tp1177
I2
s(V\u103a
p1178
V\u1021
p1179
V\u1000
p1180
tp1181
I2
s(V\u1011
p1182
V\u1019
p1183
V\u1006
p1184
tp1185
I1
s(V\u103e
p1186
g44
V\u1026
p1187
tp1188
I3
s(V\u1045
p1189
V\u1048
p1190
g44
tp1191
I1
s(V\u101c
p1192
V\u103e
p1193
g44
tp1194
I1
s(V\u101d
p1195
V\u1010
p1196
V\u103a
p1197
tp1198
I1
s(V\u1000
p1199
g44
V\u1016
p1200
tp1201
I1
s(V\u1005
p1202
V\u102f
p1203
V\u101b
p1204
tp1205
I2
s(V\u1038
p1206
V\u101c
p1207
V\u102d
p1208
tp1209
I6
s(V\u103a
p1210
V\u1019
p1211
V\u102e
p1212
tp1213
I1
s(V\u1021
p1214
V\u1001
p1215
V\u102f
p1216
tp1217
I5
s(V\u1037
p1218
V\u1015
p1219
V\u102b
p1220
tp1221
I6
s(V\u1046
p1222
g44
V\u1014
p1223
tp1224
I2
s(V\u1014
p1225
V\u102f
p1226
V\u1015
p1227
tp1228
I1
s(V\u102d
p1229
V\u1014
p1230
V\u103a
p1231
tp1232
I13
s(V\u102d
p1233
g44
V\u1017
p1234
tp1235
I1
s(V\u1030
p1236
g44
V\u1019
p1237
tp1238
I1
s(V\u101e
p1239
V\u1010
p1240
V\u102d
p1241
tp1242
I2
s(V\u1038
p1243
V\u1015
p1244
V\u1031
p1245
tp1246
I7
s(V\u1032
p1247
V\u104a
p1248
V\u1015
p1249
tp1250
I1
s(V\u1031
p1251
V\u102c
p1252
V\u1005
p1253
tp1254
I1
s(V\u103c
p1255
V\u101e
p1256
V\u1030
p1257
tp1258
I1
s(V\u1001
p1259
V\u1010
p1260
V\u103a
p1261
tp1262
I4
s(V\u102c
p1263
V\u1016
p1264
V\u103c
p1265
tp1266
I14
s(V\u1031
p1267
V\u1001
p1268
V\u1032
p1269
tp1270
I1
s(V\u1036
p1271
g44
V\u1026
p1272
tp1273
I1
s(g230
g231
g108
tp1274
I4
s(V\u1030
p1275
V\u1010
p1276
V\u102d
p1277
tp1278
I8
s(V\u103a
p1279
V\u1010
p1280
V\u101c
p1281
tp1282
I2
s(V\u1030
p1283
g44
V\u1000
p1284
tp1285
I1
s(V\u1036
p1286
g44
V\u1025
p1287
tp1288
I1
s(V\u1019
p1289
V\u102c
p1290
V\u1037
p1291
tp1292
I1
s(V\u103a
p1293
V\u1037
p1294
V\u101d
p1295
tp1296
I1
s(g109
g108
Vs
p1297
tp1298
I1
s(V\u103a
p1299
V\u1001
p1300
V\u103d
p1301
tp1302
I23
s(V\u1021
p1303
V\u1014
p1304
V\u103e
p1305
tp1306
I1
s(V\u101b
p1307
g44
V\u1016
p1308
tp1309
I1
s(V\u104a
p1310
g44
V\u101e
p1311
tp1312
I1
s(V\u1038
p1313
V\u201d
p1314
g44
tp1315
I6
s(g44
V\u101e
p1316
V\u1004
p1317
tp1318
I2
s(g44
V\u1010
p1319
V\u1015
p1320
tp1321
I6
s(V\u1001
p1322
V\u102b
p1323
g44
tp1324
I2
s(V\u1014
p1325
V\u1031
p1326
V\u1000
p1327
tp1328
I14
s(V\u1038
p1329
V\u1010
p1330
V\u1015
p1331
tp1332
I2
s(V\u1038
p1333
V\u1004
p1334
V\u103d
p1335
tp1336
I1
s(g109
g554
Vu
p1337
tp1338
I2
s(V\u102d
p1339
V\u102f
p1340
g44
tp1341
I73
s(V\u102f
p1342
V\u1005
p1343
V\u102f
p1344
tp1345
I2
s(V\u103c
p1346
V\u1031
p1347
V\u1038
p1348
tp1349
I7
s(V\u101b
p1350
V\u1014
p1351
V\u102d
p1352
tp1353
I1
s(V\u101f
p1354
V\u1031
p1355
V\u102c
p1356
tp1357
I1
s(V\u103a
p1358
V\u1018
p1359
V\u102d
p1360
tp1361
I3
s(V\u1032
p1362
V\u1001
p1363
V\u1010
p1364
tp1365
I1
s(V\u1000
p1366
g44
V\u1000
p1367
tp1368
I5
s(V\u1037
p1369
V\u1010
p1370
V\u102d
p1371
tp1372
I3
s(g554
g1077
g108
tp1373
I2
s(V\u102d
p1374
V\u1015
p1375
V\u102f
p1376
tp1377
I1
s(V\u101b
p1378
g44
V\u1021
p1379
tp1380
I5
s(V\u1001
p1381
V\u1036
p1382
V\u1010
p1383
tp1384
I5
s(V\u2013
p1385
g44
V\u1019
p1386
tp1387
I1
s(g44
V\u1001
p1388
V\u1036
p1389
tp1390
I11
s(V\u1038
p1391
V\u101d
p1392
V\u102b
p1393
tp1394
I4
s(V\u1031
p1395
V\u1000
p1396
V\u103b
p1397
tp1398
I4
s(V\u102c
p1399
V\u1025
p1400
V\u1015
p1401
tp1402
I1
s(V\u102c
p1403
V\u1019
p1404
V\u100a
p1405
tp1406
I3
s(V\u1001
p1407
V\u103c
p1408
V\u1031
p1409
tp1410
I18
s(V\u1037
p1411
V\u101c
p1412
V\u102c
p1413
tp1414
I8
s(V\u102b
p1415
V\u1006
p1416
V\u102d
p1417
tp1418
I1
s(V\u1005
p1419
V\u102c
p1420
V\u1005
p1421
tp1422
I1
s(V\u1037
p1423
V\u1019
p1424
V\u101a
p1425
tp1426
I2
s(g110
g44
V\u1019
p1427
tp1428
I1
s(V\u100c
p1429
V\u1019
p1430
V\u1021
p1431
tp1432
I2
s(V\u1004
p1433
V\u1031
p1434
V\u101a
p1435
tp1436
I1
s(V\u101e
p1437
V\u1030
p1438
V\u104f
p1439
tp1440
I3
s(V\u103a
p1441
V\u1015
p1442
V\u102d
p1443
tp1444
I3
s(V\u1021
p1445
V\u1013
p1446
V\u102d
p1447
tp1448
I3
s(V\u103d
p1449
V\u1032
p1450
V\u1005
p1451
tp1452
I4
s(V\u101d
p1453
V\u102d
p1454
V\u102f
p1455
tp1456
I1
s(V\u103e
p1457
V\u102d
p1458
V\u1011
p1459
tp1460
I5
s(V\u1014
p1461
V\u1031
p1462
V\u102c
p1463
tp1464
I8
s(V\u1001
p1465
V\u1036
p1466
V\u101b
p1467
tp1468
I5
s(V\u100a
p1469
V\u1037
p1470
V\u103a
p1471
tp1472
I7
s(V\u101e
p1473
V\u1030
p1474
V\u1010
p1475
tp1476
I11
s(V\u1000
p1477
V\u1039
p1478
V\u1001
p1479
tp1480
I7
s(g44
g187
g613
tp1481
I1
s(V\u102f
p1482
V\u101e
p1483
V\u1018
p1484
tp1485
I2
s(V\u103a
p1486
V\u1037
p1487
V\u101e
p1488
tp1489
I2
s(V\u101a
p1490
V\u1001
p1491
V\u102f
p1492
tp1493
I4
s(V\u104c
p1494
g44
V\u1021
p1495
tp1496
I4
s(V\u102f
p1497
V\u1038
p1498
V\u1019
p1499
tp1500
I10
s(V\u1019
p1501
V\u101b
p1502
V\u1001
p1503
tp1504
I1
s(V\u201c
p1505
V\u101b
p1506
V\u1032
p1507
tp1508
I1
s(g409
g230
Va
p1509
tp1510
I1
s(V\u1031
p1511
V\u1037
p1512
g44
tp1513
I3
s(V\u101c
p1514
V\u102d
p1515
V\u1019
p1516
tp1517
I2
s(V\u102c
p1518
V\u1018
p1519
V\u1032
p1520
tp1521
I2
s(V\u1030
p1522
V\u101c
p1523
V\u102d
p1524
tp1525
I3
s(V\u1021
p1526
V\u101a
p1527
V\u103d
p1528
tp1529
I1
s(V\u102c
p1530
V\u1038
p1531
V\u1001
p1532
tp1533
I10
s(V\u103e
p1534
V\u102c
p1535
V\u1005
p1536
tp1537
I2
s(V\u1010
p1538
V\u103d
p1539
V\u101a
p1540
tp1541
I1
s(V\u1049
p1542
V\u1047
p1543
g44
tp1544
I1
s(g109
g110
g44
tp1545
I1
s(V\u1036
p1546
V\u1010
p1547
V\u101d
p1548
tp1549
I1
s(V\u102b
p1550
g44
V\u1042
p1551
tp1552
I1
s(V\u1038
p1553
g44
VA
p1554
tp1555
I1
s(g44
V\u1041
p1556
V\u1048
p1557
tp1558
I1
s(V\u102d
p1559
V\u102f
p1560
V\u1001
p1561
tp1562
I1
s(V\u102f
p1563
V\u1015
p1564
V\u102b
p1565
tp1566
I8
s(g44
V\u101e
p1567
V\u100a
p1568
tp1569
I5
s(V\u1032
p1570
V\u1015
p1571
V\u1031
p1572
tp1573
I2
s(V\u102f
p1574
V\u101c
p1575
V\u102d
p1576
tp1577
I8
s(V\u1015
p1578
V\u102b
p1579
V\u101b
p1580
tp1581
I9
s(V\u1005
p1582
V\u103a
p1583
V\u1001
p1584
tp1585
I5
s(V\u1042
p1586
g44
V\u1012
p1587
tp1588
I1
s(V\u1019
p1589
V\u1039
p1590
V\u1019
p1591
tp1592
I2
s(V\u100f
p1593
V\u102c
p1594
V\u1000
p1595
tp1596
I1
s(V\u103a
p1597
V\u1000
p1598
g44
tp1599
I8
s(V\u102c
p1600
g44
V\u1017
p1601
tp1602
I2
s(V\u102c
p1603
V\u103a
p1604
V\u1000
p1605
tp1606
I3
s(g398
g177
g399
tp1607
I1
s(V\u1021
p1608
V\u101b
p1609
g44
tp1610
I7
s(V\u1038
p1611
V\u1011
p1612
V\u1014
p1613
tp1614
I1
s(V\u102c
p1615
V\u1038
p1616
V\u101a
p1617
tp1618
I3
s(V\u102f
p1619
V\u1036
p1620
V\u1000
p1621
tp1622
I1
s(V\u1019
p1623
V\u102c
p1624
V\u1021
p1625
tp1626
I1
s(V\u1031
p1627
g44
g544
tp1628
I2
s(V\u1031
p1629
V\u100a
p1630
V\u102c
p1631
tp1632
I1
s(g554
g1337
Vp
p1633
tp1634
I2
s(V\u103a
p1635
V\u1038
p1636
V\u1015
p1637
tp1638
I27
s(V\u1014
p1639
V\u103a
p1640
V\u1013
p1641
tp1642
I1
s(V\u101b
p1643
V\u102c
p1644
V\u1001
p1645
tp1646
I11
s(V\u102f
p1647
V\u101b
p1648
V\u103d
p1649
tp1650
I1
s(g44
V\u1010
p1651
V\u1000
p1652
tp1653
I8
s(V\u1032
p1654
V\u201d
p1655
g44
tp1656
I2
s(V\u1038
p1657
g44
V\u1014
p1658
tp1659
I12
s(V\u101c
p1660
V\u103b
p1661
V\u102c
p1662
tp1663
I1
s(V\u102e
p1664
V\u1016
p1665
V\u103c
p1666
tp1667
I3
s(V\u102c
p1668
V\u1001
p1669
V\u103c
p1670
tp1671
I2
s(V\u1031
p1672
V\u101b
p1673
V\u101e
p1674
tp1675
I4
s(V\u101a
p1676
V\u103a
p1677
V\u1018
p1678
tp1679
I2
s(V\u1039
p1680
V\u1012
p1681
V\u1005
p1682
tp1683
I1
s(V\u102e
p1684
V\u1038
p1685
V\u101e
p1686
tp1687
I7
s(V\u102c
p1688
V\u104a
p1689
g44
tp1690
I5
s(V\u102f
p1691
V\u101c
p1692
V\u1036
p1693
tp1694
I2
s(V\u1037
p1695
g44
V\u201c
p1696
tp1697
I4
s(V\u1021
p1698
V\u1032
p1699
V\u1037
p1700
tp1701
I1
s(V\u1004
p1702
V\u103a
p1703
V\u1016
p1704
tp1705
I6
s(V\u103a
p1706
V\u1015
p1707
V\u102e
p1708
tp1709
I8
s(V\u1030
p1710
V\u1021
p1711
V\u1031
p1712
tp1713
I1
s(V\u1032
p1714
V\u1021
p1715
V\u1019
p1716
tp1717
I1
s(V\u1038
p1718
V\u101b
p1719
V\u1019
p1720
tp1721
I7
s(V\u102f
p1722
g44
V\u104e
p1723
tp1724
I1
s(V\u103a
p1725
V\u101c
p1726
V\u1019
p1727
tp1728
I1
s(V\u103a
p1729
V\u1005
p1730
V\u102f
p1731
tp1732
I19
s(V\u1010
p1733
V\u103d
p1734
V\u1000
p1735
tp1736
I15
s(V\u1031
p1737
V\u102c
p1738
V\u1016
p1739
tp1740
I1
s(V\u1001
p1741
V\u103c
p1742
V\u1004
p1743
tp1744
I20
s(V\u103b
p1745
V\u102c
p1746
V\u1014
p1747
tp1748
I1
s(g44
V\u1044
p1749
V\u1004
p1750
tp1751
I2
s(V\u1001
p1752
V\u101e
p1753
V\u100a
p1754
tp1755
I3
s(V\u103e
p1756
g44
V\u1049
p1757
tp1758
I1
s(g399
VT
p1759
g454
tp1760
I1
s(V\u101e
p1761
V\u102d
p1762
V\u1019
p1763
tp1764
I1
s(g44
V\u1011
p1765
V\u102c
p1766
tp1767
I5
s(g399
g44
V\u1021
p1768
tp1769
I1
s(V\u102c
p1770
V\u1019
p1771
V\u103b
p1772
tp1773
I3
s(V\u1038
p1774
V\u1021
p1775
V\u101c
p1776
tp1777
I2
s(V\u1000
p1778
V\u103a
p1779
g285
tp1780
I1
s(V\u102c
p1781
V\u1000
p1782
V\u103a
p1783
tp1784
I82
s(V\u1031
p1785
V\u1011
p1786
V\u102d
p1787
tp1788
I1
s(V\u102c
p1789
V\u103a
p1790
g544
tp1791
I2
s(V\u101c
p1792
V\u1032
p1793
V\u104a
p1794
tp1795
I1
s(g44
V\u1012
p1796
V\u1031
p1797
tp1798
I9
s(V\u1010
p1799
V\u1031
p1800
V\u1007
p1801
tp1802
I1
s(V\u1037
p1803
V\u1018
p1804
V\u1030
p1805
tp1806
I1
s(V\u1009
p1807
V\u103a
p1808
V\u1015
p1809
tp1810
I3
s(V\u1021
p1811
V\u101b
p1812
V\u103d
p1813
tp1814
I5
s(V\u1010
p1815
V\u103a
p1816
V\u101a
p1817
tp1818
I2
s(g44
V\u1037
p1819
V\u1014
p1820
tp1821
I1
s(V\u102c
p1822
V\u1015
p1823
V\u1031
p1824
tp1825
I1
s(V\u103d
p1826
V\u1032
p1827
V\u101e
p1828
tp1829
I3
s(V\u1010
p1830
V\u1000
p1831
V\u103a
p1832
tp1833
I8
s(g44
V\u1005
p1834
V\u1031
p1835
tp1836
I2
s(V\u1038
p1837
V\u1001
p1838
V\u1036
p1839
tp1840
I4
s(V\u1036
p1841
V\u1037
p1842
V\u1001
p1843
tp1844
I2
s(V\u101c
p1845
V\u1000
p1846
V\u103a
p1847
tp1848
I34
s(V\u103a
p1849
g451
g44
tp1850
I1
s(g44
V\u1019
p1851
V\u1001
p1852
tp1853
I1
s(V\u1031
p1854
V\u1001
p1855
V\u1036
p1856
tp1857
I13
s(V\u1031
p1858
V\u1010
p1859
V\u1036
p1860
tp1861
I1
s(V\u1031
p1862
V\u102b
p1863
g544
tp1864
I1
s(V\u1019
p1865
V\u101e
p1866
V\u1010
p1867
tp1868
I1
s(V\u1018
p1869
V\u102e
p1870
V\u101a
p1871
tp1872
I2
s(V\u1005
p1873
V\u103d
p1874
V\u1032
p1875
tp1876
I2
s(V\u103a
p1877
V\u1000
p1878
V\u102d
p1879
tp1880
I27
s(V\u102f
p1881
V\u1038
p1882
V\u1016
p1883
tp1884
I2
s(V\u1015
p1885
V\u103a
p1886
V\u1018
p1887
tp1888
I1
s(g44
V\u1015
p1889
V\u100a
p1890
tp1891
I2
s(V\u1031
p1892
V\u1037
p1893
V\u1000
p1894
tp1895
I2
s(V\u102f
p1896
g44
V\u1042
p1897
tp1898
I1
s(V\u1015
p1899
V\u103a
p1900
V\u1021
p1901
tp1902
I1
s(V\u1038
p1903
V\u1001
p1904
V\u102b
p1905
tp1906
I2
s(V\u102d
p1907
g44
V\u1010
p1908
tp1909
I1
s(V\u1013
p1910
V\u1014
p1911
V\u102f
p1912
tp1913
I1
s(V\u102c
p1914
V\u1006
p1915
V\u102d
p1916
tp1917
I9
s(V\u102c
p1918
V\u1010
p1919
V\u101a
p1920
tp1921
I1
s(g44
V\u1006
p1922
V\u1015
p1923
tp1924
I1
s(V\u103a
p1925
V\u1021
p1926
V\u1014
p1927
tp1928
I2
s(V\u1021
p1929
V\u1000
p1930
V\u103d
p1931
tp1932
I1
s(V\u102f
p1933
V\u1036
p1934
V\u101e
p1935
tp1936
I2
s(V\u1038
p1937
V\u101e
p1938
V\u1004
p1939
tp1940
I2
s(V\u1015
p1941
V\u103c
p1942
V\u100c
p1943
tp1944
I3
s(g1297
g44
g652
tp1945
I2
s(V\u103c
p1946
V\u101c
p1947
V\u102d
p1948
tp1949
I1
s(V\u1019
p1950
V\u102e
p1951
V\u101e
p1952
tp1953
I1
s(V\u1019
p1954
V\u1006
p1955
V\u102f
p1956
tp1957
I1
s(V\u1016
p1958
V\u103c
p1959
V\u1031
p1960
tp1961
I2
s(V\u102d
p1962
V\u102f
p1963
V\u1018
p1964
tp1965
I1
s(V\u1010
p1966
V\u1001
p1967
V\u103b
p1968
tp1969
I2
s(V\u102c
p1970
V\u1002
p1971
V\u1005
p1972
tp1973
I1
s(V\u102b
p1974
V\u1012
p1975
V\u1000
p1976
tp1977
I2
s(V\u103a
p1978
g44
V\u1015
p1979
tp1980
I21
s(V\u101b
p1981
V\u1019
p1982
V\u100a
p1983
tp1984
I4
s(g44
V\u1000
p1985
V\u103c
p1986
tp1987
I19
s(V\u102c
p1988
V\u103a
p1989
g44
tp1990
I12
s(V\u201c
p1991
V\u1025
p1992
V\u1015
p1993
tp1994
I1
s(V\u102f
p1995
V\u1036
p1996
g44
tp1997
I5
s(g454
g44
V\u1010
p1998
tp1999
I2
s(V\u103d
p2000
V\u1031
p2001
g44
tp2002
I30
s(V\u103b
p2003
V\u102c
p2004
V\u101a
p2005
tp2006
I9
s(V\u103a
p2007
V\u1014
p2008
V\u102c
p2009
tp2010
I6
s(V\u100a
p2011
V\u102e
p2012
V\u1019
p2013
tp2014
I1
s(V\u102c
p2015
V\u1019
p2016
V\u101c
p2017
tp2018
I1
s(V\u103a
p2019
V\u101c
p2020
V\u1000
p2021
tp2022
I3
s(V\u1021
p2023
V\u1005
p2024
V\u100a
p2025
tp2026
I15
s(g44
VE
p2027
g1554
tp2028
I2
s(V\u102d
p2029
V\u1019
p2030
V\u103e
p2031
tp2032
I1
s(V\u103c
p2033
V\u1031
p2034
V\u1015
p2035
tp2036
I1
s(V\u1037
p2037
V\u1000
p2038
V\u102d
p2039
tp2040
I4
s(V\u1031
p2041
V\u1000
p2042
V\u102d
p2043
tp2044
I10
s(V\u1011
p2045
V\u103d
p2046
V\u1000
p2047
tp2048
I9
s(V\u1047
p2049
g454
g44
tp2050
I5
s(V\u1010
p2051
V\u103a
p2052
V\u1019
p2053
tp2054
I5
s(V\u1041
p2055
V\u1049
p2056
g44
tp2057
I1
s(V\u103a
p2058
V\u1019
p2059
V\u103d
p2060
tp2061
I1
s(V\u1047
p2062
g44
V\u1001
p2063
tp2064
I1
s(g397
g1554
g1554
tp2065
I2
s(V\u1014
p2066
V\u1039
p2067
V\u1012
p2068
tp2069
I7
s(V\u102c
p2070
V\u103a
p2071
V\u1006
p2072
tp2073
I2
s(V\u1030
p2074
g44
V\u1043
p2075
tp2076
I1
s(V\u1030
p2077
V\u1018
p2078
V\u1032
p2079
tp2080
I1
s(V\u103d
p2081
V\u1000
p2082
V\u103a
p2083
tp2084
I31
s(V\u101e
p2085
V\u103d
p2086
V\u102c
p2087
tp2088
I15
s(V\u103c
p2089
V\u102c
p2090
V\u1001
p2091
tp2092
I3
s(V\u1005
p2093
V\u102f
p2094
V\u1000
p2095
tp2096
I9
s(V\u1032
p2097
V\u104b
p2098
g44
tp2099
I3
s(V\u101a
p2100
V\u102c
p2101
g44
tp2102
I2
s(g544
V\u1043
p2103
V\u1048
p2104
tp2105
I1
s(V\u103c
p2106
V\u102e
p2107
V\u1019
p2108
tp2109
I1
s(V\u1031
p2110
V\u1010
p2111
V\u102d
p2112
tp2113
I1
s(V\u1019
p2114
V\u1010
p2115
V\u103d
p2116
tp2117
I2
s(g44
V\u1015
p2118
V\u101c
p2119
tp2120
I1
s(g1297
g44
V\u1000
p2121
tp2122
I1
s(V\u1000
p2123
g44
V\u1019
p2124
tp2125
I3
s(V\u1032
p2126
V\u104a
p2127
g44
tp2128
I3
s(V\u1038
p2129
V\u103a
p2130
V\u101b
p2131
tp2132
I6
s(V\u104a
p2133
g44
V\u1012
p2134
tp2135
I1
s(V\u1015
p2136
V\u1004
p2137
V\u103a
p2138
tp2139
I7
s(V\u104b
p2140
g44
V\u1005
p2141
tp2142
I1
s(g911
g1509
g1297
tp2143
I1
s(V\u102c
p2144
g44
V\u101c
p2145
tp2146
I9
s(V\u1038
p2147
V\u1015
p2148
V\u103d
p2149
tp2150
I23
s(V\u1030
p2151
V\u1038
p2152
V\u1021
p2153
tp2154
I4
s(V\u1038
p2155
V\u1014
p2156
V\u1032
p2157
tp2158
I2
s(V\u101b
p2159
V\u103e
p2160
V\u102d
p2161
tp2162
I65
s(V\u103b
p2163
V\u1030
p2164
V\u101c
p2165
tp2166
I1
s(V\u101b
p2167
V\u103d
p2168
V\u101a
p2169
tp2170
I1
s(V\u1039
p2171
V\u1001
p2172
V\u102f
p2173
tp2174
I2
s(V\u1031
p2175
V\u102c
p2176
V\u1014
p2177
tp2178
I1
s(g231
g110
g44
tp2179
I1
s(g108
g1297
g44
tp2180
I2
s(V\u1019
p2181
V\u103c
p2182
V\u1014
p2183
tp2184
I12
s(V\u101c
p2185
V\u103e
p2186
V\u1019
p2187
tp2188
I3
s(g44
V\u1021
p2189
V\u1005
p2190
tp2191
I12
s(V\u1012
p2192
V\u1000
p2193
V\u103b
p2194
tp2195
I1
s(g44
V\u101e
p2196
V\u102e
p2197
tp2198
I1
s(V\u1012
p2199
V\u102e
p2200
V\u1006
p2201
tp2202
I1
s(V\u103a
p2203
V\u1037
p2204
V\u1019
p2205
tp2206
I6
s(V\u1001
p2207
V\u1031
p2208
V\u102b
p2209
tp2210
I2
s(V\u103a
p2211
g44
V\u1012
p2212
tp2213
I3
s(V\u1007
p2214
V\u101a
p2215
V\u102c
p2216
tp2217
I2
s(V\u1038
p2218
V\u101e
p2219
V\u100a
p2220
tp2221
I18
s(V\u1010
p2222
V\u1006
p2223
V\u1004
p2224
tp2225
I2
s(V\u102d
p2226
V\u101c
p2227
V\u102d
p2228
tp2229
I1
s(V\u1011
p2230
V\u1000
p2231
V\u103a
p2232
tp2233
I6
s(V\u1004
p2234
V\u103a
p2235
V\u101b
p2236
tp2237
I54
s(V\u102e
p2238
g44
V\u1021
p2239
tp2240
I2
s(V\u1017
p2241
V\u101f
p2242
V\u102d
p2243
tp2244
I2
s(V\u1019
p2245
V\u101b
p2246
V\u1015
p2247
tp2248
I1
s(V\u1012
p2249
V\u102b
p2250
V\u1010
p2251
tp2252
I1
s(V\u1009
p2253
V\u103a
p2254
V\u1019
p2255
tp2256
I3
s(V\u101e
p2257
V\u101c
p2258
V\u102f
p2259
tp2260
I9
s(V\u1004
p2261
V\u103a
p2262
V\u000a
p2263
tp2264
I1
s(V\u102f
p2265
V\u1038
p2266
V\u1014
p2267
tp2268
I2
s(V\u1045
p2269
g44
V\u101b
p2270
tp2271
I2
s(V>
p2272
g44
V\u1021
p2273
tp2274
I2
s(V\u102f
p2275
V\u1000
p2276
V\u101b
p2277
tp2278
I12
s(V\u102f
p2279
V\u1037
p2280
V\u1014
p2281
tp2282
I6
s(V\u1039
p2283
V\u1005
p2284
V\u101f
p2285
tp2286
I2
s(g708
g554
g409
tp2287
I1
s(g911
g1297
g176
tp2288
I1
s(V\u1040
p2289
V\u101d
p2290
g44
tp2291
I1
s(g544
V\u1047
p2292
V\u1040
p2293
tp2294
I2
s(V\u1012
p2295
V\u102e
p2296
g44
tp2297
I2
s(V\u1036
p2298
V\u1019
p2299
V\u1016
p2300
tp2301
I1
s(g187
g397
g1554
tp2302
I2
s(V\u1038
p2303
V\u1006
p2304
V\u1014
p2305
tp2306
I1
s(V\u1018
p2307
V\u103d
p2308
V\u1032
p2309
tp2310
I1
s(V\u1032
p2311
V\u1037
p2312
V\u101b
p2313
tp2314
I3
s(V\u1009
p2315
V\u103a
p2316
V\u101e
p2317
tp2318
I1
s(V\u1005
p2319
V\u102c
p2320
V\u1010
p2321
tp2322
I1
s(V\u1001
p2323
V\u1000
p2324
V\u103a
p2325
tp2326
I1
s(V\u1001
p2327
V\u102f
p2328
V\u101c
p2329
tp2330
I5
s(V\u1037
p2331
V\u1001
p2332
V\u1036
p2333
tp2334
I2
s(g2027
g1554
VO
p2335
tp2336
I3
s(V\u1026
p2337
V\u1038
p2338
V\u1016
p2339
tp2340
I4
s(V\u1030
p2341
V\u1038
p2342
V\u104b
p2343
tp2344
I3
s(V\u1030
p2345
V\u101b
p2346
V\u1031
p2347
tp2348
I1
s(V\u1031
p2349
V\u102b
p2350
V\u1037
p2351
tp2352
I3
s(V\u1045
p2353
V\u1042
p2354
g454
tp2355
I1
s(V\u1005
p2356
V\u103a
p2357
V\u101a
p2358
tp2359
I1
s(V\u103b
p2360
V\u1015
p2361
V\u103c
p2362
tp2363
I1
s(V\u1038
p2364
V\u1010
p2365
V\u1001
p2366
tp2367
I2
s(V\u1036
p2368
V\u1010
p2369
V\u1032
p2370
tp2371
I3
s(V\u1000
p2372
V\u103b
p2373
V\u1015
p2374
tp2375
I2
s(V\u102c
p2376
V\u1038
p2377
V\u1016
p2378
tp2379
I6
s(g544
V\u1042
p2380
V\u1040
p2381
tp2382
I3
s(V\u102c
p2383
V\u1006
p2384
V\u101a
p2385
tp2386
I1
s(V\u101f
p2387
V\u102d
p2388
V\u100f
p2389
tp2390
I1
s(V\u1015
p2391
V\u103a
p2392
V\u1015
p2393
tp2394
I6
s(V\u1005
p2395
V\u1000
p2396
V\u102d
p2397
tp2398
I3
s(V\u103a
p2399
V\u1038
p2400
V\u1001
p2401
tp2402
I52
s(V\u1037
p2403
V\u1019
p2404
V\u102d
p2405
tp2406
I2
s(V\u1000
p2407
g44
V\u201c
p2408
tp2409
I2
s(V\u1038
p2410
V\u1000
p2411
V\u1015
p2412
tp2413
I2
s(V\u103d
p2414
V\u1031
p2415
V\u1000
p2416
tp2417
I17
s(V\u103a
p2418
V\u1021
p2419
V\u1016
p2420
tp2421
I7
s(g44
V\u101c
p2422
V\u1019
p2423
tp2424
I1
s(V\u103a
p2425
V\u1019
p2426
V\u100a
p2427
tp2428
I5
s(V\u103a
p2429
V\u101c
p2430
g44
tp2431
I1
s(V\u1038
p2432
V\u201d
p2433
V\u101f
p2434
tp2435
I1
s(V\u101a
p2436
V\u1030
p2437
V\u1001
p2438
tp2439
I2
s(V\u103a
p2440
g544
g652
tp2441
I1
s(V\u1031
p2442
g44
V\u101c
p2443
tp2444
I1
s(V\u1030
p2445
g44
V\u1012
p2446
tp2447
I1
s(V\u1042
p2448
V\u1040
p2449
V\u101d
p2450
tp2451
I3
s(V\u103c
p2452
g44
V\u1006
p2453
tp2454
I1
s(g44
V\u100a
p2455
V\u102e
p2456
tp2457
I6
s(V\u1031
p2458
V\u1038
p2459
V\u1006
p2460
tp2461
I17
s(g44
V\u101f
p2462
V\u102d
p2463
tp2464
I1
s(V\u101a
p2465
V\u1030
p2466
V\u101e
p2467
tp2468
I2
s(V\u1038
p2469
V\u1019
p2470
g44
tp2471
I1
s(V\u1031
p2472
V\u101e
p2473
V\u100a
p2474
tp2475
I4
s(V\u1031
p2476
V\u1021
p2477
V\u102d
p2478
tp2479
I1
s(V\u101b
p2480
V\u102c
p2481
V\u1038
p2482
tp2483
I2
s(V\u102b
p2484
V\u1005
p2485
V\u1031
p2486
tp2487
I1
s(V\u1005
p2488
V\u102f
p2489
g44
tp2490
I2
s(V\u103b
p2491
V\u103e
p2492
V\u1004
p2493
tp2494
I4
s(V\u102c
p2495
g44
V\u1048
p2496
tp2497
I2
s(V\u1030
p2498
V\u1014
p2499
V\u1031
p2500
tp2501
I1
s(V\u1021
p2502
V\u1016
p2503
V\u103d
p2504
tp2505
I31
s(V\u102c
p2506
V\u1038
p2507
V\u1014
p2508
tp2509
I23
s(V\u102b
p2510
V\u1021
p2511
V\u1001
p2512
tp2513
I1
s(V\u103a
p2514
V\u1006
p2515
V\u1000
p2516
tp2517
I1
s(V\u102c
p2518
V\u1037
p2519
V\u1018
p2520
tp2521
I1
s(V\u201d
p2522
V\u101f
p2523
V\u102f
p2524
tp2525
I8
s(g44
V\u1019
p2526
V\u103e
p2527
tp2528
I10
s(V\u103a
p2529
V\u1011
p2530
V\u1000
p2531
tp2532
I1
s(V\u1038
p2533
V\u1015
p2534
V\u1014
p2535
tp2536
I2
s(g44
V\u1015
p2537
V\u1031
p2538
tp2539
I4
s(V\u1038
p2540
V\u1011
p2541
V\u1036
p2542
tp2543
I2
s(V\u1014
p2544
V\u102c
p2545
V\u101b
p2546
tp2547
I1
s(V\u1010
p2548
V\u103a
p2549
V\u1026
p2550
tp2551
I1
s(V\u102e
p2552
V\u1016
p2553
V\u1000
p2554
tp2555
I1
s(V\u1000
p2556
V\u103c
p2557
g44
tp2558
I1
s(V\u101e
p2559
V\u1036
p2560
V\u1019
p2561
tp2562
I2
s(V\u102c
p2563
V\u1011
p2564
V\u102c
p2565
tp2566
I4
s(V\u1041
p2567
V\u1044
p2568
V\u1045
p2569
tp2570
I1
s(V\u1031
p2571
V\u1021
p2572
V\u1000
p2573
tp2574
I3
s(V\u1000
p2575
V\u103d
p2576
V\u101a
p2577
tp2578
I5
s(g44
V\u1021
p2579
V\u1010
p2580
tp2581
I12
s(V\u102c
p2582
V\u1014
p2583
V\u103a
p2584
tp2585
I3
s(V\u1015
p2586
V\u103a
p2587
V\u1016
p2588
tp2589
I2
s(V\u102c
p2590
V\u1005
p2591
V\u101b
p2592
tp2593
I2
s(V\u102c
p2594
V\u1015
p2595
V\u103c
p2596
tp2597
I13
s(V\u103c
p2598
V\u102d
p2599
V\u1010
p2600
tp2601
I1
s(V\u1015
p2602
V\u1032
p2603
g44
tp2604
I1
s(g44
V\u1019
p2605
V\u1015
p2606
tp2607
I6
s(g1554
g176
VG
p2608
tp2609
I2
s(V\u103a
p2610
V\u1026
p2611
V\u1038
p2612
tp2613
I12
s(V\u1011
p2614
V\u1032
p2615
g44
tp2616
I1
s(V\u103a
p2617
V\u1015
p2618
V\u1004
p2619
tp2620
I1
s(V\u102c
p2621
V\u1019
p2622
V\u103c
p2623
tp2624
I2
s(V\u102b
p2625
g44
V\u1010
p2626
tp2627
I3
s(V\u101a
p2628
V\u103a
p2629
V\u101c
p2630
tp2631
I29
s(V\u102c
p2632
V\u1019
p2633
V\u1011
p2634
tp2635
I1
s(V\u1037
p2636
V\u1021
p2637
V\u1005
p2638
tp2639
I12
s(V\u1038
p2640
V\u101b
p2641
V\u103d
p2642
tp2643
I1
s(g611
g44
V\u1014
p2644
tp2645
I1
s(V\u101c
p2646
V\u102c
p2647
g44
tp2648
I1
s(V\u102e
p2649
V\u1038
p2650
V\u1005
p2651
tp2652
I2
s(V\u1037
p2653
V\u104a
p2654
g44
tp2655
I2
s(V\u100a
p2656
V\u103a
p2657
V\u1038
p2658
tp2659
I85
s(V\u101e
p2660
V\u1018
p2661
V\u102c
p2662
tp2663
I2
s(V\u101e
p2664
V\u1030
p2665
V\u101b
p2666
tp2667
I3
s(g44
V\u1021
p2668
V\u101b
p2669
tp2670
I14
s(V\u1031
p2671
V\u1038
p2672
V\u1026
p2673
tp2674
I1
s(V\u1031
p2675
V\u1037
p2676
V\u1019
p2677
tp2678
I2
s(V\u1012
p2679
V\u102e
p2680
V\u1000
p2681
tp2682
I3
s(V\u102d
p2683
V\u1000
p2684
V\u103c
p2685
tp2686
I4
s(V\u1032
p2687
V\u1037
p2688
V\u1012
p2689
tp2690
I1
s(V\u102c
p2691
V\u103a
p2692
V\u101c
p2693
tp2694
I7
s(V\u103c
p2695
V\u101b
p2696
g44
tp2697
I1
s(V\u104b
p2698
g44
V\u101e
p2699
tp2700
I3
s(V\u1019
p2701
V\u1011
p2702
V\u103d
p2703
tp2704
I1
s(g44
V\u101a
p2705
V\u1004
p2706
tp2707
I2
s(V\u1010
p2708
V\u1036
p2709
V\u1011
p2710
tp2711
I1
s(V\u1019
p2712
V\u1032
p2713
V\u1015
p2714
tp2715
I1
s(g544
V\u101c
p2716
V\u1031
p2717
tp2718
I1
s(V\u1005
p2719
V\u1021
p2720
V\u1019
p2721
tp2722
I1
s(g544
V\u1001
p2723
g454
tp2724
I1
s(V\u103a
p2725
g44
V\u1001
p2726
tp2727
I8
s(g451
V\u1003
p2728
g454
tp2729
I1
s(V\u1021
p2730
V\u1010
p2731
V\u103d
p2732
tp2733
I22
s(g1077
Vb
p2734
g409
tp2735
I1
s(V\u101b
p2736
V\u1031
p2737
V\u1019
p2738
tp2739
I1
s(V\u1015
p2740
V\u103a
p2741
V\u101b
p2742
tp2743
I6
s(V\u100a
p2744
V\u1031
p2745
V\u102c
p2746
tp2747
I2
s(g44
V\u1019
p2748
V\u1011
p2749
tp2750
I1
s(V\u101a
p2751
V\u103a
p2752
V\u1015
p2753
tp2754
I13
s(V\u103b
p2755
V\u1015
p2756
V\u103a
p2757
tp2758
I2
s(V\u102c
p2759
V\u1010
p2760
V\u103a
p2761
tp2762
I1
s(V\u1031
p2763
V\u102c
p2764
V\u101a
p2765
tp2766
I1
s(V\u102c
p2767
V\u101c
p2768
V\u1030
p2769
tp2770
I2
s(V\u1011
p2771
V\u1014
p2772
V\u103a
p2773
tp2774
I1
s(V\u102d
p2775
V\u1018
p2776
V\u1030
p2777
tp2778
I2
s(V\u1014
p2779
V\u103a
p2780
V\u1016
p2781
tp2782
I2
s(V\u102e
p2783
V\u1038
p2784
V\u1019
p2785
tp2786
I26
s(V\u1038
p2787
V\u101f
p2788
V\u102c
p2789
tp2790
I7
s(V\u1015
p2791
V\u103a
p2792
g44
tp2793
I9
s(V\u103b
p2794
V\u103e
p2795
V\u1031
p2796
tp2797
I2
s(Vc
p2798
g108
g1297
tp2799
I1
s(V\u1037
p2800
V\u1014
p2801
V\u102d
p2802
tp2803
I2
s(V\u1030
p2804
V\u1038
p2805
g44
tp2806
I7
s(V\u1010
p2807
V\u102d
p2808
V\u1000
p2809
tp2810
I1
s(g554
g109
g231
tp2811
I2
s(V\u1038
p2812
V\u1014
p2813
V\u1015
p2814
tp2815
I1
s(V\u102d
p2816
V\u1014
p2817
V\u1031
p2818
tp2819
I5
s(V\u1038
p2820
g544
V\u1047
p2821
tp2822
I1
s(V\u1030
p2823
V\u1019
p2824
V\u103e
p2825
tp2826
I2
s(V\u102c
p2827
g44
V\u1001
p2828
tp2829
I1
s(V\u1041
p2830
g454
V\u1019
p2831
tp2832
I2
s(V\u1039
p2833
V\u1001
p2834
g44
tp2835
I1
s(V\u1019
p2836
V\u102d
p2837
V\u101e
p2838
tp2839
I2
s(V\u102e
p2840
V\u1006
p2841
V\u1031
p2842
tp2843
I1
s(V\u102d
p2844
V\u101e
p2845
V\u101c
p2846
tp2847
I1
s(V\u103e
p2848
V\u102f
p2849
g44
tp2850
I11
s(g911
g454
V\u1000
p2851
tp2852
I1
s(V\u1041
p2853
V\u1040
p2854
g44
tp2855
I1
s(V\u102d
p2856
V\u1010
p2857
V\u101a
p2858
tp2859
I3
s(V\u103c
p2860
V\u1007
p2861
V\u102c
p2862
tp2863
I2
s(V\u102c
p2864
V\u1010
p2865
V\u1010
p2866
tp2867
I1
s(V\u103c
p2868
V\u101e
p2869
V\u102f
p2870
tp2871
I1
s(V\u102d
p2872
V\u1019
p2873
V\u103a
p2874
tp2875
I47
s(V\u1010
p2876
V\u102c
p2877
V\u101b
p2878
tp2879
I1
s(g1554
g1554
g44
tp2880
I2
s(V\u102b
p2881
V\u1012
p2882
V\u102e
p2883
tp2884
I1
s(V\u103a
p2885
V\u1018
p2886
V\u102c
p2887
tp2888
I2
s(V\u1015
p2889
V\u103c
p2890
V\u1000
p2891
tp2892
I1
s(V\u1037
p2893
V\u1014
p2894
V\u103e
p2895
tp2896
I1
s(V\u104b
p2897
g44
g544
tp2898
I1
s(V\u1016
p2899
V\u1031
p2900
V\u102b
p2901
tp2902
I1
s(V\u1021
p2903
V\u1000
p2904
V\u1031
p2905
tp2906
I6
s(V\u103a
p2907
V\u1010
p2908
V\u1032
p2909
tp2910
I12
s(g1337
g1633
g44
tp2911
I2
s(V\u1004
p2912
V\u103a
p2913
V\u1018
p2914
tp2915
I5
s(V\u1001
p2916
V\u1036
p2917
V\u1011
p2918
tp2919
I1
s(g187
g1554
g44
tp2920
I1
s(V\u103e
p2921
V\u1019
p2922
V\u1031
p2923
tp2924
I2
s(V\u1019
p2925
V\u101b
p2926
V\u103e
p2927
tp2928
I14
s(V\u103a
p2929
V\u101b
p2930
V\u1015
p2931
tp2932
I4
s(g44
V\u1041
p2933
V\u1040
p2934
tp2935
I2
s(V\u1001
p2936
V\u103b
p2937
V\u1004
p2938
tp2939
I15
s(V\u103a
p2940
V\u1010
p2941
V\u1014
p2942
tp2943
I4
s(V\u102f
p2944
V\u1016
p2945
V\u103d
p2946
tp2947
I1
s(g352
VP
p2948
g397
tp2949
I1
s(V\u102b
p2950
V\u1010
p2951
V\u103d
p2952
tp2953
I1
s(V\u103d
p2954
V\u1032
p2955
V\u1037
p2956
tp2957
I47
s(V\u1005
p2958
V\u1031
p2959
V\u201d
p2960
tp2961
I1
s(V\u1032
p2962
V\u1037
p2963
V\u1021
p2964
tp2965
I17
s(V\u102f
p2966
V\u101e
p2967
V\u1030
p2968
tp2969
I1
s(V\u1010
p2970
V\u102c
p2971
V\u1010
p2972
tp2973
I5
s(V\u1001
p2974
V\u1036
p2975
V\u101a
p2976
tp2977
I2
s(V\u1019
p2978
V\u101e
p2979
V\u102d
p2980
tp2981
I1
s(V\u1032
p2982
V\u1000
p2983
V\u103c
p2984
tp2985
I3
s(V\u103a
p2986
V\u101a
p2987
V\u1030
p2988
tp2989
I7
s(V\u102c
p2990
g454
g44
tp2991
I1
s(V\u101e
p2992
V\u102d
p2993
V\u1016
p2994
tp2995
I1
s(g44
V\u101c
p2996
V\u103e
p2997
tp2998
I3
s(V\u104b
p2999
g44
g187
tp3000
I1
s(V\u103a
p3001
V\u1037
p3002
V\u1010
p3003
tp3004
I8
s(V\u1048
p3005
g44
V\u1026
p3006
tp3007
I1
s(V\u1011
p3008
V\u1032
p3009
V\u1000
p3010
tp3011
I1
s(V\u103a
p3012
V\u103a
p3013
V\u1037
p3014
tp3015
I1
s(V\u101c
p3016
V\u103e
p3017
V\u103b
p3018
tp3019
I1
s(V\u102c
p3020
V\u1000
p3021
V\u102d
p3022
tp3023
I5
s(V\u1000
p3024
V\u103a
p3025
V\u1006
p3026
tp3027
I7
s(V\u102b
p3028
V\u1000
p3029
V\u103a
p3030
tp3031
I8
s(V\u1038
p3032
V\u1019
p3033
V\u1032
p3034
tp3035
I2
s(V\u102f
p3036
V\u101e
p3037
V\u103d
p3038
tp3039
I1
s(V\u1032
p3040
V\u1015
p3041
V\u103b
p3042
tp3043
I1
s(V\u102c
p3044
V\u101b
p3045
V\u1019
p3046
tp3047
I1
s(V\u1038
p3048
g44
V\u1021
p3049
tp3050
I53
s(V\u1019
p3051
V\u1032
p3052
V\u101b
p3053
tp3054
I3
s(g44
V\u1021
p3055
V\u1016
p3056
tp3057
I11
s(V\u103a
p3058
V\u101e
p3059
V\u1000
p3060
tp3061
I4
s(V\u102e
p3062
V\u1038
p3063
g44
tp3064
I52
s(V\u102d
p3065
V\u1002
p3066
V\u102f
p3067
tp3068
I1
s(V\u1001
p3069
V\u1036
p3070
V\u1018
p3071
tp3072
I2
s(V\u1036
p3073
g44
V\u1014
p3074
tp3075
I1
s(V\u1031
p3076
V\u101c
p3077
V\u1032
p3078
tp3079
I1
s(V\u1031
p3080
V\u1019
p3081
V\u1032
p3082
tp3083
I8
s(V\u1018
p3084
V\u102c
p3085
V\u101d
p3086
tp3087
I1
s(V\u102f
p3088
V\u1015
p3089
V\u102e
p3090
tp3091
I3
s(V\u100a
p3092
V\u102e
p3093
V\u101c
p3094
tp3095
I7
s(V\u102f
p3096
V\u1036
p3097
V\u100a
p3098
tp3099
I4
s(V\u1010
p3100
V\u102d
p3101
V\u1021
p3102
tp3103
I2
s(V\u102f
p3104
V\u1014
p3105
V\u103a
p3106
tp3107
I17
s(V\u103c
p3108
V\u103f
p3109
V\u1014
p3110
tp3111
I2
s(V\u1046
p3112
g451
V\u1003
p3113
tp3114
I1
s(V\u1014
p3115
V\u1010
p3116
V\u103d
p3117
tp3118
I1
s(V\u1038
p3119
V\u1021
p3120
V\u1031
p3121
tp3122
I3
s(V\u1038
p3123
V\u1014
p3124
V\u103e
p3125
tp3126
I13
s(V\u1021
p3127
V\u101c
p3128
V\u102d
p3129
tp3130
I3
s(V\u1030
p3131
V\u1014
p3132
V\u100a
p3133
tp3134
I1
s(V\u1037
p3135
g44
V\u1016
p3136
tp3137
I10
s(g108
g109
g1297
tp3138
I1
s(V\u103d
p3139
V\u103e
p3140
V\u1031
p3141
tp3142
I5
s(V\u1019
p3143
V\u1032
p3144
V\u1006
p3145
tp3146
I4
s(V\u101d
p3147
V\u1048
p3148
g454
tp3149
I3
s(V\u102e
p3150
V\u1038
p3151
V\u101b
p3152
tp3153
I5
s(g285
g44
V\u1019
p3154
tp3155
I1
s(V\u1010
p3156
V\u1030
p3157
V\u1019
p3158
tp3159
I1
s(V\u102f
p3160
V\u1019
p3161
V\u1010
p3162
tp3163
I1
s(V\u1012
p3164
V\u102b
p3165
V\u1015
p3166
tp3167
I7
s(V\u1021
p3168
V\u1000
p3169
V\u1032
p3170
tp3171
I1
s(V\u101c
p3172
V\u102c
p3173
V\u1012
p3174
tp3175
I1
s(V\u1038
p3176
V\u1019
p3177
V\u103b
p3178
tp3179
I54
s(V\u1005
p3180
V\u103a
p3181
g44
tp3182
I8
s(V\u1041
p3183
g454
V\u1010
p3184
tp3185
I3
s(V\u1036
p3186
V\u1019
p3187
V\u1030
p3188
tp3189
I1
s(V\u1010
p3190
V\u102c
p3191
V\u1015
p3192
tp3193
I3
s(V\u103a
p3194
g44
V\u101e
p3195
tp3196
I6
s(V\u1000
p3197
g44
V\u1015
p3198
tp3199
I4
s(V\u101b
p3200
V\u1031
p3201
V\u101f
p3202
tp3203
I1
s(V\u1037
p3204
V\u101b
p3205
V\u101e
p3206
tp3207
I1
s(V\u1039
p3208
V\u1001
p3209
V\u1019
p3210
tp3211
I2
s(V\u1030
p3212
V\u104f
p3213
g44
tp3214
I3
s(V\u101b
p3215
V\u1015
p3216
V\u103c
p3217
tp3218
I2
s(V\u103a
p3219
V\u1038
p3220
V\u1014
p3221
tp3222
I10
s(V\u100a
p3223
V\u103a
p3224
V\u1011
p3225
tp3226
I21
s(V\u1037
p3227
V\u101e
p3228
V\u100a
p3229
tp3230
I6
s(V\u1011
p3231
V\u103d
p3232
V\u1014
p3233
tp3234
I2
s(V\u1000
p3235
V\u103c
p3236
V\u1019
p3237
tp3238
I1
s(V\u103c
p3239
V\u1006
p3240
V\u103d
p3241
tp3242
I1
s(V\u102e
p3243
V\u101e
p3244
V\u1031
p3245
tp3246
I1
s(V\u102d
p3247
V\u1010
p3248
V\u102d
p3249
tp3250
I1
s(g177
g399
g911
tp3251
I1
s(V\u1019
p3252
V\u103c
p3253
V\u1032
p3254
tp3255
I1
s(V\u102f
p3256
V\u1021
p3257
V\u1014
p3258
tp3259
I1
s(V\u1001
p3260
V\u103c
p3261
V\u102c
p3262
tp3263
I10
s(g399
g454
V\u1010
p3264
tp3265
I2
s(V\u1038
p3266
V\u1018
p3267
V\u102d
p3268
tp3269
I3
s(V\u103e
p3270
g44
V\u101e
p3271
tp3272
I3
s(V\u101c
p3273
V\u103e
p3274
V\u102d
p3275
tp3276
I1
s(V\u1038
p3277
V\u1005
p3278
V\u103d
p3279
tp3280
I3
s(V\u1039
p3281
V\u1000
p3282
V\u101e
p3283
tp3284
I1
s(V\u103a
p3285
V\u1005
p3286
V\u101b
p3287
tp3288
I3
s(V\u1032
p3289
V\u1014
p3290
V\u100a
p3291
tp3292
I1
s(V\u1021
p3293
V\u1000
p3294
V\u103b
p3295
tp3296
I2
s(V\u101b
p3297
V\u1031
p3298
V\u1014
p3299
tp3300
I1
s(V\u100a
p3301
V\u103a
p3302
V\u1006
p3303
tp3304
I9
s(V\u1039
p3305
V\u100d
p3306
g44
tp3307
I1
s(V\u102f
p3308
g44
V\u101e
p3309
tp3310
I2
s(g110
g44
g399
tp3311
I1
s(V\u1015
p3312
V\u103c
p3313
g44
tp3314
I4
s(V\u1032
p3315
V\u1014
p3316
V\u103e
p3317
tp3318
I1
s(V\u103a
p3319
V\u2019
p3320
g44
tp3321
I1
s(V\u1019
p3322
V\u100a
p3323
V\u1031
p3324
tp3325
I1
s(V\u1038
p3326
V\u1011
p3327
V\u102c
p3328
tp3329
I7
s(V\u101c
p3330
V\u1030
p3331
V\u1011
p3332
tp3333
I1
s(V\u1038
p3334
V\u1006
p3335
V\u1000
p3336
tp3337
I1
s(V\u102d
p3338
g44
V\u101d
p3339
tp3340
I1
s(V\u1037
p3341
V\u1005
p3342
V\u1015
p3343
tp3344
I2
s(V\u102c
p3345
V\u101c
p3346
V\u100a
p3347
tp3348
I4
s(V\u1014
p3349
V\u103a
p3350
V\u101b
p3351
tp3352
I1
s(V\u103d
p3353
V\u1032
p3354
V\u1010
p3355
tp3356
I13
s(V\u1019
p3357
V\u1010
p3358
V\u103a
p3359
tp3360
I3
s(V\u104a
p3361
g44
V\u101d
p3362
tp3363
I1
s(V\u101c
p3364
V\u1036
p3365
V\u1011
p3366
tp3367
I1
s(V\u1032
p3368
g44
V\u1000
p3369
tp3370
I4
s(V\u102e
p3371
g44
V\u1041
p3372
tp3373
I1
s(V\u101b
p3374
V\u102f
p3375
V\u1015
p3376
tp3377
I1
s(V\u103a
p3378
V\u1038
p3379
V\u000a
p3380
tp3381
I2
s(V\u1004
p3382
V\u1037
p3383
V\u103a
p3384
tp3385
I14
s(V\u1038
p3386
V\u101a
p3387
V\u1004
p3388
tp3389
I3
s(V\u102e
p3390
V\u1015
p3391
V\u102b
p3392
tp3393
I9
s(g44
V\u101e
p3394
V\u103c
p3395
tp3396
I2
s(V\u1036
p3397
V\u1005
p3398
V\u102c
p3399
tp3400
I13
s(V\u1019
p3401
V\u1015
p3402
V\u103b
p3403
tp3404
I1
s(V\u1038
p3405
V\u1011
p3406
V\u1032
p3407
tp3408
I3
s(V\u102f
p3409
V\u1038
p3410
V\u1006
p3411
tp3412
I2
s(V\u1015
p3413
V\u1001
p3414
V\u1032
p3415
tp3416
I3
s(V\u1011
p3417
V\u1004
p3418
V\u103a
p3419
tp3420
I2
s(V\u1010
p3421
V\u101c
p3422
V\u1031
p3423
tp3424
I2
s(V\u102f
p3425
V\u101e
p3426
V\u100a
p3427
tp3428
I17
s(g44
V\u100a
p3429
V\u1004
p3430
tp3431
I1
s(V\u102f
p3432
g44
V\u201c
p3433
tp3434
I1
s(V\u103d
p3435
V\u1032
p3436
V\u101b
p3437
tp3438
I4
s(V\u1038
p3439
V\u1014
p3440
V\u1031
p3441
tp3442
I25
s(V\u101b
p3443
V\u101e
p3444
V\u1030
p3445
tp3446
I1
s(V\u1032
p3447
V\u101b
p3448
V\u1004
p3449
tp3450
I1
s(V\u1014
p3451
V\u1032
p3452
V\u1037
p3453
tp3454
I17
s(V\u1026
p3455
V\u1038
p3456
V\u1011
p3457
tp3458
I1
s(V\u1036
p3459
V\u1000
p3460
V\u103c
p3461
tp3462
I6
s(V\u103a
p3463
V\u101f
p3464
V\u102f
p3465
tp3466
I6
s(V\u1038
p3467
V\u101e
p3468
V\u101c
p3469
tp3470
I2
s(V\u103a
p3471
V\u1000
p3472
V\u103b
p3473
tp3474
I3
s(g544
V\u1010
p3475
V\u1014
p3476
tp3477
I1
s(V\u102c
p3478
V\u103a
p3479
V\u101b
p3480
tp3481
I1
s(V\u1012
p3482
V\u102e
p3483
V\u1019
p3484
tp3485
I15
s(g2948
g44
V\u1019
p3486
tp3487
I1
s(V\u103c
p3488
V\u1031
p3489
V\u1021
p3490
tp3491
I5
s(V\u102f
p3492
V\u1037
p3493
V\u101f
p3494
tp3495
I1
s(V\u103a
p3496
V\u1005
p3497
V\u1009
p3498
tp3499
I3
s(V\u1032
p3500
V\u1000
p3501
V\u1031
p3502
tp3503
I7
s(g44
V\u1014
p3504
V\u1032
p3505
tp3506
I2
s(V\u103a
p3507
V\u1019
p3508
V\u1014
p3509
tp3510
I1
s(V\u1031
p3511
V\u1000
p3512
V\u1010
p3513
tp3514
I3
s(V\u103e
p3515
g44
V\u101d
p3516
tp3517
I1
s(g44
V\u1049
p3518
V\u1045
p3519
tp3520
I3
s(V\u104a
p3521
g44
V\u1016
p3522
tp3523
I2
s(V\u1031
p3524
V\u1037
p3525
V\u1006
p3526
tp3527
I1
s(V\u101b
p3528
V\u1032
p3529
V\u1037
p3530
tp3531
I17
s(V\u102d
p3532
V\u1015
p3533
V\u103c
p3534
tp3535
I1
s(V\u103a
p3536
g44
V\u1041
p3537
tp3538
I6
s(V\u1021
p3539
V\u1000
p3540
V\u103c
p3541
tp3542
I23
s(g399
g1554
g44
tp3543
I6
s(V\u1015
p3544
V\u1031
p3545
V\u1010
p3546
tp3547
I1
s(V\u103e
p3548
V\u102f
p3549
V\u1021
p3550
tp3551
I2
s(V\u1032
p3552
g44
V\u1016
p3553
tp3554
I2
s(V\u102f
p3555
V\u1010
p3556
V\u102c
p3557
tp3558
I12
s(V\u1019
p3559
V\u101a
p3560
V\u103a
p3561
tp3562
I15
s(V\u101b
p3563
V\u102c
p3564
V\u1019
p3565
tp3566
I4
s(V\u1015
p3567
V\u1032
p3568
V\u1037
p3569
tp3570
I1
s(V\u102c
p3571
V\u101d
p3572
V\u1014
p3573
tp3574
I6
s(V\u103a
p3575
V\u1038
p3576
g44
tp3577
I103
s(V\u103c
p3578
V\u102c
p3579
V\u1019
p3580
tp3581
I2
s(V\u1037
p3582
g44
V\u1001
p3583
tp3584
I8
s(V\u103a
p3585
V\u1006
p3586
V\u1014
p3587
tp3588
I2
s(V\u102d
p3589
V\u1011
p3590
V\u102c
p3591
tp3592
I6
s(V\u102c
p3593
V\u1037
p3594
V\u1014
p3595
tp3596
I2
s(V\u103e
p3597
g44
V\u1010
p3598
tp3599
I1
s(V\u1031
p3600
V\u102b
p3601
g44
tp3602
I1
s(V\u1001
p3603
V\u103d
p3604
V\u102c
p3605
tp3606
I2
s(g44
V\u1010
p3607
V\u102d
p3608
tp3609
I21
s(V\u101d
p3610
V\u1014
p3611
V\u103a
p3612
tp3613
I6
s(V\u1031
p3614
g44
V\u1011
p3615
tp3616
I4
s(V\u1037
p3617
g44
V\u1014
p3618
tp3619
I7
s(V\u1038
p3620
V\u1010
p3621
V\u103d
p3622
tp3623
I45
s(V\u1014
p3624
V\u1031
p3625
V\u1021
p3626
tp3627
I1
s(V\u1000
p3628
V\u103a
p3629
V\u101c
p3630
tp3631
I9
s(g230
Vd
p3632
g409
tp3633
I1
s(V\u104a
p3634
g44
V\u1018
p3635
tp3636
I1
s(V\u1038
p3637
g44
V\u1045
p3638
tp3639
I2
s(V\u103a
p3640
V\u1016
p3641
V\u1000
p3642
tp3643
I1
s(V\u103d
p3644
V\u1004
p3645
V\u103a
p3646
tp3647
I106
s(g2734
g409
g1509
tp3648
I1
s(V\u1015
p3649
V\u1039
p3650
V\u1015
p3651
tp3652
I1
s(V\u1021
p3653
V\u1011
p3654
V\u1030
p3655
tp3656
I1
s(V\u1031
p3657
V\u102c
p3658
V\u101e
p3659
tp3660
I6
s(V\u101d
p3661
V\u102e
p3662
V\u1021
p3663
tp3664
I2
s(V\u1005
p3665
V\u1036
p3666
V\u1019
p3667
tp3668
I1
s(g44
V\u1021
p3669
V\u102c
p3670
tp3671
I12
s(V\u102d
p3672
V\u101b
p3673
V\u1014
p3674
tp3675
I2
s(V\u103a
p3676
V\u1021
p3677
V\u101c
p3678
tp3679
I2
s(V\u1010
p3680
V\u103a
p3681
V\u1011
p3682
tp3683
I1
s(g44
V\u1021
p3684
V\u1031
p3685
tp3686
I1
s(V\u1031
p3687
g44
V\u1037
p3688
tp3689
I1
s(V\u103c
p3690
V\u1031
p3691
V\u1012
p3692
tp3693
I1
s(V\u1021
p3694
V\u1011
p3695
V\u102d
p3696
tp3697
I2
s(V\u102b
p3698
V\u1004
p3699
V\u103a
p3700
tp3701
I14
s(V\u1036
p3702
V\u1018
p3703
V\u102d
p3704
tp3705
I1
s(g399
g1554
g454
tp3706
I1
s(V\u102b
p3707
g44
V\u1004
p3708
tp3709
I1
s(V\u1038
p3710
V\u1015
p3711
V\u102f
p3712
tp3713
I3
s(V\u1015
p3714
V\u1011
p3715
V\u101d
p3716
tp3717
I3
s(V\u1038
p3718
V\u1019
p3719
V\u103d
p3720
tp3721
I1
s(V\u1032
p3722
V\u1037
p3723
V\u000a
p3724
tp3725
I1
s(V\u102c
p3726
g44
g544
tp3727
I4
s(V\u1038
p3728
V\u1010
p3729
V\u1032
p3730
tp3731
I4
s(g1633
g1633
g554
tp3732
I2
s(V\u103c
p3733
V\u1031
p3734
V\u101b
p3735
tp3736
I1
s(V\u102c
p3737
V\u101c
p3738
V\u1031
p3739
tp3740
I1
s(V\u1037
p3741
V\u1021
p3742
V\u1000
p3743
tp3744
I4
s(V\u102e
p3745
V\u101c
p3746
V\u102d
p3747
tp3748
I3
s(V\u102f
p3749
V\u1036
p3750
V\u1038
p3751
tp3752
I48
s(V\u101b
p3753
V\u101c
p3754
V\u102c
p3755
tp3756
I1
s(V\u1037
p3757
g44
g2027
tp3758
I2
s(V\u101b
p3759
V\u1010
p3760
V\u1032
p3761
tp3762
I1
s(V\u102e
p3763
g44
V\u1005
p3764
tp3765
I1
s(V\u101b
p3766
V\u1019
p3767
V\u101a
p3768
tp3769
I5
s(V\u101c
p3770
V\u103e
p3771
V\u101a
p3772
tp3773
I21
s(V\u103a
p3774
V\u101e
p3775
V\u102d
p3776
tp3777
I2
s(V\u1011
p3778
V\u1032
p3779
V\u101b
p3780
tp3781
I1
s(V\u103a
p3782
g44
V\u104b
p3783
tp3784
I1
s(V\u1037
p3785
g44
g544
tp3786
I3
s(V\u1015
p3787
V\u102b
p3788
V\u201d
p3789
tp3790
I1
s(V\u102f
p3791
V\u1012
p3792
V\u103a
p3793
tp3794
I2
s(V\u1031
p3795
V\u1038
p3796
V\u1017
p3797
tp3798
I1
s(V\u101c
p3799
V\u1030
p3800
V\u1014
p3801
tp3802
I1
s(V\u1031
p3803
V\u102c
p3804
V\u1011
p3805
tp3806
I4
s(V\u1031
p3807
V\u101e
p3808
V\u1030
p3809
tp3810
I3
s(V\u1011
p3811
V\u100a
p3812
V\u103a
p3813
tp3814
I7
s(V\u103a
p3815
V\u1010
p3816
V\u1036
p3817
tp3818
I2
s(g44
V\u1000
p3819
V\u1006
p3820
tp3821
I2
s(V\u1037
p3822
V\u1006
p3823
V\u1031
p3824
tp3825
I1
s(V\u1032
p3826
g44
V\u1015
p3827
tp3828
I3
s(g2027
g397
g1554
tp3829
I1
s(V\u103a
p3830
V\u1010
p3831
V\u1031
p3832
tp3833
I29
s(V\u103a
p3834
V\u1011
p3835
V\u1015
p3836
tp3837
I1
s(V\u102e
p3838
V\u1014
p3839
V\u1031
p3840
tp3841
I1
s(V\u102d
p3842
V\u101c
p3843
V\u102c
p3844
tp3845
I1
s(V\u102f
p3846
V\u101b
p3847
V\u1032
p3848
tp3849
I1
s(g398
g399
g454
tp3850
I1
s(V\u102e
p3851
V\u1038
p3852
V\u104a
p3853
tp3854
I1
s(V\u1037
p3855
g44
g187
tp3856
I1
s(g409
g231
g110
tp3857
I1
s(V\u102c
p3858
V\u103a
p3859
V\u1011
p3860
tp3861
I3
s(g44
V\u101e
p3862
V\u1018
p3863
tp3864
I9
s(V\u1019
p3865
V\u1030
p3866
V\u101d
p3867
tp3868
I1
s(V\u104b
p3869
V\u1021
p3870
V\u101b
p3871
tp3872
I1
s(V\u1038
p3873
V\u101b
p3874
V\u1032
p3875
tp3876
I6
s(g44
V\u101c
p3877
V\u102d
p3878
tp3879
I7
s(V\u102f
p3880
V\u1037
p3881
V\u1015
p3882
tp3883
I10
s(V\u1000
p3884
V\u103b
p3885
V\u103d
p3886
tp3887
I8
s(V\u1004
p3888
V\u1036
p3889
V\u101e
p3890
tp3891
I1
s(V\u1037
p3892
g44
V\u101a
p3893
tp3894
I1
s(V\u1010
p3895
V\u1030
p3896
V\u101e
p3897
tp3898
I1
s(V\u102c
p3899
g44
V\u1011
p3900
tp3901
I2
s(V\u1036
p3902
V\u1014
p3903
V\u1032
p3904
tp3905
I2
s(V\u1021
p3906
V\u102d
p3907
V\u1019
p3908
tp3909
I1
s(V\u102c
p3910
V\u101b
p3911
V\u102c
p3912
tp3913
I2
s(V\u1005
p3914
V\u103d
p3915
V\u1019
p3916
tp3917
I1
s(V\u103e
p3918
V\u102f
p3919
V\u1015
p3920
tp3921
I2
s(V\u103a
p3922
V\u1006
p3923
V\u102d
p3924
tp3925
I19
s(g1297
g44
V\u1010
p3926
tp3927
I3
s(V\u101c
p3928
V\u1019
p3929
V\u103c
p3930
tp3931
I1
s(g44
V\u1015
p3932
V\u102f
p3933
tp3934
I5
s(V\u103a
p3935
g44
V\u100a
p3936
tp3937
I5
s(g44
V\u1005
p3938
V\u102e
p3939
tp3940
I5
s(V\u1031
p3941
V\u1038
p3942
V\u1010
p3943
tp3944
I9
s(V\u1038
p3945
g44
V\u1016
p3946
tp3947
I6
s(g44
g544
V\u1044
p3948
tp3949
I2
s(g44
g2272
g44
tp3950
I2
s(g44
V\u104b
p3951
V\u1021
p3952
tp3953
I1
s(V\u103a
p3954
V\u1038
p3955
V\u1000
p3956
tp3957
I19
s(V\u1038
p3958
V\u1021
p3959
V\u1010
p3960
tp3961
I4
s(V\u103a
p3962
V\u1019
p3963
V\u1030
p3964
tp3965
I1
s(g544
V\u1042
p3966
V\u1041
p3967
tp3968
I1
s(V\u1044
p3969
V\u1040
p3970
g44
tp3971
I1
s(V\u1026
p3972
V\u1038
p3973
g44
tp3974
I4
s(V\u102f
p3975
V\u1021
p3976
V\u1019
p3977
tp3978
I1
s(V\u1031
p3979
V\u102b
p3980
V\u1000
p3981
tp3982
I8
s(V\u101b
p3983
V\u1032
p3984
g44
tp3985
I1
s(V\u102f
p3986
V\u1036
p3987
V\u1019
p3988
tp3989
I10
s(V\u201c
p3990
V\u101b
p3991
V\u103d
p3992
tp3993
I1
s(g1554
g187
g2335
tp3994
I1
s(V\u103d
p3995
V\u1031
p3996
V\u1001
p3997
tp3998
I1
s(V\u101b
p3999
V\u101c
p4000
V\u1032
p4001
tp4002
I2
s(V\u101a
p4003
V\u103a
p4004
V\u101e
p4005
tp4006
I1
s(V\u102c
p4007
V\u1014
p4008
V\u102d
p4009
tp4010
I13
s(V\u1019
p4011
V\u1032
p4012
V\u104a
p4013
tp4014
I4
s(V\u1015
p4015
V\u101b
p4016
V\u101f
p4017
tp4018
I1
s(V\u1032
p4019
g44
V\u1048
p4020
tp4021
I1
s(V\u1015
p4022
V\u1010
p4023
V\u103a
p4024
tp4025
I4
s(V\u1036
p4026
V\u1021
p4027
V\u1010
p4028
tp4029
I2
s(V\u103a
p4030
V\u1005
p4031
V\u1000
p4032
tp4033
I1
s(V\u101c
p4034
V\u1031
p4035
V\u1038
p4036
tp4037
I12
s(V\u101a
p4038
V\u103a
p4039
V\u104a
p4040
tp4041
I4
s(V\u1038
p4042
V\u101b
p4043
V\u102c
p4044
tp4045
I2
s(g398
g911
g399
tp4046
I1
s(V\u1010
p4047
V\u101b
p4048
V\u102c
p4049
tp4050
I2
s(V\u102c
p4051
V\u1005
p4052
V\u102d
p4053
tp4054
I1
s(V\u1038
p4055
V\u1016
p4056
V\u1000
p4057
tp4058
I1
s(V\u102b
p4059
V\u1038
p4060
g44
tp4061
I3
s(V\u102d
p4062
V\u102f
p4063
V\u101c
p4064
tp4065
I14
s(V\u1038
p4066
V\u103a
p4067
V\u1025
p4068
tp4069
I1
s(V\u103c
p4070
V\u103e
p4071
V\u1031
p4072
tp4073
I2
s(g44
V\u1005
p4074
V\u1000
p4075
tp4076
I1
s(V\u103a
p4077
g44
V\u1026
p4078
tp4079
I1
s(V\u101f
p4080
V\u102c
p4081
V\u1006
p4082
tp4083
I1
s(V\u102f
p4084
g44
V\u101d
p4085
tp4086
I1
s(V\u102d
p4087
V\u1001
p4088
V\u1036
p4089
tp4090
I1
s(g544
V\u1041
p4091
g454
tp4092
I5
s(V\u1026
p4093
V\u1038
p4094
V\u104a
p4095
tp4096
I3
s(V\u1004
p4097
V\u1036
p4098
V\u1021
p4099
tp4100
I2
s(V\u1021
p4101
V\u101d
p4102
V\u1004
p4103
tp4104
I2
s(V\u2018
p4105
V\u1019
p4106
V\u1031
p4107
tp4108
I1
s(V\u1036
p4109
V\u1019
p4110
V\u103c
p4111
tp4112
I6
s(V\u1038
p4113
g44
V\u1000
p4114
tp4115
I21
s(V\u1037
p4116
g44
V\u1025
p4117
tp4118
I2
s(V\u103a
p4119
V\u104d
p4120
g44
tp4121
I1
s(g2608
g176
g177
tp4122
I2
s(V\u201d
p4123
g44
V\u101e
p4124
tp4125
I1
s(g454
g44
V\u101b
p4126
tp4127
I3
s(V\u101b
p4128
V\u1001
p4129
V\u1032
p4130
tp4131
I1
s(V\u1021
p4132
V\u1001
p4133
V\u103b
p4134
tp4135
I11
s(V\u1021
p4136
V\u1006
p4137
V\u1004
p4138
tp4139
I11
s(g352
g2948
VW
p4140
tp4141
I1
s(g44
V\u1001
p4142
V\u103b
p4143
tp4144
I9
s(V\u101b
p4145
V\u1021
p4146
V\u1031
p4147
tp4148
I2
s(g554
g109
g109
tp4149
I1
s(V\u1031
p4150
V\u101b
p4151
V\u103e
p4152
tp4153
I4
s(V\u1032
p4154
g44
V\u1041
p4155
tp4156
I1
s(V\u1038
p4157
V\u1006
p4158
V\u102f
p4159
tp4160
I10
s(V\u1031
p4161
V\u101c
p4162
V\u102c
p4163
tp4164
I1
s(V\u101c
p4165
V\u1012
p4166
V\u103a
p4167
tp4168
I1
s(V\u102f
p4169
V\u104d
p4170
g44
tp4171
I1
s(V\u103a
p4172
V\u104b
p4173
V\u000a
p4174
tp4175
I60
s(V\u1039
p4176
V\u1005
p4177
V\u1021
p4178
tp4179
I1
s(V\u102f
p4180
V\u1004
p4181
V\u103a
p4182
tp4183
I204
s(V\u1031
p4184
V\u1038
p4185
V\u1015
p4186
tp4187
I36
s(V\u1032
p4188
V\u101e
p4189
V\u102d
p4190
tp4191
I3
s(g44
V\u1004
p4192
V\u103d
p4193
tp4194
I3
s(g544
g2027
g1554
tp4195
I1
s(V\u102d
p4196
V\u101a
p4197
V\u100a
p4198
tp4199
I1
s(V\u1031
p4200
V\u102c
p4201
V\u1010
p4202
tp4203
I5
s(V\u102d
p4204
V\u101e
p4205
V\u1031
p4206
tp4207
I5
s(V\u1000
p4208
g44
V\u1021
p4209
tp4210
I4
s(V\u1000
p4211
g44
V\u1004
p4212
tp4213
I4
s(V\u103a
p4214
g44
V\u101f
p4215
tp4216
I3
s(V\u1039
p4217
V\u1012
p4218
V\u1019
p4219
tp4220
I1
s(V\u1019
p4221
V\u102c
p4222
V\u1010
p4223
tp4224
I3
s(V\u1005
p4225
V\u102c
p4226
V\u101b
p4227
tp4228
I6
s(V\u102c
p4229
g44
V\u101b
p4230
tp4231
I10
s(V\u1031
p4232
V\u104b
p4233
V\u000a
p4234
tp4235
I1
s(g44
V\u1019
p4236
V\u102d
p4237
tp4238
I10
s(V\u1036
p4239
V\u101f
p4240
V\u102c
p4241
tp4242
I1
s(V\u1019
p4243
V\u1031
p4244
V\u1038
p4245
tp4246
I2
s(V\u103a
p4247
g44
V\u1018
p4248
tp4249
I3
s(g44
V\u101e
p4250
V\u1019
p4251
tp4252
I1
s(g911
g187
g397
tp4253
I1
s(g2948
g44
V\u1000
p4254
tp4255
I1
s(V\u1046
p4256
V\u1040
p4257
g454
tp4258
I4
s(V\u1015
p4259
V\u103a
p4260
V\u101e
p4261
tp4262
I5
s(V\u102e
p4263
V\u1010
p4264
V\u103d
p4265
tp4266
I3
s(V\u101b
p4267
V\u1000
p4268
V\u103a
p4269
tp4270
I5
s(g44
V\u201c
p4271
V\u1016
p4272
tp4273
I1
s(V\u100f
p4274
V\u1039
p4275
V\u100d
p4276
tp4277
I4
s(V\u104b
p4278
g44
V\u101b
p4279
tp4280
I2
s(V\u1019
p4281
V\u103a
p4282
V\u1038
p4283
tp4284
I87
s(g44
g1759
g109
tp4285
I2
s(V\u102b
p4286
g44
g544
tp4287
I1
s(V\u101a
p4288
V\u103a
p4289
V\u1014
p4290
tp4291
I3
s(V\u1010
p4292
V\u102e
p4293
g44
tp4294
I4
s(V\u104c
p4295
g44
V\u1015
p4296
tp4297
I1
s(V\u102f
p4298
V\u101b
p4299
V\u1001
p4300
tp4301
I1
s(V\u1031
p4302
V\u1010
p4303
V\u102c
p4304
tp4305
I1
s(V\u1038
p4306
V\u101c
p4307
V\u102f
p4308
tp4309
I11
s(V\u102f
p4310
V\u1000
p4311
V\u101e
p4312
tp4313
I1
s(V\u1038
p4314
V\u101a
p4315
V\u103d
p4316
tp4317
I1
s(V\u1026
p4318
V\u1038
p4319
V\u1000
p4320
tp4321
I3
s(V\u1042
p4322
g454
g44
tp4323
I1
s(V\u1038
p4324
V\u101f
p4325
V\u102d
p4326
tp4327
I1
s(g409
g2798
g108
tp4328
I1
s(V\u1030
p4329
g44
V\u101b
p4330
tp4331
I2
s(V\u1011
p4332
V\u1030
p4333
V\u1038
p4334
tp4335
I3
s(V\u1038
p4336
V\u1005
p4337
V\u102f
p4338
tp4339
I20
s(V\u1031
p4340
g44
V\u1021
p4341
tp4342
I8
s(V\u101e
p4343
V\u103d
p4344
V\u1004
p4345
tp4346
I7
s(g399
g911
g454
tp4347
I1
s(V\u1038
p4348
g44
V\u1005
p4349
tp4350
I12
s(V\u1021
p4351
V\u102c
p4352
V\u1019
p4353
tp4354
I4
s(g544
V\u1042
p4355
V\u1047
p4356
tp4357
I1
s(V\u102d
p4358
V\u102f
p4359
V\u101a
p4360
tp4361
I29
s(g44
g187
g399
tp4362
I6
s(g1509
g230
g3632
tp4363
I1
s(V\u1037
p4364
V\u1006
p4365
V\u102d
p4366
tp4367
I1
s(g108
g230
V\u2019
p4368
tp4369
I2
s(V\u103c
p4370
g44
V\u1015
p4371
tp4372
I2
s(V\u1015
p4373
V\u102b
p4374
V\u101c
p4375
tp4376
I3
s(V\u1039
p4377
V\u1012
p4378
V\u1014
p4379
tp4380
I3
s(V\u1005
p4381
V\u102f
p4382
V\u1006
p4383
tp4384
I3
s(V\u1039
p4385
V\u1019
p4386
V\u102c
p4387
tp4388
I2
s(V\u101d
p4389
V\u102e
p4390
V\u1012
p4391
tp4392
I1
s(V\u1001
p4393
V\u103b
p4394
V\u1015
p4395
tp4396
I1
s(V\u103a
p4397
V\u101b
p4398
V\u1001
p4399
tp4400
I1
s(V\u1032
p4401
V\u1037
p4402
V\u1017
p4403
tp4404
I1
s(g230
V\u2019
p4405
g1297
tp4406
I2
s(V\u101b
p4407
V\u103e
p4408
V\u1005
p4409
tp4410
I2
s(V\u103b
p4411
V\u103e
p4412
g44
tp4413
I2
s(V\u1015
p4414
V\u103c
p4415
V\u1001
p4416
tp4417
I2
s(V\u102e
p4418
g44
V\u1011
p4419
tp4420
I1
s(V\u1021
p4421
V\u1019
p4422
V\u103e
p4423
tp4424
I1
s(V\u101c
p4425
V\u102f
p4426
V\u1015
p4427
tp4428
I18
s(V\u1009
p4429
V\u103a
p4430
V\u1021
p4431
tp4432
I1
s(V\u1031
p4433
V\u101b
p4434
V\u1010
p4435
tp4436
I1
s(V\u103a
p4437
g285
g44
tp4438
I1
s(V\u1038
p4439
V\u1001
p4440
V\u1032
p4441
tp4442
I8
s(V\u102d
p4443
V\u1019
p4444
V\u1039
p4445
tp4446
I1
s(V\u101e
p4447
V\u1019
p4448
g44
tp4449
I1
s(V\u102e
p4450
V\u1038
p4451
V\u1021
p4452
tp4453
I15
s(V\u103c
p4454
V\u1031
p4455
V\u1016
p4456
tp4457
I1
s(g44
g544
V\u1017
p4458
tp4459
I1
s(g409
g1509
g44
tp4460
I1
s(V\u1004
p4461
V\u103a
p4462
V\u1019
p4463
tp4464
I23
s(V\u101b
p4465
V\u1015
p4466
V\u103a
p4467
tp4468
I12
s(V\u103a
p4469
V\u1038
p4470
V\u1016
p4471
tp4472
I11
s(V\u103a
p4473
V\u1021
p4474
V\u102f
p4475
tp4476
I1
s(V\u103c
p4477
V\u1001
p4478
V\u103b
p4479
tp4480
I1
s(V\u1031
p4481
V\u101b
p4482
V\u103d
p4483
tp4484
I2
s(g44
V\u101a
p4485
V\u103e
p4486
tp4487
I2
s(V\u1001
p4488
V\u103b
p4489
V\u1005
p4490
tp4491
I1
s(V\u102f
p4492
V\u1021
p4493
V\u102c
p4494
tp4495
I3
s(V\u103d
p4496
V\u1031
p4497
V\u1014
p4498
tp4499
I1
s(V\u102e
p4500
g544
V\u1042
p4501
tp4502
I1
s(V\u102d
p4503
V\u1021
p4504
V\u1005
p4505
tp4506
I1
s(V\u102c
p4507
V\u101c
p4508
V\u102d
p4509
tp4510
I3
s(V\u1005
p4511
V\u102f
p4512
V\u101c
p4513
tp4514
I1
s(V\u102c
p4515
V\u101b
p4516
V\u103e
p4517
tp4518
I9
s(V\u1004
p4519
V\u1036
p4520
V\u101c
p4521
tp4522
I2
s(V\u201c
p4523
V\u1019
p4524
V\u1000
p4525
tp4526
I1
s(V\u1000
p4527
g44
V\u1006
p4528
tp4529
I6
s(V\u1040
p4530
g44
V\u1019
p4531
tp4532
I5
s(V\u1015
p4533
V\u102f
p4534
V\u1002
p4535
tp4536
I1
s(V\u103a
p4537
V\u101a
p4538
V\u1031
p4539
tp4540
I1
s(V\u1036
p4541
V\u1019
p4542
V\u103e
p4543
tp4544
I6
s(V\u1031
p4545
V\u102c
p4546
V\u1037
p4547
tp4548
I21
s(V\u102f
p4549
V\u1006
p4550
V\u102f
p4551
tp4552
I2
s(V\u1036
p4553
V\u1000
p4554
V\u102d
p4555
tp4556
I1
s(V\u1030
p4557
g611
g44
tp4558
I4
s(g44
g399
g1509
tp4559
I1
s(V\u1031
p4560
V\u1011
p4561
V\u103d
p4562
tp4563
I7
s(g44
V\u1013
p4564
V\u1014
p4565
tp4566
I1
s(V\u1002
p4567
V\u102f
p4568
V\u1036
p4569
tp4570
I1
s(g44
V\u1005
p4571
V\u102f
p4572
tp4573
I2
s(V\u1015
p4574
V\u103c
p4575
V\u102e
p4576
tp4577
I35
s(V\u1015
p4578
V\u101b
p4579
V\u102d
p4580
tp4581
I1
s(g544
V\u1041
p4582
V\u1040
p4583
tp4584
I1
s(V\u1001
p4585
V\u1036
p4586
V\u1019
p4587
tp4588
I10
s(V\u1021
p4589
V\u1010
p4590
V\u102d
p4591
tp4592
I4
s(V\u1015
p4593
V\u1032
p4594
V\u104a
p4595
tp4596
I1
s(V\u1000
p4597
V\u103c
p4598
V\u102d
p4599
tp4600
I14
s(V\u1036
p4601
V\u1010
p4602
V\u100a
p4603
tp4604
I1
s(V\u102c
p4605
V\u1038
p4606
V\u101d
p4607
tp4608
I1
s(V\u1019
p4609
V\u103e
p4610
V\u1021
p4611
tp4612
I1
s(V\u1036
p4613
g44
V\u1015
p4614
tp4615
I5
s(g44
V\u1001
p4616
V\u103d
p4617
tp4618
I5
s(V\u100a
p4619
V\u103a
p4620
V\u101b
p4621
tp4622
I2
s(V\u1014
p4623
V\u102c
p4624
V\u1001
p4625
tp4626
I1
s(g1337
g1633
g1633
tp4627
I2
s(V\u101d
p4628
V\u1004
p4629
V\u103a
p4630
tp4631
I63
s(V\u102c
p4632
V\u1038
p4633
V\u101c
p4634
tp4635
I41
s(V\u1000
p4636
V\u103a
p4637
V\u1001
p4638
tp4639
I15
s(V\u104b
p4640
g44
V\u1011
p4641
tp4642
I3
s(V\u1038
p4643
V\u1000
p4644
V\u103d
p4645
tp4646
I2
s(V\u1038
p4647
g454
g44
tp4648
I1
s(V\u1010
p4649
V\u1015
p4650
V\u102f
p4651
tp4652
I1
s(V\u1038
p4653
V\u101b
p4654
V\u103e
p4655
tp4656
I9
s(V\u103a
p4657
V\u1037
p4658
V\u1021
p4659
tp4660
I5
s(V\u1038
p4661
V\u1021
p4662
V\u101e
p4663
tp4664
I3
s(V\u1015
p4665
V\u1030
p4666
V\u1038
p4667
tp4668
I5
s(V\u103a
p4669
V\u101b
p4670
V\u1004
p4671
tp4672
I2
s(V\u101e
p4673
V\u102c
p4674
V\u1038
p4675
tp4676
I47
s(V\u103a
p4677
V\u1018
p4678
V\u101d
p4679
tp4680
I1
s(V\u1000
p4681
g44
V\u1049
p4682
tp4683
I2
s(V\u101c
p4684
V\u102c
p4685
V\u1038
p4686
tp4687
I8
s(V\u103d
p4688
V\u1031
p4689
V\u1015
p4690
tp4691
I4
s(V\u1037
p4692
V\u1010
p4693
V\u103d
p4694
tp4695
I4
s(V\u1012
p4696
V\u1031
p4697
V\u102b
p4698
tp4699
I13
s(V\u100a
p4700
V\u103a
p4701
V\u1010
p4702
tp4703
I7
s(g44
V\u1021
p4704
V\u101e
p4705
tp4706
I10
s(V\u102c
p4707
g44
V\u1046
p4708
tp4709
I1
s(V\u103a
p4710
V\u1016
p4711
V\u102d
p4712
tp4713
I4
s(V\u1000
p4714
V\u102f
p4715
V\u1014
p4716
tp4717
I1
s(g108
g231
g454
tp4718
I4
s(V\u1014
p4719
V\u1015
p4720
V\u103a
p4721
tp4722
I1
s(V\u1012
p4723
V\u102e
p4724
V\u1021
p4725
tp4726
I2
s(g44
V\u201c
p4727
V\u1010
p4728
tp4729
I2
s(V\u103a
p4730
V\u1010
p4731
V\u102d
p4732
tp4733
I13
s(V\u102b
p4734
V\u101b
p4735
V\u1018
p4736
tp4737
I1
s(V\u101c
p4738
V\u102f
p4739
V\u1036
p4740
tp4741
I25
s(g44
V\u1046
p4742
g44
tp4743
I2
s(V\u103a
p4744
V\u1021
p4745
V\u1011
p4746
tp4747
I4
s(V\u1010
p4748
V\u1004
p4749
V\u103a
p4750
tp4751
I23
s(V\u103b
p4752
V\u1018
p4753
V\u1032
p4754
tp4755
I1
s(V\u1031
p4756
V\u201d
p4757
g44
tp4758
I1
s(V\u103b
p4759
V\u101a
p4760
V\u103a
p4761
tp4762
I9
s(V\u102f
p4763
V\u1021
p4764
V\u1015
p4765
tp4766
I4
s(V\u101a
p4767
V\u102f
p4768
V\u1036
p4769
tp4770
I1
s(V\u1030
p4771
V\u101e
p4772
V\u103d
p4773
tp4774
I2
s(V\u103a
p4775
V\u1015
p4776
V\u103d
p4777
tp4778
I39
s(V\u1038
p4779
g44
V\u104e
p4780
tp4781
I1
s(g1554
g44
V\u1005
p4782
tp4783
I2
s(V\u1039
p4784
V\u100d
p4785
V\u1019
p4786
tp4787
I1
s(V\u103d
p4788
V\u1032
p4789
V\u1015
p4790
tp4791
I5
s(V\u1014
p4792
V\u103a
p4793
V\u1019
p4794
tp4795
I17
s(V\u103d
p4796
V\u1031
p4797
V\u101c
p4798
tp4799
I1
s(V\u102b
p4800
V\u101b
p4801
V\u103e
p4802
tp4803
I3
s(V\u1036
p4804
V\u1038
p4805
V\u1019
p4806
tp4807
I5
s(V\u101e
p4808
V\u1030
p4809
V\u1000
p4810
tp4811
I2
s(V\u103d
p4812
V\u102c
p4813
V\u1038
p4814
tp4815
I23
s(V\u103a
p4816
g44
V\u1016
p4817
tp4818
I9
s(g44
V\u1010
p4819
V\u1006
p4820
tp4821
I1
s(V\u1012
p4822
V\u1005
p4823
V\u1031
p4824
tp4825
I1
s(V\u1010
p4826
V\u102c
p4827
V\u1018
p4828
tp4829
I2
s(V\u102f
p4830
V\u101a
p4831
V\u103a
p4832
tp4833
I27
s(V\u103d
p4834
V\u102c
p4835
V\u101b
p4836
tp4837
I1
s(g44
V\u1019
p4838
V\u101b
p4839
tp4840
I5
s(V\u103e
p4841
V\u102d
p4842
V\u1014
p4843
tp4844
I13
s(g44
V\u201c
p4845
V\u101b
p4846
tp4847
I2
s(V\u102f
p4848
V\u1000
p4849
V\u102d
p4850
tp4851
I4
s(V\u103c
p4852
V\u102c
p4853
V\u101c
p4854
tp4855
I2
s(V\u1037
p4856
V\u1018
p4857
V\u1032
p4858
tp4859
I1
s(V\u102f
p4860
V\u101c
p4861
V\u1030
p4862
tp4863
I1
s(V\u1019
p4864
g44
V\u1010
p4865
tp4866
I2
s(V\u1037
p4867
V\u101c
p4868
V\u103d
p4869
tp4870
I3
s(V\u1000
p4871
V\u103a
p4872
V\u101e
p4873
tp4874
I8
s(V\u1038
p4875
g44
V\u1043
p4876
tp4877
I9
s(V\u102c
p4878
V\u1011
p4879
V\u1015
p4880
tp4881
I1
s(V\u103a
p4882
V\u1004
p4883
V\u1014
p4884
tp4885
I3
s(V\u1032
p4886
g44
V\u1001
p4887
tp4888
I1
s(g3632
g1509
g231
tp4889
I1
s(V\u103e
p4890
g44
V\u1016
p4891
tp4892
I3
s(V\u103a
p4893
V\u201d
p4894
g44
tp4895
I5
s(V\u1030
p4896
V\u101d
p4897
V\u102b
p4898
tp4899
I1
s(V\u1038
p4900
V\u1000
p4901
V\u101c
p4902
tp4903
I2
s(V\u1037
p4904
V\u1001
p4905
V\u103b
p4906
tp4907
I4
s(V\u1032
p4908
V\u104c
p4909
g44
tp4910
I2
s(V\u102d
p4911
V\u102f
p4912
V\u1011
p4913
tp4914
I2
s(V\u1000
p4915
V\u103a
p4916
V\u104d
p4917
tp4918
I1
s(V\u102c
p4919
V\u1010
p4920
V\u1031
p4921
tp4922
I4
s(V\u102d
p4923
V\u102f
p4924
V\u1004
p4925
tp4926
I205
s(V\u100a
p4927
V\u102c
p4928
V\u1015
p4929
tp4930
I1
s(g44
V\u101b
p4931
V\u1032
p4932
tp4933
I2
s(g44
V\u1014
p4934
V\u100a
p4935
tp4936
I7
s(V\u1018
p4937
V\u101d
p4938
V\u101b
p4939
tp4940
I1
s(V\u1000
p4941
V\u1010
p4942
V\u100a
p4943
tp4944
I1
s(V\u101c
p4945
V\u1030
p4946
V\u1019
p4947
tp4948
I18
s(V\u102b
p4949
V\u1038
p4950
V\u101c
p4951
tp4952
I2
s(V\u1010
p4953
V\u103a
p4954
V\u1014
p4955
tp4956
I2
s(V\u1042
p4957
g454
V\u1021
p4958
tp4959
I1
s(V\u1037
p4960
V\u1015
p4961
V\u102f
p4962
tp4963
I1
s(V\u1036
p4964
V\u1038
p4965
V\u1014
p4966
tp4967
I2
s(V\u103a
p4968
V\u1038
p4969
V\u1005
p4970
tp4971
I20
s(V\u1031
p4972
V\u1021
p4973
V\u1014
p4974
tp4975
I5
s(V\u1047
p4976
V\u1040
p4977
V%
p4978
tp4979
I2
s(V\u1030
p4980
V\u1010
p4981
V\u103d
p4982
tp4983
I5
s(V\u103d
p4984
V\u1036
p4985
V\u1037
p4986
tp4987
I2
s(V\u104a
p4988
g44
V\u1015
p4989
tp4990
I6
s(V\u1018
p4991
V\u101d
p4992
g44
tp4993
I1
s(g652
g1337
g1633
tp4994
I2
s(V\u1043
p4995
g44
V\u1026
p4996
tp4997
I2
s(V\u1014
p4998
V\u103a
p4999
V\u1014
p5000
tp5001
I4
s(V\u1030
p5002
V\u1037
p5003
V\u1021
p5004
tp5005
I1
s(V\u102e
p5006
V\u1021
p5007
V\u1016
p5008
tp5009
I3
s(V\u101f
p5010
V\u102f
p5011
V\u1010
p5012
tp5013
I6
s(V\u1041
p5014
V\u1046
p5015
g44
tp5016
I3
s(V\u1019
p5017
V\u103b
p5018
V\u103e
p5019
tp5020
I2
s(g44
V\u1010
p5021
V\u1005
p5022
tp5023
I10
s(V\u1011
p5024
V\u102f
p5025
V\u1000
p5026
tp5027
I1
s(V\u1019
p5028
V\u101c
p5029
V\u102d
p5030
tp5031
I1
s(V\u1038
p5032
V\u101c
p5033
V\u103b
p5034
tp5035
I1
s(V\u1004
p5036
V\u103a
p5037
V\u1006
p5038
tp5039
I11
s(V\u102c
p5040
g44
V\u1026
p5041
tp5042
I2
s(V\u1014
p5043
V\u1031
p5044
V\u101c
p5045
tp5046
I4
s(V\u101c
p5047
V\u1032
p5048
V\u101e
p5049
tp5050
I1
s(V\u1014
p5051
V\u100a
p5052
V\u1038
p5053
tp5054
I1
s(V\u1021
p5055
V\u1015
p5056
V\u103a
p5057
tp5058
I4
s(V\u1036
p5059
V\u1005
p5060
V\u1036
p5061
tp5062
I7
s(V\u101d
p5063
V\u102b
p5064
V\u1038
p5065
tp5066
I1
s(V\u101c
p5067
V\u102c
p5068
V\u1021
p5069
tp5070
I3
s(V\u103a
p5071
V\u1006
p5072
V\u1031
p5073
tp5074
I11
s(V\u102c
p5075
V\u101b
p5076
V\u1031
p5077
tp5078
I4
s(V\u100b
p5079
V\u102d
p5080
V\u1015
p5081
tp5082
I3
s(V\u1014
p5083
V\u102c
p5084
V\u1002
p5085
tp5086
I1
s(V\u1038
p5087
V\u1019
p5088
V\u101c
p5089
tp5090
I2
s(g44
V\u201c
p5091
V\u1005
p5092
tp5093
I1
s(V\u1019
p5094
V\u1030
p5095
V\u101c
p5096
tp5097
I1
s(g44
V\u101c
p5098
V\u1030
p5099
tp5100
I18
s(V\u102c
p5101
V\u101c
p5102
V\u103b
p5103
tp5104
I1
s(V\u103a
p5105
V\u1021
p5106
V\u101b
p5107
tp5108
I3
s(V\u1031
p5109
g44
V\u1010
p5110
tp5111
I2
s(V\u1010
p5112
V\u102d
p5113
V\u1019
p5114
tp5115
I3
s(g44
V\u1046
p5116
V\u1046
p5117
tp5118
I1
s(V\u102b
p5119
V\u1012
p5120
V\u1019
p5121
tp5122
I1
s(V\u1031
p5123
V\u1014
p5124
V\u103e
p5125
tp5126
I1
s(V\u1038
p5127
V\u1010
p5128
V\u101a
p5129
tp5130
I4
s(V\u1005
p5131
V\u102f
p5132
V\u1019
p5133
tp5134
I2
s(V\u100a
p5135
V\u102e
p5136
V\u101b
p5137
tp5138
I1
s(V\u103c
p5139
V\u102c
p5140
g44
tp5141
I1
s(g44
V\u1011
p5142
V\u100a
p5143
tp5144
I2
s(g44
V\u1006
p5145
V\u103d
p5146
tp5147
I14
s(V\u1038
p5148
g44
g1759
tp5149
I1
s(V\u1031
p5150
g44
V\u1018
p5151
tp5152
I3
s(V\u1031
p5153
V\u1037
p5154
V\u1005
p5155
tp5156
I2
s(V\u1031
p5157
V\u1038
p5158
V\u1021
p5159
tp5160
I7
s(V\u1031
p5161
V\u102c
p5162
V\u101b
p5163
tp5164
I1
s(V\u101e
p5165
V\u1019
p5166
V\u102c
p5167
tp5168
I1
s(V\u103a
p5169
V\u101c
p5170
V\u100a
p5171
tp5172
I15
s(V\u1031
p5173
g44
V\u101b
p5174
tp5175
I3
s(V\u103a
p5176
g44
V\u101b
p5177
tp5178
I7
s(g44
V\u1015
p5179
V\u100b
p5180
tp5181
I3
s(V\u101e
p5182
V\u1030
p5183
g44
tp5184
I8
s(V\u1014
p5185
V\u1005
p5186
V\u103a
p5187
tp5188
I4
s(V\u1019
p5189
V\u103c
p5190
V\u102d
p5191
tp5192
I10
s(V\u1038
p5193
V\u1019
p5194
V\u103c
p5195
tp5196
I3
s(V\u1037
p5197
V\u1015
p5198
V\u1010
p5199
tp5200
I2
s(g44
V\u1019
p5201
V\u1032
p5202
tp5203
I6
s(V\u102f
p5204
V\u1021
p5205
V\u1031
p5206
tp5207
I1
s(V\u1010
p5208
V\u103a
p5209
V\u1013
p5210
tp5211
I2
s(V\u1001
p5212
V\u103b
p5213
V\u1019
p5214
tp5215
I37
s(V\u1032
p5216
V\u101b
p5217
V\u103e
p5218
tp5219
I2
s(V\u1019
p5220
V\u102d
p5221
V\u1000
p5222
tp5223
I1
s(V\u1012
p5224
V\u103a
p5225
V\u1000
p5226
tp5227
I1
s(V\u104a
p5228
g44
V\u1010
p5229
tp5230
I4
s(V\u1038
p5231
V\u1014
p5232
V\u102d
p5233
tp5234
I7
s(V\u1037
p5235
V\u1000
p5236
V\u103b
p5237
tp5238
I4
s(V\u1031
p5239
V\u1021
p5240
V\u1011
p5241
tp5242
I2
s(V\u102c
p5243
V\u101b
p5244
V\u101b
p5245
tp5246
I1
s(V\u102c
p5247
V\u1038
p5248
V\u1011
p5249
tp5250
I4
s(V\u101b
p5251
V\u103e
p5252
V\u102f
p5253
tp5254
I3
s(V\u1038
p5255
V\u104f
p5256
g44
tp5257
I8
s(V\u1036
p5258
g544
V\u1046
p5259
tp5260
I1
s(V\u102f
p5261
V\u1001
p5262
V\u103b
p5263
tp5264
I5
s(V\u1014
p5265
V\u103a
p5266
V\u101a
p5267
tp5268
I3
s(V\u1015
p5269
V\u103c
p5270
V\u101c
p5271
tp5272
I1
s(V\u1015
p5273
V\u100b
p5274
V\u102d
p5275
tp5276
I3
s(V\u1000
p5277
g44
V\u1048
p5278
tp5279
I2
s(V\u1005
p5280
V\u103a
p5281
V\u1011
p5282
tp5283
I1
s(V\u1036
p5284
V\u1005
p5285
V\u102d
p5286
tp5287
I2
s(V\u103a
p5288
g44
V\u1005
p5289
tp5290
I6
s(V\u1010
p5291
V\u1000
p5292
V\u1039
p5293
tp5294
I1
s(V\u1038
p5295
V\u101b
p5296
V\u1031
p5297
tp5298
I51
s(V\u1038
p5299
V\u1015
p5300
V\u1001
p5301
tp5302
I3
s(g44
V\u1000
p5303
V\u102c
p5304
tp5305
I3
s(g1759
g109
g409
tp5306
I2
s(V\u102c
p5307
V\u103a
p5308
V\u1010
p5309
tp5310
I8
s(V\u1014
p5311
V\u102d
p5312
V\u1002
p5313
tp5314
I1
s(V\u1004
p5315
V\u1036
p5316
V\u1010
p5317
tp5318
I7
s(V\u103a
p5319
V\u1010
p5320
V\u1010
p5321
tp5322
I1
s(V\u1005
p5323
V\u1036
p5324
g44
tp5325
I1
s(V\u101b
p5326
g44
V\u1001
p5327
tp5328
I1
s(g44
V\u1001
p5329
V\u102d
p5330
tp5331
I5
s(V\u104f
p5332
g44
V\u1021
p5333
tp5334
I4
s(V\u1036
p5335
V\u101e
p5336
V\u100a
p5337
tp5338
I1
s(V\u101e
p5339
V\u1036
p5340
V\u1014
p5341
tp5342
I2
s(V\u102b
p5343
V\u101c
p5344
V\u102c
p5345
tp5346
I1
s(V\u1030
p5347
V\u1000
p5348
V\u102c
p5349
tp5350
I1
s(g44
V\u1014
p5351
V\u102d
p5352
tp5353
I21
s(g44
V\u1010
p5354
V\u1030
p5355
tp5356
I1
s(V\u1030
p5357
V\u101b
p5358
V\u103e
p5359
tp5360
I1
s(V\u102d
p5361
V\u102f
p5362
V\u1006
p5363
tp5364
I1
s(V\u1038
p5365
V\u101f
p5366
V\u1030
p5367
tp5368
I1
s(V\u101c
p5369
V\u103b
p5370
V\u1031
p5371
tp5372
I2
s(V\u101b
p5373
g44
V\u101c
p5374
tp5375
I1
s(V\u1037
p5376
g44
V\u1019
p5377
tp5378
I19
s(V\u102f
p5379
V\u1006
p5380
V\u102d
p5381
tp5382
I4
s(V\u102c
p5383
g44
V\u1012
p5384
tp5385
I11
s(g544
g652
g397
tp5386
I1
s(g44
V\u101d
p5387
V\u1004
p5388
tp5389
I9
s(V\u102d
p5390
V\u1005
p5391
V\u1039
p5392
tp5393
I10
s(V\u1000
p5394
g44
g187
tp5395
I1
s(V\u1032
p5396
V\u1011
p5397
V\u102c
p5398
tp5399
I1
s(V\u103a
p5400
V\u101b
p5401
V\u1018
p5402
tp5403
I1
s(V\u1000
p5404
V\u103c
p5405
V\u1036
p5406
tp5407
I6
s(V\u102e
p5408
V\u1001
p5409
V\u101b
p5410
tp5411
I1
s(V\u1000
p5412
V\u103b
p5413
V\u1004
p5414
tp5415
I10
s(V\u101c
p5416
V\u1019
p5417
V\u103b
p5418
tp5419
I1
s(V\u1021
p5420
V\u1010
p5421
V\u1031
p5422
tp5423
I2
s(V\u103c
p5424
V\u1019
p5425
V\u102d
p5426
tp5427
I1
s(V\u1005
p5428
V\u1019
p5429
V\u103b
p5430
tp5431
I1
s(V\u1005
p5432
V\u102f
p5433
V\u1010
p5434
tp5435
I7
s(V\u103c
p5436
V\u102f
p5437
V\u101c
p5438
tp5439
I2
s(V\u101e
p5440
V\u1031
p5441
V\u102c
p5442
tp5443
I49
s(V\u102d
p5444
V\u1000
p5445
V\u101d
p5446
tp5447
I1
s(V\u1037
p5448
V\u1014
p5449
V\u1031
p5450
tp5451
I5
s(g44
g544
V\u1045
p5452
tp5453
I2
s(V\u1031
p5454
V\u102c
p5455
V\u1006
p5456
tp5457
I9
s(V\u101c
p5458
V\u103d
p5459
V\u1032
p5460
tp5461
I2
s(g44
V\u101e
p5462
V\u1010
p5463
tp5464
I7
s(V\u1038
p5465
g44
V\u1019
p5466
tp5467
I14
s(V\u1019
p5468
V\u102c
p5469
V\u1038
p5470
tp5471
I1
s(V\u1037
p5472
V\u103a
p5473
V\u1000
p5474
tp5475
I1
s(V\u1039
p5476
V\u1012
p5477
V\u101b
p5478
tp5479
I1
s(V\u1015
p5480
V\u1011
p5481
V\u1019
p5482
tp5483
I1
s(V\u1012
p5484
V\u1014
p5485
V\u101a
p5486
tp5487
I3
s(V\u1005
p5488
V\u103a
p5489
V\u1014
p5490
tp5491
I11
s(V\u1010
p5492
V\u103a
p5493
V\u101c
p5494
tp5495
I2
s(V\u1011
p5496
V\u103d
p5497
V\u1031
p5498
tp5499
I14
s(g1633
g44
V\u1019
p5500
tp5501
I2
s(V\u101e
p5502
V\u1010
p5503
V\u103a
p5504
tp5505
I2
s(g108
g44
g1509
tp5506
I1
s(V\u103c
p5507
V\u101b
p5508
V\u102c
p5509
tp5510
I1
s(V\u102f
p5511
V\u101b
p5512
V\u1031
p5513
tp5514
I3
s(V\u103a
p5515
V\u1038
p5516
V\u101b
p5517
tp5518
I64
s(V\u1030
p5519
g44
V\u1014
p5520
tp5521
I1
s(V\u103c
p5522
V\u1036
p5523
V\u1015
p5524
tp5525
I3
s(g44
V\u1001
p5526
V\u1031
p5527
tp5528
I2
s(V\u101a
p5529
V\u103a
p5530
V\u1001
p5531
tp5532
I5
s(g44
V\u1010
p5533
V\u100a
p5534
tp5535
I3
s(g554
g1077
g2734
tp5536
I1
s(V\u1005
p5537
V\u101b
p5538
V\u102c
p5539
tp5540
I7
s(V\u103a
p5541
V\u1010
p5542
V\u1019
p5543
tp5544
I3
s(g44
V\u1019
p5545
V\u102f
p5546
tp5547
I1
s(V\u1019
p5548
V\u102d
p5549
V\u1019
p5550
tp5551
I3
s(V\u103e
p5552
V\u102d
p5553
V\u1021
p5554
tp5555
I1
s(V\u102e
p5556
V\u1019
p5557
V\u103e
p5558
tp5559
I7
s(V\u104b
p5560
g44
V\u100a
p5561
tp5562
I1
s(V\u1012
p5563
V\u102b
p5564
V\u1000
p5565
tp5566
I5
s(V\u1015
p5567
V\u102b
p5568
V\u1015
p5569
tp5570
I2
s(V\u102c
p5571
V\u1010
p5572
V\u101b
p5573
tp5574
I1
s(V\u1031
p5575
V\u1038
p5576
V\u101f
p5577
tp5578
I2
s(V\u1031
p5579
V\u102c
p5580
V\u1019
p5581
tp5582
I3
s(V\u1021
p5583
V\u101c
p5584
V\u1004
p5585
tp5586
I2
s(V\u1021
p5587
V\u1001
p5588
V\u103c
p5589
tp5590
I17
s(V\u1039
p5591
V\u100d
p5592
V\u1021
p5593
tp5594
I1
s(V\u1044
p5595
V\u1004
p5596
V\u103a
p5597
tp5598
I2
s(g454
g44
V\u1019
p5599
tp5600
I5
s(g187
g399
g399
tp5601
I1
s(V\u1005
p5602
V\u102e
p5603
V\u101b
p5604
tp5605
I2
s(V\u1019
p5606
V\u102d
p5607
g44
tp5608
I1
s(V\u1038
p5609
V\u1001
p5610
V\u103b
p5611
tp5612
I55
s(V\u103a
p5613
V\u104c
p5614
g44
tp5615
I1
s(V\u1005
p5616
V\u102c
p5617
g44
tp5618
I1
s(V\u103a
p5619
V\u101e
p5620
V\u1004
p5621
tp5622
I2
s(V\u103c
p5623
V\u102e
p5624
g44
tp5625
I1
s(V\u101e
p5626
V\u1030
p5627
V\u1037
p5628
tp5629
I2
s(V\u1010
p5630
V\u102c
p5631
V\u101c
p5632
tp5633
I2
s(g544
g398
g911
tp5634
I1
s(V\u201d
p5635
g44
V\u101b
p5636
tp5637
I2
s(V\u1005
p5638
V\u1015
p5639
V\u103a
p5640
tp5641
I2
s(V\u103a
p5642
V\u1001
p5643
V\u103b
p5644
tp5645
I12
s(V\u1036
p5646
V\u1018
p5647
V\u102e
p5648
tp5649
I2
s(V\u101b
p5650
V\u1031
p5651
V\u102c
p5652
tp5653
I18
s(g454
g44
V\u101e
p5654
tp5655
I2
s(V\u100a
p5656
V\u103a
p5657
V\u1000
p5658
tp5659
I4
s(V\u1038
p5660
V\u1010
p5661
V\u1004
p5662
tp5663
I3
s(g44
V\u1004
p5664
V\u103c
p5665
tp5666
I33
s(V\u1015
p5667
V\u102b
p5668
V\u104b
p5669
tp5670
I5
s(V\u1004
p5671
V\u103a
p5672
V\u1014
p5673
tp5674
I27
s(V\u1000
p5675
V\u1010
p5676
V\u102d
p5677
tp5678
I1
s(V\u1032
p5679
V\u1005
p5680
V\u1009
p5681
tp5682
I1
s(V\u1001
p5683
V\u1036
p5684
V\u1005
p5685
tp5686
I13
s(V\u103d
p5687
V\u1019
p5688
V\u103a
p5689
tp5690
I1
s(V\u201c
p5691
V\u1015
p5692
V\u1004
p5693
tp5694
I1
s(V\u102f
p5695
g44
V\u1015
p5696
tp5697
I21
s(V\u102e
p5698
V\u101b
p5699
V\u1004
p5700
tp5701
I1
s(V\u101f
p5702
V\u1030
p5703
V\u104a
p5704
tp5705
I1
s(V\u101c
p5706
g44
g544
tp5707
I1
s(V\u102d
p5708
V\u101e
p5709
V\u1030
p5710
tp5711
I1
s(g44
V\u1041
p5712
V\u1041
p5713
tp5714
I3
s(V\u1000
p5715
V\u1032
p5716
V\u1037
p5717
tp5718
I3
s(V\u1015
p5719
V\u103a
p5720
V\u1010
p5721
tp5722
I10
s(V\u1019
p5723
V\u102c
p5724
g44
tp5725
I1
s(V\u103a
p5726
V\u101c
p5727
V\u1030
p5728
tp5729
I2
s(V\u1031
p5730
V\u1038
p5731
V\u1018
p5732
tp5733
I1
s(V\u1037
p5734
V\u103a
p5735
V\u1021
p5736
tp5737
I1
s(V\u102b
p5738
V\u101b
p5739
V\u1014
p5740
tp5741
I2
s(V\u101b
p5742
g44
V\u1012
p5743
tp5744
I1
s(V\u102c
p5745
V\u1038
p5746
V\u1025
p5747
tp5748
I1
s(V\u103a
p5749
V\u1038
p5750
V\u1018
p5751
tp5752
I2
s(V\u103a
p5753
V\u1016
p5754
V\u1031
p5755
tp5756
I5
s(g44
V\u1017
p5757
V\u1019
p5758
tp5759
I4
s(V\u103c
p5760
V\u1001
p5761
V\u103d
p5762
tp5763
I1
s(V\u1021
p5764
V\u1001
p5765
V\u1014
p5766
tp5767
I3
s(V\u1037
p5768
V\u1019
p5769
V\u1030
p5770
tp5771
I1
s(V\u1049
p5772
g44
V\u1026
p5773
tp5774
I1
s(V\u103a
p5775
V\u1019
p5776
V\u102d
p5777
tp5778
I2
s(V\u103a
p5779
V\u1010
p5780
V\u102e
p5781
tp5782
I1
s(V\u1012
p5783
V\u1031
p5784
V\u1005
p5785
tp5786
I1
s(V\u1038
p5787
g44
V\u1047
p5788
tp5789
I3
s(V\u1019
p5790
V\u103e
p5791
V\u1005
p5792
tp5793
I2
s(V\u1010
p5794
V\u1014
p5795
V\u103a
p5796
tp5797
I7
s(V\u1030
p5798
V\u1011
p5799
V\u102f
p5800
tp5801
I1
s(V\u102e
p5802
V\u1012
p5803
V\u1031
p5804
tp5805
I5
s(V\u102f
p5806
V\u1010
p5807
V\u101a
p5808
tp5809
I1
s(V\u1031
p5810
V\u102c
p5811
V\u104a
p5812
tp5813
I1
s(V\u1017
p5814
V\u1019
p5815
V\u102c
p5816
tp5817
I6
s(g44
V\u1018
p5818
V\u101d
p5819
tp5820
I1
s(V\u1041
p5821
g44
V\u1026
p5822
tp5823
I2
s(V\u1005
p5824
V\u102f
p5825
V\u101e
p5826
tp5827
I2
s(V\u1031
p5828
V\u101b
p5829
V\u1031
p5830
tp5831
I3
s(V\u1048
p5832
g44
V\u101b
p5833
tp5834
I2
s(V\u101e
p5835
V\u102c
p5836
V\u101c
p5837
tp5838
I2
s(V\u1031
p5839
V\u1019
p5840
V\u1000
p5841
tp5842
I1
s(V\u1019
p5843
V\u103b
p5844
V\u102d
p5845
tp5846
I127
s(V\u102b
p5847
V\u103a
p5848
V\u1001
p5849
tp5850
I2
s(V\u1000
p5851
V\u102d
p5852
V\u102f
p5853
tp5854
I110
s(V\u1019
p5855
V\u1004
p5856
V\u103a
p5857
tp5858
I3
s(g544
V\u1019
p5859
V\u103d
p5860
tp5861
I1
s(V\u103a
p5862
V\u101b
p5863
V\u101e
p5864
tp5865
I1
s(V\u1015
p5866
V\u103c
p5867
V\u1019
p5868
tp5869
I1
s(V\u1037
p5870
V\u101c
p5871
V\u103b
p5872
tp5873
I3
s(V\u102d
p5874
g44
V\u1021
p5875
tp5876
I3
s(V\u1038
p5877
V\u1005
p5878
V\u102c
p5879
tp5880
I14
s(V\u101b
p5881
V\u1019
p5882
V\u103e
p5883
tp5884
I5
s(V\u1019
p5885
V\u103c
p5886
V\u1004
p5887
tp5888
I16
s(g44
g544
V\u1010
p5889
tp5890
I1
s(V\u1026
p5891
V\u1038
p5892
V\u1005
p5893
tp5894
I6
s(g44
V\u1021
p5895
V\u1015
p5896
tp5897
I4
s(g44
V\u1010
p5898
V\u1014
p5899
tp5900
I1
s(V\u103a
p5901
V\u1012
p5902
V\u101b
p5903
tp5904
I15
s(V\u1032
p5905
g44
V\u1004
p5906
tp5907
I1
s(V\u1038
p5908
V\u1021
p5909
V\u1015
p5910
tp5911
I7
s(V\u103a
p5912
V\u1001
p5913
V\u102d
p5914
tp5915
I1
s(g454
V\u104a
p5916
g44
tp5917
I1
s(g1297
g409
g231
tp5918
I1
s(V\u103a
p5919
V\u1015
p5920
V\u1014
p5921
tp5922
I1
s(V\u1032
p5923
V\u1037
p5924
V\u1016
p5925
tp5926
I3
s(g2948
g399
g399
tp5927
I1
s(V\u102c
p5928
V\u1019
p5929
V\u1001
p5930
tp5931
I4
s(V\u102f
p5932
V\u101a
p5933
V\u1004
p5934
tp5935
I2
s(V\u103d
p5936
V\u1031
p5937
V\u1010
p5938
tp5939
I1
s(V\u101c
p5940
V\u102c
p5941
V\u1010
p5942
tp5943
I3
s(V\u102c
p5944
V\u101c
p5945
V\u1004
p5946
tp5947
I1
s(V\u101f
p5948
V\u102c
p5949
V\u101c
p5950
tp5951
I2
s(V\u101c
p5952
V\u103e
p5953
V\u1014
p5954
tp5955
I1
s(V\u100a
p5956
V\u103a
p5957
g544
tp5958
I2
s(V\u1036
p5959
V\u1015
p5960
V\u103c
p5961
tp5962
I4
s(V\u1031
p5963
V\u1038
p5964
V\u201d
p5965
tp5966
I1
s(V\u1040
p5967
g44
V\u101b
p5968
tp5969
I7
s(g44
V\u1016
p5970
V\u1010
p5971
tp5972
I1
s(V\u1030
p5973
V\u1004
p5974
V\u101a
p5975
tp5976
I2
s(V\u102c
p5977
V\u1021
p5978
V\u1019
p5979
tp5980
I2
s(V\u103e
p5981
V\u103b
p5982
V\u1004
p5983
tp5984
I1
s(g44
V\u1048
p5985
V\u1042
p5986
tp5987
I1
s(V\u1005
p5988
V\u102c
p5989
V\u1000
p5990
tp5991
I2
s(V\u102c
p5992
V\u101c
p5993
V\u102c
p5994
tp5995
I3
s(V\u1016
p5996
V\u103c
p5997
V\u102d
p5998
tp5999
I2
s(V\u102c
p6000
g44
V\u1015
p6001
tp6002
I15
s(V\u1005
p6003
V\u102f
p6004
V\u1036
p6005
tp6006
I4
s(V\u201d
p6007
g44
V\u1006
p6008
tp6009
I4
s(V\u1031
p6010
V\u1006
p6011
V\u1032
p6012
tp6013
I1
s(g44
V\u1019
p6014
V\u1016
p6015
tp6016
I3
s(V\u102c
p6017
V\u1001
p6018
V\u102d
p6019
tp6020
I11
s(V\u102f
p6021
V\u1037
p6022
V\u101b
p6023
tp6024
I1
s(V\u1000
p6025
V\u1032
p6026
V\u1001
p6027
tp6028
I1
s(V\u1019
p6029
V\u1014
p6030
V\u103a
p6031
tp6032
I1
s(V\u101f
p6033
V\u1030
p6034
V\u101e
p6035
tp6036
I1
s(V\u1014
p6037
V\u1031
p6038
V\u1016
p6039
tp6040
I2
s(V\u1038
p6041
V\u101c
p6042
V\u103e
p6043
tp6044
I23
s(V\u103c
p6045
V\u102f
p6046
V\u1018
p6047
tp6048
I2
s(g44
V\u1000
p6049
V\u100f
p6050
tp6051
I2
s(V\u103a
p6052
V\u1005
p6053
V\u1031
p6054
tp6055
I2
s(V\u1018
p6056
V\u1000
p6057
V\u103a
p6058
tp6059
I3
s(V\u1015
p6060
V\u103c
p6061
V\u102f
p6062
tp6063
I18
s(g44
g352
g230
tp6064
I1
s(V\u103a
p6065
V\u1037
p6066
V\u101f
p6067
tp6068
I2
s(V\u1031
p6069
V\u1005
p6070
V\u102d
p6071
tp6072
I1
s(g1759
g454
V\u1010
p6073
tp6074
I1
s(V\u1006
p6075
V\u1031
p6076
V\u102c
p6077
tp6078
I23
s(V\u1038
p6079
g44
V\u2018
p6080
tp6081
I1
s(V\u102c
p6082
V\u101e
p6083
V\u1031
p6084
tp6085
I2
s(V\u1036
p6086
V\u101b
p6087
V\u1031
p6088
tp6089
I15
s(V\u1038
p6090
V\u1019
p6091
V\u1030
p6092
tp6093
I2
s(V\u1015
p6094
V\u103a
p6095
V\u104a
p6096
tp6097
I1
s(g44
V\u1005
p6098
V\u102c
p6099
tp6100
I7
s(V\u1030
p6101
V\u101a
p6102
V\u1004
p6103
tp6104
I1
s(V\u1030
p6105
V\u101c
p6106
V\u102c
p6107
tp6108
I1
s(V\u1036
p6109
V\u1038
p6110
V\u101f
p6111
tp6112
I1
s(V\u101e
p6113
V\u1015
p6114
V\u103a
p6115
tp6116
I2
s(V\u103e
p6117
V\u102f
p6118
V\u1019
p6119
tp6120
I10
s(g44
V\u1001
p6121
V\u103c
p6122
tp6123
I1
s(V\u1000
p6124
V\u103a
p6125
V\u1000
p6126
tp6127
I22
s(V\u1038
p6128
V\u1018
p6129
V\u101d
p6130
tp6131
I1
s(V\u1038
p6132
V\u1011
p6133
V\u1000
p6134
tp6135
I2
s(V\u100a
p6136
V\u102e
p6137
V\u101e
p6138
tp6139
I1
s(V\u1014
p6140
V\u100a
p6141
V\u103a
p6142
tp6143
I16
s(V\u1019
p6144
V\u1016
p6145
V\u103c
p6146
tp6147
I4
s(V\u101e
p6148
V\u100f
p6149
V\u1039
p6150
tp6151
I1
s(V\u104b
p6152
V\u101e
p6153
V\u1030
p6154
tp6155
I1
s(V\u102c
p6156
V\u1012
p6157
V\u103a
p6158
tp6159
I1
s(V\u1014
p6160
V\u1000
p6161
V\u103a
p6162
tp6163
I16
s(V\u103a
p6164
V\u1014
p6165
V\u103e
p6166
tp6167
I17
s(V\u103d
p6168
V\u1031
p6169
V\u1016
p6170
tp6171
I3
s(g1554
g44
V\u104a
p6172
tp6173
I1
s(V\u101e
p6174
V\u1030
p6175
V\u1019
p6176
tp6177
I9
s(V\u102b
p6178
V\u1019
p6179
V\u101a
p6180
tp6181
I3
s(V\u1041
p6182
V\u1043
p6183
V\u1045
p6184
tp6185
I1
s(V\u101b
p6186
V\u1031
p6187
V\u1001
p6188
tp6189
I2
s(V\u1015
p6190
V\u103c
p6191
V\u1010
p6192
tp6193
I1
s(V\u100f
p6194
V\u102c
p6195
V\u1001
p6196
tp6197
I1
s(g44
V\u1011
p6198
V\u1031
p6199
tp6200
I9
s(V\u101d
p6201
V\u1031
p6202
V\u101b
p6203
tp6204
I1
s(g44
V\u100a
p6205
V\u103e
p6206
tp6207
I7
s(V\u101a
p6208
V\u103a
p6209
V\u1037
p6210
tp6211
I3
s(V\u1001
p6212
V\u1036
p6213
V\u1021
p6214
tp6215
I1
s(V\u1011
p6216
V\u1036
p6217
V\u101e
p6218
tp6219
I2
s(V\u103a
p6220
V\u1000
p6221
V\u103c
p6222
tp6223
I24
s(V\u101d
p6224
g44
V\u101c
p6225
tp6226
I1
s(V\u1010
p6227
V\u1030
p6228
g44
tp6229
I4
s(V\u1000
p6230
V\u1014
p6231
V\u1031
p6232
tp6233
I2
s(V\u103a
p6234
V\u1038
p6235
V\u1007
p6236
tp6237
I2
s(g4140
g652
g1554
tp6238
I1
s(V\u103e
p6239
V\u1031
p6240
V\u1000
p6241
tp6242
I3
s(V\u1015
p6243
V\u103b
p6244
V\u1000
p6245
tp6246
I2
s(V\u1031
p6247
V\u1015
p6248
V\u102b
p6249
tp6250
I4
s(V\u1038
p6251
V\u1000
p6252
V\u100f
p6253
tp6254
I1
s(V\u103a
p6255
V\u101c
p6256
V\u102f
p6257
tp6258
I11
s(V\u1019
p6259
V\u101e
p6260
V\u103d
p6261
tp6262
I1
s(V\u103a
p6263
V\u1021
p6264
V\u1010
p6265
tp6266
I5
s(V\u102c
p6267
V\u103a
p6268
V\u1005
p6269
tp6270
I2
s(V\u1032
p6271
g44
V\u1006
p6272
tp6273
I3
s(V\u1000
p6274
V\u103a
p6275
V\u104a
p6276
tp6277
I3
s(V\u1032
p6278
V\u1011
p6279
V\u103d
p6280
tp6281
I1
s(V\u102f
p6282
V\u1019
p6283
V\u103b
p6284
tp6285
I11
s(V\u102b
p6286
V\u104b
p6287
g44
tp6288
I2
s(V\u201c
p6289
g44
V\u1021
p6290
tp6291
I1
s(V\u102c
p6292
V\u1001
p6293
V\u103b
p6294
tp6295
I5
s(V\u102d
p6296
V\u1037
p6297
V\u1014
p6298
tp6299
I1
s(V\u102c
p6300
V\u1000
p6301
V\u103d
p6302
tp6303
I3
s(V\u103a
p6304
g44
V\u1006
p6305
tp6306
I7
s(V\u101a
p6307
V\u1039
p6308
V\u1001
p6309
tp6310
I2
s(V\u1032
p6311
g44
V\u1019
p6312
tp6313
I2
s(V\u1010
p6314
V\u103d
p6315
V\u1032
p6316
tp6317
I3
s(V\u1026
p6318
V\u1038
p6319
V\u1021
p6320
tp6321
I5
s(V\u1019
p6322
V\u101b
p6323
V\u1010
p6324
tp6325
I1
s(V\u101d
p6326
V\u1031
p6327
V\u1012
p6328
tp6329
I1
s(V\u1036
p6330
g44
V\u1004
p6331
tp6332
I1
s(g544
V\u1047
p6333
g454
tp6334
I4
s(V\u1038
p6335
V\u1006
p6336
V\u1031
p6337
tp6338
I2
s(V\u103a
p6339
V\u1019
p6340
V\u101b
p6341
tp6342
I10
s(V\u1019
p6343
V\u103e
p6344
V\u1030
p6345
tp6346
I3
s(V\u1038
p6347
g44
V\u101d
p6348
tp6349
I1
s(V\u1030
p6350
g44
V\u1021
p6351
tp6352
I1
s(V\u103a
p6353
V\u1021
p6354
V\u1019
p6355
tp6356
I7
s(V\u1015
p6357
V\u102b
p6358
V\u1019
p6359
tp6360
I4
s(V\u102c
p6361
V\u101e
p6362
V\u1018
p6363
tp6364
I1
s(V\u1036
p6365
V\u1010
p6366
V\u1019
p6367
tp6368
I1
s(V\u1032
p6369
V\u1016
p6370
V\u103c
p6371
tp6372
I3
s(g44
V\u1025
p6373
V\u1015
p6374
tp6375
I3
s(V\u104a
p6376
g44
V\u101b
p6377
tp6378
I3
s(V\u1021
p6379
V\u1032
p6380
V\u1012
p6381
tp6382
I7
s(V\u1037
p6383
V\u1010
p6384
V\u1014
p6385
tp6386
I1
s(V\u1036
p6387
V\u101c
p6388
V\u102f
p6389
tp6390
I3
s(g44
V\u1044
p6391
V\u1045
p6392
tp6393
I1
s(V\u1001
p6394
V\u103d
p6395
V\u1014
p6396
tp6397
I1
s(V\u1031
p6398
V\u1037
p6399
V\u1014
p6400
tp6401
I1
s(g352
g2948
g399
tp6402
I1
s(V\u102d
p6403
V\u1015
p6404
V\u1000
p6405
tp6406
I3
s(V\u103d
p6407
V\u1032
p6408
V\u101d
p6409
tp6410
I7
s(V\u102b
p6411
V\u1037
p6412
V\u1019
p6413
tp6414
I1
s(g1554
g454
g44
tp6415
I1
s(V\u1012
p6416
V\u103a
p6417
g544
tp6418
I1
s(V\u1014
p6419
V\u102c
p6420
V\u1019
p6421
tp6422
I6
s(V\u1031
p6423
V\u102c
p6424
V\u100a
p6425
tp6426
I1
s(V\u103c
p6427
V\u1036
p6428
g44
tp6429
I1
s(V\u1019
p6430
V\u1000
p6431
V\u103a
p6432
tp6433
I10
s(V\u103c
p6434
V\u1004
p6435
V\u103a
p6436
tp6437
I63
s(V\u1000
p6438
V\u103a
p6439
V\u1019
p6440
tp6441
I20
s(V\u104b
p6442
g44
V\u1019
p6443
tp6444
I1
s(V\u1018
p6445
V\u1032
p6446
V\u104b
p6447
tp6448
I4
s(V\u1014
p6449
V\u103a
p6450
V\u1006
p6451
tp6452
I4
s(V\u103d
p6453
V\u1031
p6454
V\u1021
p6455
tp6456
I7
s(V\u103a
p6457
V\u1038
p6458
V\u1004
p6459
tp6460
I2
s(V\u1004
p6461
V\u103a
p6462
V\u1021
p6463
tp6464
I22
s(V\u1001
p6465
V\u1032
p6466
V\u1019
p6467
tp6468
I1
s(V\u102f
p6469
V\u1000
p6470
V\u103a
p6471
tp6472
I36
s(V\u1015
p6473
V\u1005
p6474
V\u1039
p6475
tp6476
I1
s(V\u102d
p6477
V\u101b
p6478
V\u103e
p6479
tp6480
I3
s(V\u1012
p6481
V\u1031
p6482
V\u1019
p6483
tp6484
I1
s(V\u1000
p6485
V\u103a
p6486
g44
tp6487
I38
s(V\u1015
p6488
V\u1000
p6489
V\u1039
p6490
tp6491
I3
s(V\u1019
p6492
V\u101f
p6493
V\u102f
p6494
tp6495
I6
s(g44
V\u1021
p6496
V\u1001
p6497
tp6498
I28
s(V\u1030
p6499
V\u1000
p6500
g44
tp6501
I1
s(V\u1014
p6502
V\u103a
p6503
V\u1015
p6504
tp6505
I9
s(g352
g454
V\u104c
p6506
tp6507
I1
s(V\u102b
p6508
V\u1015
p6509
V\u102b
p6510
tp6511
I1
s(V\u1021
p6512
V\u1019
p6513
V\u1010
p6514
tp6515
I3
s(V\u1042
p6516
g44
V\u101b
p6517
tp6518
I2
s(V\u1031
p6519
V\u101e
p6520
V\u101c
p6521
tp6522
I9
s(V\u1019
p6523
V\u1015
p6524
V\u103c
p6525
tp6526
I4
s(V\u1000
p6527
V\u101c
p6528
V\u1031
p6529
tp6530
I5
s(V\u1019
p6531
V\u1030
p6532
V\u101b
p6533
tp6534
I1
s(V\u1031
p6535
V\u101b
p6536
V\u1021
p6537
tp6538
I1
s(V\u103f
p6539
V\u102c
p6540
V\u1010
p6541
tp6542
I1
s(V\u1038
p6543
V\u101b
p6544
V\u1004
p6545
tp6546
I19
s(V\u1004
p6547
V\u103a
p6548
g544
tp6549
I2
s(V\u103a
p6550
V\u1001
p6551
V\u1004
p6552
tp6553
I2
s(V\u103a
p6554
V\u1010
p6555
V\u1004
p6556
tp6557
I3
s(V\u1032
p6558
V\u1006
p6559
V\u102d
p6560
tp6561
I3
s(V\u1036
p6562
g44
V\u100a
p6563
tp6564
I1
s(V\u102b
p6565
V\u201d
p6566
V\u101f
p6567
tp6568
I1
s(V\u1007
p6569
V\u102c
p6570
V\u1019
p6571
tp6572
I1
s(V\u103e
p6573
V\u1031
p6574
g44
tp6575
I1
s(V\u1036
p6576
V\u1038
p6577
V\u1001
p6578
tp6579
I2
s(V\u102e
p6580
V\u1019
p6581
V\u103c
p6582
tp6583
I1
s(V\u102b
p6584
V\u101e
p6585
V\u100a
p6586
tp6587
I6
s(V\u1014
p6588
V\u103a
p6589
V\u101c
p6590
tp6591
I8
s(g1297
g176
g730
tp6592
I1
s(V\u1010
p6593
V\u102c
p6594
V\u1000
p6595
tp6596
I3
s(V\u104b
p6597
g44
V\u201c
p6598
tp6599
I2
s(V\u1038
p6600
V\u1011
p6601
V\u1031
p6602
tp6603
I1
s(V\u101b
p6604
g44
V\u101e
p6605
tp6606
I1
s(V\u1037
p6607
g44
V\u101b
p6608
tp6609
I11
s(V\u102d
p6610
V\u102f
p6611
V\u1037
p6612
tp6613
I106
s(g44
V\u104a
p6614
g44
tp6615
I2
s(V\u102c
p6616
V\u1038
p6617
V\u101b
p6618
tp6619
I13
s(V\u102c
p6620
V\u103a
p6621
V\u104f
p6622
tp6623
I1
s(V\u1038
p6624
V\u1010
p6625
V\u1030
p6626
tp6627
I4
s(V\u1019
p6628
V\u1005
p6629
V\u103d
p6630
tp6631
I1
s(V\u1037
p6632
V\u101b
p6633
g44
tp6634
I1
s(V\u1031
p6635
V\u1019
p6636
V\u103b
p6637
tp6638
I2
s(V\u1021
p6639
V\u1019
p6640
V\u1031
p6641
tp6642
I1
s(V\u1000
p6643
V\u103a
p6644
V\u1016
p6645
tp6646
I2
s(g1554
g2335
V\u2019
p6647
tp6648
I2
s(V\u102e
p6649
g44
V\u1016
p6650
tp6651
I1
s(V\u1037
p6652
V\u103a
p6653
V\u101a
p6654
tp6655
I1
s(V\u101c
p6656
V\u102c
p6657
V\u1019
p6658
tp6659
I4
s(V\u102f
p6660
V\u101e
p6661
V\u102d
p6662
tp6663
I4
s(V\u1045
p6664
V\u1040
p6665
g44
tp6666
I1
s(V\u1038
p6667
V\u1026
p6668
V\u1038
p6669
tp6670
I1
s(V\u103a
p6671
V\u1018
p6672
V\u1030
p6673
tp6674
I2
s(V\u103a
p6675
V\u101e
p6676
V\u1030
p6677
tp6678
I8
s(V\u102f
p6679
V\u1018
p6680
V\u1032
p6681
tp6682
I2
s(g4140
g399
g454
tp6683
I1
s(V\u1031
p6684
V\u1019
p6685
V\u103e
p6686
tp6687
I5
s(V\u1014
p6688
V\u102c
p6689
V\u1010
p6690
tp6691
I1
s(V\u1010
p6692
V\u102d
p6693
V\u1011
p6694
tp6695
I1
s(V\u102c
p6696
g44
V\u1041
p6697
tp6698
I2
s(V\u1009
p6699
V\u103a
p6700
V\u1000
p6701
tp6702
I1
s(V\u102f
p6703
V\u1036
p6704
V\u1001
p6705
tp6706
I1
s(V\u1031
p6707
V\u1015
p6708
V\u102d
p6709
tp6710
I1
s(V\u102d
p6711
V\u102f
p6712
V\u101e
p6713
tp6714
I25
s(V\u102c
p6715
V\u1038
p6716
V\u1012
p6717
tp6718
I3
s(V\u103c
p6719
V\u1019
p6720
V\u103a
p6721
tp6722
I2
s(V\u1014
p6723
V\u1031
p6724
V\u1014
p6725
tp6726
I1
s(V\u1011
p6727
V\u1032
p6728
V\u1019
p6729
tp6730
I7
s(V\u1021
p6731
V\u1004
p6732
V\u103a
p6733
tp6734
I4
s(V\u1021
p6735
V\u1000
p6736
V\u102c
p6737
tp6738
I1
s(V\u102d
p6739
g44
V\u1004
p6740
tp6741
I1
s(V\u1038
p6742
V\u1018
p6743
V\u1032
p6744
tp6745
I3
s(V\u1038
p6746
g44
V\u1026
p6747
tp6748
I4
s(g44
V\u101e
p6749
V\u102f
p6750
tp6751
I3
s(V\u1037
p6752
V\u103a
p6753
g44
tp6754
I10
s(g44
V\u101b
p6755
V\u101c
p6756
tp6757
I1
s(V\u103a
p6758
V\u104f
p6759
g44
tp6760
I1
s(V\u1025
p6761
V\u1015
p6762
V\u1012
p6763
tp6764
I7
s(V\u1041
p6765
g4978
g454
tp6766
I1
s(V\u1038
p6767
V\u1004
p6768
V\u101a
p6769
tp6770
I3
s(V\u103a
p6771
V\u1006
p6772
V\u1004
p6773
tp6774
I7
s(V\u101b
p6775
V\u1018
p6776
V\u1032
p6777
tp6778
I1
s(V\u1019
p6779
V\u1032
p6780
V\u1021
p6781
tp6782
I2
s(V\u1014
p6783
V\u1031
p6784
V\u101e
p6785
tp6786
I15
s(V\u103c
p6787
V\u102f
p6788
V\u1036
p6789
tp6790
I5
s(V\u102c
p6791
V\u1000
p6792
g44
tp6793
I2
s(V\u1005
p6794
V\u1031
p6795
V\u104b
p6796
tp6797
I1
s(g44
V\u1011
p6798
V\u103d
p6799
tp6800
I5
s(V\u1001
p6801
V\u102b
p6802
V\u1038
p6803
tp6804
I1
s(g44
V\u1019
p6805
V\u101c
p6806
tp6807
I1
s(V\u103e
p6808
V\u102f
p6809
V\u101b
p6810
tp6811
I2
s(V\u104a
p6812
V\u1001
p6813
V\u103b
p6814
tp6815
I1
s(V\u1015
p6816
V\u102f
p6817
V\u1012
p6818
tp6819
I1
s(V\u1030
p6820
V\u1038
p6821
V\u1010
p6822
tp6823
I4
s(g44
V\u1016
p6824
V\u102d
p6825
tp6826
I2
s(V\u104a
p6827
g44
g544
tp6828
I1
s(V\u1000
p6829
V\u103c
p6830
V\u100a
p6831
tp6832
I10
s(V\u2019
p6833
g44
V\u1010
p6834
tp6835
I1
s(V\u103a
p6836
V\u1001
p6837
V\u1036
p6838
tp6839
I12
s(V\u101e
p6840
V\u101a
p6841
V\u103a
p6842
tp6843
I1
s(V\u1031
p6844
V\u101b
p6845
V\u1004
p6846
tp6847
I1
s(V\u103a
p6848
V\u101c
p6849
V\u103b
p6850
tp6851
I4
s(V\u1037
p6852
V\u1014
p6853
V\u101a
p6854
tp6855
I5
s(V\u103a
p6856
V\u1037
p6857
V\u1006
p6858
tp6859
I1
s(V\u1040
p6860
V\u1044
p6861
V\u1040
p6862
tp6863
I1
s(V\u1037
p6864
V\u1017
p6865
V\u1019
p6866
tp6867
I1
s(V\u100a
p6868
V\u103a
p6869
V\u1016
p6870
tp6871
I7
s(V\u101e
p6872
V\u102d
p6873
V\u1014
p6874
tp6875
I7
s(g44
V\u1015
p6876
V\u102d
p6877
tp6878
I6
s(V\u1001
p6879
V\u1004
p6880
V\u103a
p6881
tp6882
I3
s(V\u1038
p6883
V\u1016
p6884
V\u103c
p6885
tp6886
I27
s(g399
g2027
g397
tp6887
I1
s(V\u101b
p6888
V\u101e
p6889
V\u1005
p6890
tp6891
I1
s(V\u1031
p6892
V\u1038
p6893
V\u1012
p6894
tp6895
I2
s(g187
g589
g399
tp6896
I1
s(V\u101b
p6897
V\u103d
p6898
V\u103e
p6899
tp6900
I5
s(g544
V\u1044
p6901
g454
tp6902
I2
s(V\u1010
p6903
V\u101b
p6904
V\u1015
p6905
tp6906
I2
s(V\u1005
p6907
V\u102d
p6908
V\u102f
p6909
tp6910
I19
s(V\u1015
p6911
V\u103a
p6912
V\u1001
p6913
tp6914
I5
s(g44
V\u101e
p6915
V\u1031
p6916
tp6917
I1
s(V\u103a
p6918
V\u1019
p6919
V\u1032
p6920
tp6921
I6
s(V\u1005
p6922
V\u103a
p6923
V\u1021
p6924
tp6925
I6
s(V\u102b
p6926
V\u103a
p6927
g44
tp6928
I4
s(V\u101c
p6929
V\u103e
p6930
V\u100a
p6931
tp6932
I1
s(V\u1021
p6933
V\u102c
p6934
V\u1000
p6935
tp6936
I1
s(V\u1014
p6937
V\u101a
p6938
V\u103a
p6939
tp6940
I40
s(V\u1019
p6941
V\u103d
p6942
V\u1014
p6943
tp6944
I25
s(V\u1038
p6945
g44
V\u201c
p6946
tp6947
I2
s(V\u101b
p6948
g44
V\u1014
p6949
tp6950
I2
s(V\u1010
p6951
V\u102d
p6952
V\u102f
p6953
tp6954
I65
s(V\u1031
p6955
V\u1038
p6956
V\u1007
p6957
tp6958
I3
s(V\u102e
p6959
V\u101a
p6960
V\u102c
p6961
tp6962
I2
s(V\u1010
p6963
V\u102c
p6964
g44
tp6965
I13
s(V\u101d
p6966
V\u1031
p6967
V\u1011
p6968
tp6969
I1
s(V\u101a
p6970
V\u103a
p6971
V\u1000
p6972
tp6973
I4
s(V\u1004
p6974
V\u1036
p6975
V\u1019
p6976
tp6977
I2
s(g44
V\u101e
p6978
V\u102c
p6979
tp6980
I6
s(V\u1038
p6981
V\u1016
p6982
V\u1031
p6983
tp6984
I3
s(V\u1036
p6985
V\u101b
p6986
V\u1014
p6987
tp6988
I1
s(V\u103a
p6989
V\u1037
p6990
g44
tp6991
I77
s(V\u103a
p6992
g44
V\u1010
p6993
tp6994
I21
s(V\u101d
p6995
g44
V\u1000
p6996
tp6997
I2
s(V\u1016
p6998
V\u103c
p6999
V\u100a
p7000
tp7001
I2
s(V\u1039
p7002
V\u1005
p7003
V\u1019
p7004
tp7005
I2
s(V\u1019
p7006
V\u102d
p7007
V\u1018
p7008
tp7009
I2
s(V\u101b
p7010
V\u1001
p7011
V\u103c
p7012
tp7013
I5
s(g3632
g409
g3632
tp7014
I1
s(V\u1021
p7015
V\u101e
p7016
V\u1036
p7017
tp7018
I6
s(V\u103c
p7019
V\u100a
p7020
V\u103a
p7021
tp7022
I67
s(V\u1041
p7023
V\u1045
p7024
g44
tp7025
I9
s(V\u1019
p7026
V\u102e
p7027
V\u1012
p7028
tp7029
I1
s(V\u102f
p7030
V\u1015
p7031
V\u100a
p7032
tp7033
I1
s(V\u103a
p7034
V\u101a
p7035
V\u103e
p7036
tp7037
I1
s(V\u102f
p7038
V\u1015
p7039
V\u103c
p7040
tp7041
I3
s(V\u1048
p7042
g44
V\u1019
p7043
tp7044
I1
s(V\u1015
p7045
V\u1019
p7046
V\u103a
p7047
tp7048
I1
s(V\u101c
p7049
V\u1032
p7050
V\u1006
p7051
tp7052
I3
s(V\u103a
p7053
V\u1018
p7054
V\u1032
p7055
tp7056
I3
s(V\u103c
p7057
V\u1031
p7058
V\u102c
p7059
tp7060
I89
s(V\u103c
p7061
V\u103e
p7062
V\u1004
p7063
tp7064
I1
s(V\u1014
p7065
V\u1031
p7066
V\u1001
p7067
tp7068
I2
s(V\u1010
p7069
V\u102e
p7070
V\u104a
p7071
tp7072
I2
s(V\u1021
p7073
V\u102c
p7074
V\u1038
p7075
tp7076
I28
s(g44
V\u101b
p7077
V\u101a
p7078
tp7079
I1
s(V\u103a
p7080
V\u1038
p7081
g454
tp7082
I1
s(V\u103a
p7083
V\u1019
p7084
V\u1004
p7085
tp7086
I2
s(V\u103a
p7087
V\u104b
p7088
V\u101e
p7089
tp7090
I1
s(V\u102f
p7091
g44
V\u1012
p7092
tp7093
I1
s(g544
g398
g177
tp7094
I1
s(V\u1014
p7095
V\u102d
p7096
V\u102f
p7097
tp7098
I89
s(V\u1014
p7099
V\u103a
p7100
V\u1021
p7101
tp7102
I7
s(V\u1018
p7103
V\u102d
p7104
V\u102f
p7105
tp7106
I9
s(V\u1007
p7107
V\u1030
p7108
V\u1038
p7109
tp7110
I3
s(V\u1031
p7111
V\u1038
p7112
V\u1000
p7113
tp7114
I41
s(V\u103a
p7115
V\u1012
p7116
g44
tp7117
I1
s(V\u1038
p7118
V\u1006
p7119
V\u102d
p7120
tp7121
I17
s(g44
V\u1005
p7122
V\u1009
p7123
tp7124
I4
s(V\u1010
p7125
V\u102e
p7126
V\u1010
p7127
tp7128
I2
s(V\u1031
p7129
V\u101e
p7130
V\u1000
p7131
tp7132
I1
s(V\u103a
p7133
V\u1011
p7134
V\u102c
p7135
tp7136
I5
s(g399
g399
g454
tp7137
I1
s(V\u1038
p7138
V\u1021
p7139
V\u1000
p7140
tp7141
I2
s(V\u1021
p7142
V\u1015
p7143
V\u102b
p7144
tp7145
I3
s(V\u102d
p7146
V\u1018
p7147
V\u102d
p7148
tp7149
I1
s(V\u1004
p7150
V\u103a
p7151
V\u1015
p7152
tp7153
I22
s(V\u1019
p7154
V\u1031
p7155
V\u102c
p7156
tp7157
I3
s(V\u102c
p7158
V\u1004
p7159
V\u103c
p7160
tp7161
I1
s(V\u103e
p7162
g44
V\u1000
p7163
tp7164
I1
s(V\u100d
p7165
V\u102b
p7166
V\u1014
p7167
tp7168
I1
s(V\u103a
p7169
g544
g177
tp7170
I4
s(V\u1037
p7171
V\u1019
p7172
V\u103e
p7173
tp7174
I5
s(V\u1037
p7175
V\u101d
p7176
V\u1004
p7177
tp7178
I4
s(V\u1031
p7179
g44
V\u1001
p7180
tp7181
I1
s(g451
g352
g454
tp7182
I1
s(g44
g911
g1509
tp7183
I1
s(V\u103d
p7184
V\u1031
p7185
V\u1011
p7186
tp7187
I11
s(V\u103a
p7188
V\u1013
p7189
V\u1019
p7190
tp7191
I1
s(V\u100a
p7192
V\u102e
p7193
V\u100a
p7194
tp7195
I1
s(V\u102c
p7196
V\u1015
p7197
V\u102f
p7198
tp7199
I1
s(V\u103a
p7200
V\u101c
p7201
V\u1031
p7202
tp7203
I13
s(V\u1019
p7204
V\u1021
p7205
V\u1001
p7206
tp7207
I1
s(V\u1038
p7208
V\u1004
p7209
V\u1031
p7210
tp7211
I1
s(V\u1037
p7212
V\u1015
p7213
V\u103c
p7214
tp7215
I11
s(V\u103a
p7216
V\u1021
p7217
V\u102c
p7218
tp7219
I10
s(V\u1037
p7220
V\u101c
p7221
V\u102f
p7222
tp7223
I1
s(V\u1001
p7224
V\u102b
p7225
V\u1014
p7226
tp7227
I1
s(V\u1000
p7228
V\u103a
p7229
V\u101f
p7230
tp7231
I1
s(V\u102f
p7232
g44
g1554
tp7233
I1
s(g454
g44
V\u1016
p7234
tp7235
I3
s(V\u103e
p7236
V\u1021
p7237
V\u1000
p7238
tp7239
I1
s(V\u103a
p7240
V\u101b
p7241
V\u101b
p7242
tp7243
I6
s(V\u1004
p7244
V\u103a
p7245
V\u101c
p7246
tp7247
I31
s(V\u1014
p7248
V\u103a
p7249
V\u1012
p7250
tp7251
I9
s(V\u1000
p7252
V\u103c
p7253
V\u1006
p7254
tp7255
I1
s(V\u101b
p7256
V\u101e
p7257
V\u101c
p7258
tp7259
I1
s(V\u1005
p7260
V\u1036
p7261
V\u1010
p7262
tp7263
I1
s(V\u1037
p7264
V\u1010
p7265
V\u1031
p7266
tp7267
I3
s(V\u1019
p7268
V\u103b
p7269
V\u102c
p7270
tp7271
I140
s(V\u103d
p7272
V\u1031
p7273
V\u1018
p7274
tp7275
I3
s(V\u1002
p7276
V\u103b
p7277
V\u102c
p7278
tp7279
I10
s(V\u100a
p7280
V\u102e
p7281
V\u1001
p7282
tp7283
I3
s(g44
V\u201c
p7284
V\u101c
p7285
tp7286
I1
s(V\u102c
p7287
V\u1021
p7288
V\u1000
p7289
tp7290
I3
s(V\u1021
p7291
V\u1001
p7292
V\u102b
p7293
tp7294
I2
s(V\u1015
p7295
V\u102b
p7296
V\u1037
p7297
tp7298
I1
s(V\u100a
p7299
V\u103a
p7300
V\u1005
p7301
tp7302
I1
s(V\u1040
p7303
g44
V\u1015
p7304
tp7305
I2
s(V\u1021
p7306
V\u101b
p7307
V\u1004
p7308
tp7309
I4
s(V\u102b
p7310
V\u1000
p7311
V\u101c
p7312
tp7313
I2
s(V\u101a
p7314
V\u103a
p7315
g44
tp7316
I17
s(V\u101c
p7317
V\u102c
p7318
V\u101e
p7319
tp7320
I4
s(g1509
g1297
g231
tp7321
I1
s(V\u102f
p7322
g44
V\u1000
p7323
tp7324
I9
s(V\u1000
p7325
V\u103c
p7326
V\u102e
p7327
tp7328
I15
s(V\u102c
p7329
V\u101e
p7330
V\u102f
p7331
tp7332
I1
s(V\u102c
p7333
V\u1038
p7334
V\u104f
p7335
tp7336
I7
s(V\u103a
p7337
V\u1011
p7338
V\u102f
p7339
tp7340
I4
s(g44
V\u101e
p7341
V\u101a
p7342
tp7343
I1
s(V\u1032
p7344
g44
V\u1005
p7345
tp7346
I1
s(V\u1038
p7347
V\u1000
p7348
V\u1014
p7349
tp7350
I2
s(V\u100b
p7351
V\u1039
p7352
V\u100c
p7353
tp7354
I2
s(V\u1038
p7355
V\u1007
p7356
V\u101a
p7357
tp7358
I2
s(V\u102f
p7359
V\u1010
p7360
V\u103d
p7361
tp7362
I6
s(V\u1046
p7363
g44
V\u1026
p7364
tp7365
I3
s(V\u1001
p7366
g454
V\u1010
p7367
tp7368
I1
s(g44
V\u1012
p7369
V\u102b
p7370
tp7371
I14
s(V\u1000
p7372
V\u102d
p7373
V\u1005
p7374
tp7375
I10
s(V\u1000
p7376
g44
V\u1011
p7377
tp7378
I2
s(V\u1001
p7379
V\u102f
p7380
V\u1014
p7381
tp7382
I4
s(V\u102c
p7383
V\u103a
p7384
V\u1021
p7385
tp7386
I3
s(V\u100a
p7387
V\u103a
p7388
V\u103a
p7389
tp7390
I1
s(g44
V\u1011
p7391
V\u1004
p7392
tp7393
I1
s(g44
g1509
g231
tp7394
I1
s(V\u103c
p7395
V\u1010
p7396
V\u1032
p7397
tp7398
I1
s(V\u103c
p7399
V\u102f
p7400
V\u1000
p7401
tp7402
I1
s(V\u1005
p7403
V\u102c
p7404
V\u1001
p7405
tp7406
I3
s(V\u102b
p7407
V\u101b
p7408
V\u1005
p7409
tp7410
I1
s(V\u1036
p7411
V\u101e
p7412
V\u102d
p7413
tp7414
I2
s(V\u1037
p7415
V\u104a
p7416
V\u1015
p7417
tp7418
I2
s(g1509
g231
g44
tp7419
I1
s(V\u1036
p7420
V\u1038
p7421
V\u1010
p7422
tp7423
I2
s(V\u101b
p7424
V\u100a
p7425
V\u103a
p7426
tp7427
I5
s(V\u103e
p7428
V\u102f
p7429
V\u1005
p7430
tp7431
I1
s(V\u101c
p7432
V\u102c
p7433
V\u1015
p7434
tp7435
I9
s(V\u1001
p7436
V\u1032
p7437
V\u1037
p7438
tp7439
I35
s(V\u101c
p7440
V\u1030
p7441
V\u1026
p7442
tp7443
I4
s(V\u101e
p7444
V\u1000
p7445
V\u102d
p7446
tp7447
I1
s(V\u101e
p7448
V\u102c
p7449
V\u101b
p7450
tp7451
I4
s(V\u1021
p7452
V\u1019
p7453
V\u100a
p7454
tp7455
I1
s(V\u1012
p7456
V\u102e
p7457
V\u101e
p7458
tp7459
I1
s(V\u103c
p7460
V\u102f
p7461
V\u101e
p7462
tp7463
I2
s(V\u102f
p7464
V\u1019
p7465
V\u1004
p7466
tp7467
I1
s(V\u1038
p7468
V\u1005
p7469
V\u101b
p7470
tp7471
I2
s(V\u1032
p7472
V\u104b
p7473
V\u1021
p7474
tp7475
I1
s(V\u1031
p7476
V\u1038
p7477
g44
tp7478
I46
s(V\u1005
p7479
V\u1039
p7480
V\u1005
p7481
tp7482
I11
s(V\u1019
p7483
V\u103e
p7484
V\u1014
p7485
tp7486
I4
s(V\u103e
p7487
V\u102d
p7488
V\u1000
p7489
tp7490
I4
s(V\u1038
p7491
V\u1015
p7492
V\u1030
p7493
tp7494
I1
s(V\u1012
p7495
V\u1014
p7496
V\u102c
p7497
tp7498
I1
s(V\u100d
p7499
g44
V\u1019
p7500
tp7501
I1
s(g44
V\u1043
p7502
V\u1045
p7503
tp7504
I2
s(V\u101e
p7505
V\u1030
p7506
V\u1021
p7507
tp7508
I2
s(V\u101c
p7509
V\u102c
p7510
V\u1014
p7511
tp7512
I2
s(V\u1031
p7513
V\u102c
p7514
V\u1004
p7515
tp7516
I173
s(V\u1038
p7517
V\u1019
p7518
V\u1004
p7519
tp7520
I1
s(V\u102e
p7521
V\u1038
p7522
V\u100c
p7523
tp7524
I1
s(g2948
g4140
g399
tp7525
I1
s(g44
V\u1041
p7526
V\u1045
p7527
tp7528
I1
s(V\u1032
p7529
g44
V\u101b
p7530
tp7531
I1
s(V\u1038
p7532
g44
V\u101f
p7533
tp7534
I1
s(V\u103c
p7535
V\u1036
p7536
V\u1037
p7537
tp7538
I2
s(V\u102c
p7539
V\u1038
p7540
V\u1005
p7541
tp7542
I16
s(V\u103e
p7543
V\u102c
p7544
V\u1019
p7545
tp7546
I1
s(V\u101b
p7547
V\u102c
p7548
g44
tp7549
I22
s(g44
V\u1005
p7550
V\u102d
p7551
tp7552
I3
s(V\u1038
p7553
V\u1021
p7554
V\u1014
p7555
tp7556
I4
s(V\u103d
p7557
V\u1032
p7558
V\u1001
p7559
tp7560
I1
s(V\u1038
p7561
V\u1007
p7562
V\u1030
p7563
tp7564
I3
s(V\u101a
p7565
V\u102c
p7566
V\u1038
p7567
tp7568
I3
s(V\u1038
p7569
V\u1001
p7570
V\u103c
p7571
tp7572
I9
s(V\u101d
p7573
V\u102b
p7574
V\u1012
p7575
tp7576
I4
s(V\u1038
p7577
V\u104c
p7578
g44
tp7579
I1
s(V\u1038
p7580
g44
V\u101b
p7581
tp7582
I14
s(V\u1016
p7583
V\u1010
p7584
V\u103a
p7585
tp7586
I2
s(V\u103c
p7587
V\u101e
p7588
V\u1031
p7589
tp7590
I2
s(V\u1005
p7591
V\u102f
p7592
V\u1016
p7593
tp7594
I1
s(V\u1026
p7595
V\u1038
p7596
V\u101e
p7597
tp7598
I6
s(g1554
g44
V\u1014
p7599
tp7600
I1
s(V\u1010
p7601
V\u1030
p7602
V\u1018
p7603
tp7604
I1
s(V\u1010
p7605
V\u1031
p7606
V\u102c
p7607
tp7608
I62
s(g44
V\u101b
p7609
V\u1004
p7610
tp7611
I2
s(V\u1015
p7612
V\u103c
p7613
V\u1011
p7614
tp7615
I4
s(V\u103e
p7616
V\u102d
p7617
V\u102f
p7618
tp7619
I10
s(V\u1041
p7620
V\u1042
p7621
g44
tp7622
I3
s(g451
g44
V\u1019
p7623
tp7624
I1
s(V\u101a
p7625
V\u103a
p7626
V\u104b
p7627
tp7628
I58
s(V\u1031
p7629
V\u1014
p7630
V\u102d
p7631
tp7632
I1
s(g177
g176
g2948
tp7633
I2
s(V\u1019
p7634
V\u103c
p7635
V\u1031
p7636
tp7637
I7
s(V\u1000
p7638
g44
V\u1014
p7639
tp7640
I3
s(V\u1015
p7641
V\u1031
p7642
V\u1038
p7643
tp7644
I16
s(V\u101f
p7645
g44
V\u1015
p7646
tp7647
I2
s(g44
V\u1011
p7648
V\u1030
p7649
tp7650
I2
s(V\u103e
p7651
V\u1004
p7652
V\u1037
p7653
tp7654
I6
s(V\u1038
p7655
g44
V\u1010
p7656
tp7657
I15
s(g44
V\u1010
p7658
V\u101b
p7659
tp7660
I3
s(V\u1045
p7661
g454
g44
tp7662
I2
s(V\u103a
p7663
V\u1038
p7664
V\u1006
p7665
tp7666
I17
s(V\u1012
p7667
V\u102f
p7668
V\u1010
p7669
tp7670
I1
s(V\u103e
p7671
g44
V\u1015
p7672
tp7673
I3
s(V\u1032
p7674
V\u1037
p7675
V\u101e
p7676
tp7677
I12
s(V\u101b
p7678
V\u1032
p7679
V\u1015
p7680
tp7681
I1
s(V\u1037
p7682
g44
V\u2018
p7683
tp7684
I1
s(g352
g187
g1554
tp7685
I1
s(V\u1001
p7686
V\u103c
p7687
V\u102d
p7688
tp7689
I1
s(V\u102d
p7690
V\u1010
p7691
V\u101e
p7692
tp7693
I1
s(V\u1038
p7694
V\u1015
p7695
V\u100a
p7696
tp7697
I1
s(V\u103b
p7698
V\u102d
p7699
V\u102f
p7700
tp7701
I132
s(V\u1016
p7702
V\u103c
p7703
V\u1010
p7704
tp7705
I6
s(V\u101a
p7706
V\u1030
p7707
V\u101a
p7708
tp7709
I1
s(V\u1010
p7710
V\u103d
p7711
V\u1004
p7712
tp7713
I62
s(V\u1038
p7714
V\u101d
p7715
V\u1004
p7716
tp7717
I1
s(V\u1015
p7718
V\u1019
p7719
V\u102c
p7720
tp7721
I2
s(V\u1037
p7722
g544
g187
tp7723
I1
s(V\u1036
p7724
V\u1037
p7725
g44
tp7726
I1
s(g44
V\u2018
p7727
V\u1019
p7728
tp7729
I1
s(V\u1037
p7730
V\u101b
p7731
V\u1019
p7732
tp7733
I1
s(V\u101b
p7734
V\u102c
p7735
V\u1005
p7736
tp7737
I3
s(V\u1000
p7738
V\u102c
p7739
V\u1021
p7740
tp7741
I1
s(V\u1000
p7742
g44
V\u101b
p7743
tp7744
I1
s(V\u101e
p7745
V\u1004
p7746
V\u103a
p7747
tp7748
I8
s(V\u101a
p7749
V\u103e
p7750
V\u1009
p7751
tp7752
I3
s(V\u1030
p7753
V\u1021
p7754
V\u1019
p7755
tp7756
I1
s(V\u102c
p7757
V\u1037
p7758
V\u1010
p7759
tp7760
I1
s(V\u1038
p7761
V\u1011
p7762
V\u102d
p7763
tp7764
I2
s(V\u102c
p7765
V\u1038
p7766
V\u1010
p7767
tp7768
I31
s(V\u103a
p7769
V\u1010
p7770
V\u101a
p7771
tp7772
I9
s(V\u102f
p7773
V\u1000
p7774
V\u103c
p7775
tp7776
I9
s(V\u1037
p7777
V\u1001
p7778
V\u102d
p7779
tp7780
I2
s(g544
V\u1046
p7781
V\u1040
p7782
tp7783
I4
s(V\u1000
p7784
V\u103b
p7785
V\u1018
p7786
tp7787
I1
s(V\u1038
p7788
V\u1012
p7789
V\u102e
p7790
tp7791
I3
s(V\u1038
p7792
V\u1010
p7793
V\u102c
p7794
tp7795
I5
s(V\u104a
p7796
g44
V\u101c
p7797
tp7798
I7
s(V\u103c
p7799
V\u102f
p7800
g44
tp7801
I1
s(V\u102f
p7802
V\u101d
p7803
V\u1004
p7804
tp7805
I2
s(V\u102f
p7806
V\u1037
p7807
V\u104f
p7808
tp7809
I3
s(V\u1032
p7810
V\u1005
p7811
V\u1031
p7812
tp7813
I2
s(V\u103c
p7814
V\u101b
p7815
V\u101e
p7816
tp7817
I1
s(V\u102c
p7818
V\u1021
p7819
V\u102f
p7820
tp7821
I2
s(V\u1021
p7822
V\u1019
p7823
V\u103b
p7824
tp7825
I106
s(V\u102c
p7826
g44
V\u1005
p7827
tp7828
I1
s(V\u1019
p7829
V\u1014
p7830
V\u1031
p7831
tp7832
I1
s(V\u103a
p7833
V\u1014
p7834
V\u101a
p7835
tp7836
I31
s(V\u1048
p7837
g44
V\u1015
p7838
tp7839
I1
s(V\u1044
p7840
V\u1048
p7841
g44
tp7842
I1
s(V\u102c
p7843
g44
V\u1016
p7844
tp7845
I4
s(V\u103a
p7846
V\u104a
p7847
V\u1001
p7848
tp7849
I1
s(V\u1005
p7850
V\u103a
p7851
V\u1000
p7852
tp7853
I7
s(g44
V\u1042
p7854
g44
tp7855
I2
s(V\u1036
p7856
V\u1019
p7857
V\u1001
p7858
tp7859
I1
s(V\u1031
p7860
V\u1038
p7861
V\u1004
p7862
tp7863
I3
s(V\u103e
p7864
V\u102d
p7865
g44
tp7866
I8
s(V\u103a
p7867
V\u101b
p7868
V\u1014
p7869
tp7870
I2
s(V\u102f
p7871
V\u1038
p7872
V\u1005
p7873
tp7874
I8
s(V\u1038
p7875
V\u101e
p7876
V\u1019
p7877
tp7878
I69
s(V\u103a
p7879
g44
V\u101c
p7880
tp7881
I17
s(g44
g352
g187
tp7882
I2
s(V\u101b
p7883
V\u101e
p7884
V\u1031
p7885
tp7886
I4
s(V\u1000
p7887
V\u103a
p7888
V\u1018
p7889
tp7890
I1
s(V\u1015
p7891
V\u1005
p7892
V\u103a
p7893
tp7894
I3
s(V\u1026
p7895
V\u1038
p7896
V\u1010
p7897
tp7898
I1
s(V\u102d
p7899
V\u1010
p7900
V\u103d
p7901
tp7902
I1
s(V\u102e
p7903
V\u101b
p7904
V\u1031
p7905
tp7906
I2
s(V\u102b
p7907
g544
g399
tp7908
I1
s(V\u1021
p7909
V\u101e
p7910
V\u102f
p7911
tp7912
I1
s(V\u2018
p7913
V\u101d
p7914
V\u2019
p7915
tp7916
I2
s(V\u101b
p7917
V\u102c
p7918
V\u1000
p7919
tp7920
I2
s(V\u103d
p7921
V\u1010
p7922
V\u103a
p7923
tp7924
I4
s(V\u1038
p7925
g44
V\u1015
p7926
tp7927
I29
s(g44
V\u201c
p7928
V\u1015
p7929
tp7930
I1
s(V\u1038
p7931
V\u101e
p7932
V\u1000
p7933
tp7934
I1
s(g554
g1076
g554
tp7935
I1
s(V\u1000
p7936
V\u1039
p7937
V\u1000
p7938
tp7939
I1
s(V\u102f
p7940
V\u1014
p7941
V\u100a
p7942
tp7943
I1
s(V\u103a
p7944
V\u1015
p7945
V\u102f
p7946
tp7947
I9
s(V\u103c
p7948
V\u101e
p7949
V\u101c
p7950
tp7951
I1
s(V\u103e
p7952
g44
V\u101c
p7953
tp7954
I4
s(V\u104a
p7955
g44
V\u1013
p7956
tp7957
I1
s(V\u1036
p7958
V\u101b
p7959
V\u103e
p7960
tp7961
I1
s(V\u1015
p7962
V\u1032
p7963
V\u201d
p7964
tp7965
I1
s(V\u103a
p7966
V\u1005
p7967
V\u102c
p7968
tp7969
I29
s(V\u1001
p7970
V\u102f
p7971
V\u1021
p7972
tp7973
I2
s(V\u1015
p7974
V\u1014
p7975
V\u103a
p7976
tp7977
I3
s(V\u102c
p7978
V\u1019
p7979
V\u103e
p7980
tp7981
I11
s(V\u1031
p7982
V\u1037
p7983
V\u101c
p7984
tp7985
I6
s(V\u1030
p7986
V\u1037
p7987
V\u101c
p7988
tp7989
I1
s(V\u1014
p7990
V\u102e
p7991
V\u1038
p7992
tp7993
I4
s(g44
V\u101c
p7994
V\u1000
p7995
tp7996
I26
s(V\u1006
p7997
V\u1004
p7998
V\u103a
p7999
tp8000
I20
s(V\u103a
p8001
V\u1038
p8002
V\u101f
p8003
tp8004
I1
s(V\u1032
p8005
g44
g544
tp8006
I1
s(V\u101a
p8007
V\u103a
p8008
V\u201d
p8009
tp8010
I5
s(V\u1000
p8011
V\u102c
p8012
V\u1000
p8013
tp8014
I3
s(V\u101b
p8015
V\u103d
p8016
V\u1031
p8017
tp8018
I38
s(V\u101e
p8019
V\u102e
p8020
V\u1038
p8021
tp8022
I14
s(g454
V\u1010
p8023
V\u103d
p8024
tp8025
I7
s(V\u103b
p8026
V\u102c
p8027
V\u1038
p8028
tp8029
I144
s(V\u1019
p8030
V\u102c
p8031
V\u101b
p8032
tp8033
I1
s(V\u1038
p8034
V\u1021
p8035
V\u101b
p8036
tp8037
I5
s(V\u103b
p8038
V\u103d
p8039
V\u1014
p8040
tp8041
I8
s(g44
V\u1010
p8042
V\u102c
p8043
tp8044
I6
s(V\u1037
p8045
g44
V\u1015
p8046
tp8047
I21
s(g44
V\u201c
p8048
V\u1021
p8049
tp8050
I4
s(V\u102c
p8051
V\u1037
p8052
V\u104a
p8053
tp8054
I1
s(V\u1038
p8055
V\u1016
p8056
V\u103d
p8057
tp8058
I1
s(V\u102f
p8059
V\u1037
p8060
g44
tp8061
I51
s(V\u102f
p8062
V\u1036
p8063
V\u1015
p8064
tp8065
I1
s(V\u102b
p8066
V\u101e
p8067
V\u1004
p8068
tp8069
I1
s(g544
V\u1049
p8070
g454
tp8071
I1
s(V\u104f
p8072
g44
V\u101b
p8073
tp8074
I2
s(g44
V\u1001
p8075
V\u1004
p8076
tp8077
I1
s(V\u102c
p8078
V\u101c
p8079
V\u103d
p8080
tp8081
I1
s(V\u1037
p8082
V\u1001
p8083
V\u103c
p8084
tp8085
I3
s(V\u101b
p8086
V\u103e
p8087
V\u1004
p8088
tp8089
I13
s(g544
g187
g399
tp8090
I2
s(V\u1032
p8091
V\u1037
p8092
V\u1010
p8093
tp8094
I9
s(V\u102c
p8095
V\u1010
p8096
V\u1032
p8097
tp8098
I2
s(V\u102b
p8099
V\u1010
p8100
V\u103a
p8101
tp8102
I2
s(V\u103c
p8103
V\u102f
p8104
V\u104d
p8105
tp8106
I1
s(V\u1021
p8107
V\u1011
p8108
V\u102c
p8109
tp8110
I1
s(V\u102f
p8111
V\u101b
p8112
V\u103e
p8113
tp8114
I1
s(V\u102d
p8115
V\u1015
p8116
V\u1039
p8117
tp8118
I1
s(V\u101c
p8119
V\u103d
p8120
V\u103e
p8121
tp8122
I17
s(V\u102d
p8123
V\u102f
p8124
V\u1014
p8125
tp8126
I7
s(V\u100a
p8127
V\u102c
p8128
V\u1010
p8129
tp8130
I1
s(V\u1037
p8131
V\u104f
p8132
g44
tp8133
I3
s(g589
g44
V\u1014
p8134
tp8135
I1
s(V\u102f
p8136
V\u1014
p8137
V\u1032
p8138
tp8139
I1
s(V\u101b
p8140
V\u102c
p8141
V\u104a
p8142
tp8143
I4
s(V\u1031
p8144
g44
V\u1016
p8145
tp8146
I1
s(V\u102c
p8147
V\u100f
p8148
V\u102c
p8149
tp8150
I3
s(V\u102f
p8151
V\u1037
p8152
V\u1019
p8153
tp8154
I5
s(g187
g730
g397
tp8155
I1
s(V\u1031
p8156
V\u101b
p8157
V\u1019
p8158
tp8159
I1
s(g44
V\u1042
p8160
V\u1041
p8161
tp8162
I2
s(V\u1037
p8163
g44
V\u101e
p8164
tp8165
I14
s(V\u100a
p8166
V\u103a
p8167
V\u1021
p8168
tp8169
I3
s(V\u1004
p8170
V\u103a
p8171
V\u1010
p8172
tp8173
I23
s(V\u1019
p8174
V\u1010
p8175
V\u102e
p8176
tp8177
I7
s(g231
g108
g44
tp8178
I1
s(V\u1037
p8179
V\u101e
p8180
V\u1031
p8181
tp8182
I9
s(V\u102c
p8183
V\u101c
p8184
V\u1032
p8185
tp8186
I3
s(V\u1037
p8187
g44
V\u1044
p8188
tp8189
I1
s(V\u104b
p8190
V\u1021
p8191
V\u1019
p8192
tp8193
I1
s(V\u101b
p8194
V\u102c
p8195
V\u1021
p8196
tp8197
I2
s(g397
g454
V\u1019
p8198
tp8199
I1
s(V\u1037
p8200
V\u1019
p8201
V\u101f
p8202
tp8203
I1
s(V\u101c
p8204
V\u103b
p8205
V\u103e
p8206
tp8207
I6
s(g2948
g176
g2948
tp8208
I2
s(V\u1000
p8209
V\u101e
p8210
V\u102d
p8211
tp8212
I1
s(V\u102c
p8213
g44
V\u1042
p8214
tp8215
I2
s(V\u1015
p8216
V\u100a
p8217
V\u102c
p8218
tp8219
I4
s(V\u103a
p8220
V\u101e
p8221
V\u102e
p8222
tp8223
I1
s(g44
g544
V\u1048
p8224
tp8225
I1
s(V\u1000
p8226
V\u103a
p8227
V\u1011
p8228
tp8229
I3
s(V\u1011
p8230
V\u102f
p8231
V\u1010
p8232
tp8233
I9
s(V\u103a
p8234
V\u1038
p8235
V\u101c
p8236
tp8237
I12
s(V\u1019
p8238
V\u101c
p8239
V\u103d
p8240
tp8241
I1
s(V\u1039
p8242
V\u1002
p8243
V\u101c
p8244
tp8245
I1
s(V\u103a
p8246
g44
g544
tp8247
I5
s(V\u102f
p8248
V\u1038
p8249
V\u101e
p8250
tp8251
I88
s(V\u1040
p8252
V\u1041
p8253
V\u1045
p8254
tp8255
I6
s(g44
V\u1042
p8256
V\u1040
p8257
tp8258
I6
s(g177
g230
g231
tp8259
I4
s(V\u101e
p8260
V\u102d
p8261
V\u101b
p8262
tp8263
I3
s(V\u1019
p8264
V\u103a
p8265
V\u1011
p8266
tp8267
I1
s(V\u101e
p8268
V\u1036
p8269
V\u1010
p8270
tp8271
I2
s(V\u1038
p8272
V\u1010
p8273
V\u102e
p8274
tp8275
I2
s(V\u102c
p8276
V\u1021
p8277
V\u101b
p8278
tp8279
I2
s(V\u1038
p8280
V\u101b
p8281
V\u1015
p8282
tp8283
I2
s(V\u1038
p8284
V\u104b
p8285
V\u000a
p8286
tp8287
I1
s(g2335
V\u1021
p8288
V\u102d
p8289
tp8290
I1
s(V\u102b
p8291
V\u1019
p8292
V\u103e
p8293
tp8294
I2
s(g397
g1554
g4140
tp8295
I1
s(V\u1031
p8296
V\u1037
p8297
V\u101b
p8298
tp8299
I3
s(V\u102c
p8300
V\u1019
p8301
V\u101b
p8302
tp8303
I1
s(V\u1000
p8304
g44
V\u1001
p8305
tp8306
I3
s(V\u1005
p8307
V\u101e
p8308
V\u100a
p8309
tp8310
I3
s(g44
V\u1015
p8311
V\u1010
p8312
tp8313
I2
s(V\u104f
p8314
g44
V\u1005
p8315
tp8316
I1
s(V\u1031
p8317
V\u1038
p8318
V\u101c
p8319
tp8320
I6
s(V\u103a
p8321
V\u1018
p8322
V\u101a
p8323
tp8324
I1
s(V\u1010
p8325
V\u102e
p8326
V\u1019
p8327
tp8328
I9
s(V\u1010
p8329
V\u102e
p8330
g544
tp8331
I6
s(V\u1021
p8332
V\u1015
p8333
V\u103d
p8334
tp8335
I1
s(V\u102c
p8336
g44
V\u1010
p8337
tp8338
I6
s(V\u104f
p8339
g44
V\u1000
p8340
tp8341
I1
s(V\u103a
p8342
V\u1019
p8343
V\u103c
p8344
tp8345
I9
s(V\u1019
p8346
V\u1030
p8347
V\u104a
p8348
tp8349
I1
s(V\u102f
p8350
V\u101e
p8351
V\u1031
p8352
tp8353
I3
s(V\u1032
p8354
V\u101c
p8355
V\u102d
p8356
tp8357
I1
s(V\u1030
p8358
g44
V\u1044
p8359
tp8360
I1
s(g231
g454
V\u000a
p8361
tp8362
I4
s(V\u1032
p8363
V\u1010
p8364
V\u103d
p8365
tp8366
I11
s(V\u1037
p8367
V\u1000
p8368
g44
tp8369
I6
s(V\u102f
p8370
g44
V\u1021
p8371
tp8372
I20
s(V\u1031
p8373
V\u1038
p8374
V\u1011
p8375
tp8376
I4
s(V\u1043
p8377
V\u1045
p8378
g44
tp8379
I2
s(V\u1038
p8380
g44
V\u104a
p8381
tp8382
I1
s(V\u101b
p8383
V\u102c
p8384
V\u1006
p8385
tp8386
I1
s(V\u1000
p8387
V\u102c
p8388
g44
tp8389
I3
s(V\u101b
p8390
V\u1031
p8391
V\u1021
p8392
tp8393
I2
s(V\u1038
p8394
V\u1021
p8395
V\u1011
p8396
tp8397
I2
s(V\u102b
p8398
V\u1021
p8399
V\u101d
p8400
tp8401
I2
s(V\u1032
p8402
V\u1037
p8403
V\u1019
p8404
tp8405
I7
s(V\u104b
p8406
g44
V\u1004
p8407
tp8408
I1
s(V\u1001
p8409
V\u103b
p8410
V\u101a
p8411
tp8412
I8
s(V\u1000
p8413
V\u101b
p8414
V\u1031
p8415
tp8416
I13
s(V\u1038
p8417
V\u1015
p8418
V\u103c
p8419
tp8420
I14
s(V\u102c
p8421
V\u1004
p8422
V\u103a
p8423
tp8424
I172
s(V\u100a
p8425
V\u103a
p8426
V\u1019
p8427
tp8428
I8
s(V\u2019
p8429
g1297
g44
tp8430
I4
s(g2335
g1297
g454
tp8431
I1
s(V\u1042
p8432
V\u1047
p8433
V\u1049
p8434
tp8435
I1
s(V\u101b
p8436
V\u103e
p8437
V\u102c
p8438
tp8439
I4
s(g1759
g554
g109
tp8440
I1
s(V\u102f
p8441
V\u1037
p8442
V\u1000
p8443
tp8444
I7
s(V\u1039
p8445
V\u1001
p8446
V\u101e
p8447
tp8448
I3
s(V\u103a
p8449
V\u101c
p8450
V\u102d
p8451
tp8452
I16
s(V\u1038
p8453
V\u1001
p8454
V\u102d
p8455
tp8456
I2
s(V\u1039
p8457
V\u1001
p8458
V\u102c
p8459
tp8460
I1
s(V\u1014
p8461
V\u103e
p8462
V\u1005
p8463
tp8464
I13
s(g44
V\u1021
p8465
V\u1004
p8466
tp8467
I3
s(V\u103a
p8468
V\u101a
p8469
V\u1009
p8470
tp8471
I1
s(g187
g2335
V\u1021
p8472
tp8473
I1
s(g44
V\u1015
p8474
V\u101b
p8475
tp8476
I2
s(V\u1038
p8477
V\u1000
p8478
V\u102c
p8479
tp8480
I1
s(V\u1006
p8481
V\u1032
p8482
V\u1016
p8483
tp8484
I2
s(V\u102d
p8485
V\u1010
p8486
V\u1032
p8487
tp8488
I2
s(V\u102c
p8489
V\u1010
p8490
V\u1001
p8491
tp8492
I1
s(V\u102c
p8493
V\u1038
p8494
V\u201d
p8495
tp8496
I1
s(V\u100a
p8497
V\u103e
p8498
V\u102d
p8499
tp8500
I8
s(g44
V\u1006
p8501
V\u1000
p8502
tp8503
I1
s(V\u102e
p8504
V\u1000
p8505
V\u102d
p8506
tp8507
I1
s(V\u1048
p8508
V\u1040
p8509
V\u1044
p8510
tp8511
I1
s(V\u1032
p8512
V\u1010
p8513
V\u102c
p8514
tp8515
I1
s(V\u1031
p8516
V\u1016
p8517
V\u1031
p8518
tp8519
I1
s(g399
g451
g352
tp8520
I1
s(V\u1000
p8521
V\u1019
p8522
V\u101f
p8523
tp8524
I1
s(V\u102d
p8525
V\u101e
p8526
V\u1000
p8527
tp8528
I1
s(V\u1019
p8529
V\u100a
p8530
V\u103a
p8531
tp8532
I16
s(V\u102f
p8533
g44
g544
tp8534
I2
s(V\u103d
p8535
V\u101a
p8536
V\u103a
p8537
tp8538
I7
s(V\u1041
p8539
g44
V\u101b
p8540
tp8541
I2
s(V\u1032
p8542
g44
V\u101e
p8543
tp8544
I3
s(V\u103a
p8545
V\u1010
p8546
V\u1001
p8547
tp8548
I1
s(V\u101b
p8549
V\u1019
p8550
V\u1032
p8551
tp8552
I1
s(V\u1015
p8553
V\u103a
p8554
V\u101a
p8555
tp8556
I1
s(V\u101b
p8557
g44
V\u101b
p8558
tp8559
I1
s(V\u104a
p8560
g44
V\u1005
p8561
tp8562
I8
s(V\u1036
p8563
V\u101c
p8564
V\u1004
p8565
tp8566
I1
s(g454
V\u1021
p8567
V\u1010
p8568
tp8569
I1
s(V\u103a
p8570
V\u1038
p8571
g544
tp8572
I2
s(V\u103a
p8573
V\u1014
p8574
V\u1031
p8575
tp8576
I22
s(V\u102e
p8577
g44
V\u1000
p8578
tp8579
I2
s(V\u1005
p8580
V\u1036
p8581
V\u1016
p8582
tp8583
I1
s(g44
V\u101d
p8584
V\u1014
p8585
tp8586
I1
s(g44
V\u101b
p8587
V\u100a
p8588
tp8589
I1
s(V\u100c
p8590
V\u102c
p8591
V\u1014
p8592
tp8593
I4
s(g44
V\u1026
p8594
V\u1038
p8595
tp8596
I33
s(V\u1036
p8597
V\u1038
p8598
V\u101b
p8599
tp8600
I2
s(V\u1031
p8601
g44
V\u1019
p8602
tp8603
I2
s(V\u1037
p8604
g44
V\u101c
p8605
tp8606
I11
s(V\u1016
p8607
V\u102d
p8608
V\u102f
p8609
tp8610
I5
s(V\u103d
p8611
V\u1036
p8612
g44
tp8613
I1
s(V\u1038
p8614
V\u101b
p8615
V\u101f
p8616
tp8617
I1
s(V\u103a
p8618
V\u1011
p8619
V\u102d
p8620
tp8621
I1
s(V\u1037
p8622
V\u1019
p8623
V\u103b
p8624
tp8625
I4
s(V\u1016
p8626
V\u1000
p8627
V\u103a
p8628
tp8629
I17
s(V\u1019
p8630
V\u102e
p8631
V\u1038
p8632
tp8633
I68
s(V\u104b
p8634
V\u1000
p8635
V\u103b
p8636
tp8637
I1
s(g44
V\u1015
p8638
V\u103c
p8639
tp8640
I64
s(V\u1038
p8641
V\u1019
p8642
V\u100a
p8643
tp8644
I2
s(V\u103e
p8645
V\u1014
p8646
V\u103a
p8647
tp8648
I5
s(V\u1026
p8649
V\u1038
p8650
V\u1019
p8651
tp8652
I4
s(V\u1010
p8653
V\u102e
p8654
V\u1014
p8655
tp8656
I1
s(V\u102e
p8657
V\u1021
p8658
V\u1000
p8659
tp8660
I3
s(V\u1005
p8661
V\u103a
p8662
V\u1016
p8663
tp8664
I1
s(V\u103c
p8665
V\u102c
p8666
V\u1038
p8667
tp8668
I19
s(V\u1040
p8669
g4978
g454
tp8670
I2
s(g44
V\u201c
p8671
g44
tp8672
I1
s(V\u1031
p8673
g44
V\u1000
p8674
tp8675
I2
s(g44
g544
V\u1047
p8676
tp8677
I5
s(V\u101b
p8678
V\u1032
p8679
V\u101b
p8680
tp8681
I1
s(V\u102b
p8682
V\u1015
p8683
V\u1031
p8684
tp8685
I7
s(V\u101b
p8686
V\u102d
p8687
V\u1000
p8688
tp8689
I1
s(V\u1031
p8690
V\u1037
p8691
V\u1010
p8692
tp8693
I1
s(g454
g44
V\u1015
p8694
tp8695
I2
s(V\u1031
p8696
V\u1038
p8697
V\u101a
p8698
tp8699
I1
s(V\u1037
p8700
V\u1015
p8701
V\u102e
p8702
tp8703
I1
s(V\u1015
p8704
V\u103a
p8705
V\u101f
p8706
tp8707
I1
s(V\u102b
p8708
V\u1000
p8709
g44
tp8710
I3
s(V\u1005
p8711
V\u102e
p8712
V\u1015
p8713
tp8714
I9
s(V\u1014
p8715
V\u103a
p8716
g454
tp8717
I1
s(V\u1031
p8718
V\u1004
p8719
V\u103c
p8720
tp8721
I1
s(V\u102c
p8722
g44
V\u1043
p8723
tp8724
I1
s(g230
Vg
p8725
g1076
tp8726
I2
s(V\u1037
p8727
g44
g911
tp8728
I1
s(V\u1012
p8729
V\u102e
p8730
V\u101c
p8731
tp8732
I2
s(V\u1038
p8733
g44
g2272
tp8734
I2
s(V\u1014
p8735
V\u1031
p8736
V\u101b
p8737
tp8738
I21
s(g1076
g108
g44
tp8739
I2
s(V\u1032
p8740
V\u1037
p8741
V\u101c
p8742
tp8743
I1
s(V\u1036
p8744
V\u1038
p8745
V\u1016
p8746
tp8747
I5
s(V\u1038
p8748
V\u100a
p8749
V\u103d
p8750
tp8751
I1
s(V\u100a
p8752
V\u102c
p8753
V\u101b
p8754
tp8755
I3
s(V\u103a
p8756
g44
V\u1046
p8757
tp8758
I1
s(V\u1038
p8759
V\u1015
p8760
V\u1032
p8761
tp8762
I1
s(V\u1015
p8763
V\u102b
p8764
V\u1010
p8765
tp8766
I60
s(V\u102f
p8767
V\u1021
p8768
V\u1001
p8769
tp8770
I4
s(V\u102f
p8771
V\u1000
p8772
V\u103b
p8773
tp8774
I1
s(V\u1025
p8775
V\u1015
p8776
V\u1031
p8777
tp8778
I1
s(V\u102b
p8779
V\u1018
p8780
V\u1032
p8781
tp8782
I4
s(V\u2019
p8783
g44
V\u1015
p8784
tp8785
I1
s(V\u1005
p8786
V\u102c
p8787
V\u1015
p8788
tp8789
I1
s(g44
V\u1042
p8790
V\u1046
p8791
tp8792
I1
s(V\u1001
p8793
V\u103b
p8794
V\u1009
p8795
tp8796
I1
s(V\u1030
p8797
V\u1038
p8798
V\u1015
p8799
tp8800
I4
s(V\u103d
p8801
V\u1031
p8802
V\u1019
p8803
tp8804
I4
s(V\u1019
p8805
V\u102d
p8806
V\u1010
p8807
tp8808
I2
s(V\u102f
p8809
V\u101c
p8810
V\u1000
p8811
tp8812
I1
s(V\u104a
p8813
g44
V\u1000
p8814
tp8815
I4
s(V\u103e
p8816
V\u102c
p8817
V\u101b
p8818
tp8819
I3
s(V\u1030
p8820
V\u1000
p8821
V\u103c
p8822
tp8823
I1
s(V\u101c
p8824
V\u102c
p8825
V\u101b
p8826
tp8827
I1
s(g399
g554
g1076
tp8828
I1
s(V\u1038
p8829
V\u1005
p8830
V\u102e
p8831
tp8832
I4
s(V\u102c
p8833
V\u1038
p8834
V\u1021
p8835
tp8836
I20
s(V\u1040
p8837
g44
V\u1014
p8838
tp8839
I4
s(V\u1038
p8840
V\u1014
p8841
V\u103d
p8842
tp8843
I31
s(V\u103c
p8844
g44
V\u1014
p8845
tp8846
I1
s(V\u1015
p8847
V\u1031
p8848
V\u1014
p8849
tp8850
I1
s(g1509
g230
g8725
tp8851
I2
s(g2335
V\u2019
p8852
g1297
tp8853
I2
s(V\u103a
p8854
V\u1001
p8855
V\u102b
p8856
tp8857
I1
s(V\u1021
p8858
V\u100b
p8859
V\u1039
p8860
tp8861
I1
s(V\u1037
p8862
g544
g652
tp8863
I1
s(V\u102d
p8864
V\u102f
p8865
V\u1021
p8866
tp8867
I5
s(V\u102c
p8868
g44
g399
tp8869
I1
s(V\u1031
p8870
V\u101e
p8871
V\u1031
p8872
tp8873
I8
s(V\u101e
p8874
V\u101c
p8875
V\u1031
p8876
tp8877
I1
s(V\u1004
p8878
V\u103a
p8879
V\u1004
p8880
tp8881
I30
s(V\u102c
p8882
g44
V\u1019
p8883
tp8884
I14
s(V\u1005
p8885
V\u1036
p8886
V\u101f
p8887
tp8888
I1
s(V\u1015
p8889
V\u1036
p8890
g44
tp8891
I1
s(V\u102f
p8892
V\u1005
p8893
V\u102e
p8894
tp8895
I1
s(V\u103a
p8896
V\u1038
p8897
V\u1021
p8898
tp8899
I15
s(V\u102f
p8900
g44
V\u1005
p8901
tp8902
I2
s(g44
V\u1018
p8903
V\u103d
p8904
tp8905
I1
s(V\u103c
p8906
V\u1015
p8907
V\u102b
p8908
tp8909
I7
s(V\u1016
p8910
V\u103d
p8911
V\u1036
p8912
tp8913
I2
s(V\u102f
p8914
V\u1037
p8915
V\u1010
p8916
tp8917
I2
s(V\u1000
p8918
g44
V\u1012
p8919
tp8920
I1
s(g44
V\u1006
p8921
V\u1014
p8922
tp8923
I3
s(V\u1038
p8924
g44
g544
tp8925
I6
s(g589
g399
g44
tp8926
I1
s(V\u102f
p8927
V\u1038
p8928
V\u1000
p8929
tp8930
I10
s(V\u1010
p8931
V\u102e
p8932
V\u1000
p8933
tp8934
I4
s(g44
V\u1048
p8935
V\u1040
p8936
tp8937
I1
s(V\u102f
p8938
V\u1014
p8939
V\u103e
p8940
tp8941
I4
s(V\u101a
p8942
V\u1030
p8943
V\u101c
p8944
tp8945
I1
s(V\u1043
p8946
V\u1045
p8947
g454
tp8948
I1
s(V\u1042
p8949
V\u1040
p8950
V\u1041
p8951
tp8952
I7
s(V\u103a
p8953
V\u1037
p8954
V\u1014
p8955
tp8956
I1
s(V\u102c
p8957
g44
V\u1002
p8958
tp8959
I1
s(V\u1031
p8960
V\u101b
p8961
V\u1015
p8962
tp8963
I2
s(V\u101f
p8964
V\u102f
p8965
V\u1019
p8966
tp8967
I1
s(V\u101f
p8968
V\u102f
p8969
g44
tp8970
I16
s(V\u1016
p8971
V\u103d
p8972
V\u102c
p8973
tp8974
I1
s(V\u103a
p8975
g544
V\u1041
p8976
tp8977
I5
s(V\u101e
p8978
V\u102d
p8979
V\u102f
p8980
tp8981
I19
s(V\u1012
p8982
V\u1031
p8983
V\u1015
p8984
tp8985
I1
s(V\u1031
p8986
V\u1018
p8987
V\u1032
p8988
tp8989
I3
s(g652
g397
g454
tp8990
I1
s(g44
g1554
g176
tp8991
I2
s(V\u103b
p8992
V\u102d
p8993
V\u1014
p8994
tp8995
I5
s(V\u102e
p8996
g544
V\u1019
p8997
tp8998
I1
s(V\u102e
p8999
g544
g398
tp9000
I1
s(V\u102d
p9001
V\u1019
p9002
V\u102d
p9003
tp9004
I3
s(V\u1036
p9005
g44
V\u1021
p9006
tp9007
I1
s(V\u103c
p9008
V\u103d
p9009
V\u1031
p9010
tp9011
I2
s(V\u1019
p9012
V\u1015
p9013
V\u102b
p9014
tp9015
I3
s(V\u1001
p9016
V\u103b
p9017
V\u1014
p9018
tp9019
I1
s(V\u1001
p9020
V\u1036
p9021
V\u101c
p9022
tp9023
I1
s(V\u102f
p9024
V\u1014
p9025
V\u102d
p9026
tp9027
I2
s(V\u102b
p9028
V\u1038
p9029
V\u1019
p9030
tp9031
I1
s(V\u102c
p9032
V\u103a
p9033
V\u1019
p9034
tp9035
I21
s(g44
V\u101e
p9036
V\u1000
p9037
tp9038
I5
s(V\u102d
p9039
V\u101e
p9040
V\u100a
p9041
tp9042
I4
s(V\u102c
p9043
g44
V\u201c
p9044
tp9045
I2
s(g44
V\u101a
p9046
V\u1039
p9047
tp9048
I1
s(V\u103e
p9049
V\u102c
p9050
V\u1018
p9051
tp9052
I1
s(V\u1006
p9053
V\u1014
p9054
V\u103a
p9055
tp9056
I5
s(V\u101e
p9057
V\u103c
p9058
V\u1007
p9059
tp9060
I2
s(V\u103c
p9061
V\u1010
p9062
V\u103a
p9063
tp9064
I6
s(g44
V\u101b
p9065
V\u102c
p9066
tp9067
I14
s(g554
g409
g2798
tp9068
I1
s(V\u1037
p9069
V\u101b
p9070
V\u102c
p9071
tp9072
I1
s(V\u1026
p9073
V\u1038
p9074
V\u101b
p9075
tp9076
I6
s(g44
V\u1016
p9077
V\u103d
p9078
tp9079
I14
s(V\u103d
p9080
V\u1004
p9081
V\u1037
p9082
tp9083
I4
s(V\u1019
p9084
V\u103c
p9085
V\u103e
p9086
tp9087
I3
s(V\u102e
p9088
V\u101c
p9089
V\u102c
p9090
tp9091
I7
s(V\u103e
p9092
V\u102c
p9093
V\u1038
p9094
tp9095
I6
s(V\u102f
p9096
V\u101b
p9097
V\u1019
p9098
tp9099
I1
s(g44
g911
g187
tp9100
I1
s(V\u103c
p9101
V\u1004
p9102
V\u1037
p9103
tp9104
I3
s(V\u103b
p9105
V\u1006
p9106
V\u102f
p9107
tp9108
I1
s(V\u1005
p9109
V\u1000
p9110
V\u102c
p9111
tp9112
I1
s(V\u102f
p9113
V\u1002
p9114
V\u1039
p9115
tp9116
I1
s(V\u103d
p9117
V\u101c
p9118
V\u103e
p9119
tp9120
I1
s(V\u1038
p9121
V\u1021
p9122
V\u1005
p9123
tp9124
I2
s(V\u1019
p9125
V\u1000
p9126
V\u1031
p9127
tp9128
I1
s(V\u103e
p9129
V\u1004
p9130
V\u103a
p9131
tp9132
I39
s(g44
V\u1041
p9133
V\u1046
p9134
tp9135
I3
s(V\u1010
p9136
V\u1000
p9137
V\u101a
p9138
tp9139
I2
s(V\u102d
p9140
V\u102f
p9141
V\u1000
p9142
tp9143
I51
s(V\u101c
p9144
V\u1032
p9145
V\u201d
p9146
tp9147
I1
s(V\u1038
p9148
g44
V\u101e
p9149
tp9150
I12
s(V\u1048
p9151
g44
V\u1014
p9152
tp9153
I1
s(V\u1038
p9154
V\u101c
p9155
V\u1030
p9156
tp9157
I2
s(V\u103d
p9158
V\u102c
p9159
g44
tp9160
I5
s(V\u102c
p9161
V\u1001
p9162
V\u1032
p9163
tp9164
I6
s(V\u102e
p9165
V\u101e
p9166
V\u100a
p9167
tp9168
I2
s(g44
V\u1019
p9169
V\u101f
p9170
tp9171
I6
s(V\u1004
p9172
V\u103a
p9173
V\u100a
p9174
tp9175
I1
s(V\u102e
p9176
V\u1038
p9177
V\u1014
p9178
tp9179
I2
s(V\u103e
p9180
g44
V\u1021
p9181
tp9182
I5
s(V\u1037
p9183
V\u1010
p9184
V\u101a
p9185
tp9186
I5
s(V\u1042
p9187
V\u1041
p9188
g454
tp9189
I1
s(V\u1036
p9190
V\u101e
p9191
V\u103d
p9192
tp9193
I1
s(V\u1037
p9194
V\u101c
p9195
V\u1031
p9196
tp9197
I1
s(V\u103c
p9198
V\u1006
p9199
V\u1032
p9200
tp9201
I1
s(V\u1000
p9202
V\u101a
p9203
V\u103a
p9204
tp9205
I2
s(V\u1032
p9206
V\u1001
p9207
V\u103c
p9208
tp9209
I1
s(V\u103c
p9210
V\u102e
p9211
V\u101c
p9212
tp9213
I1
s(V\u1038
p9214
V\u101e
p9215
V\u103d
p9216
tp9217
I7
s(V\u1038
p9218
V\u1015
p9219
V\u1005
p9220
tp9221
I2
s(V\u103a
p9222
V\u1015
p9223
V\u1031
p9224
tp9225
I16
s(V\u103a
p9226
V\u1010
p9227
V\u1015
p9228
tp9229
I3
s(V\u1018
p9230
V\u1030
p9231
V\u1038
p9232
tp9233
I8
s(V\u1015
p9234
V\u103a
p9235
V\u1004
p9236
tp9237
I3
s(V\u101a
p9238
V\u103a
p9239
V\u1006
p9240
tp9241
I7
s(V\u1015
p9242
V\u103d
p9243
V\u1004
p9244
tp9245
I2
s(V\u103a
p9246
V\u101e
p9247
V\u1036
p9248
tp9249
I2
s(V\u1038
p9250
V\u1000
p9251
g44
tp9252
I18
s(V\u1031
p9253
g44
g187
tp9254
I1
s(V\u1010
p9255
V\u102c
p9256
V\u1011
p9257
tp9258
I1
s(V\u1015
p9259
V\u103a
p9260
V\u1006
p9261
tp9262
I4
s(V\u1014
p9263
V\u103a
p9264
V\u1010
p9265
tp9266
I10
s(V\u1037
p9267
V\u1016
p9268
V\u103c
p9269
tp9270
I5
s(V\u100f
p9271
V\u102c
p9272
V\u101b
p9273
tp9274
I1
s(V\u1031
p9275
V\u1037
p9276
V\u1021
p9277
tp9278
I2
s(V\u102c
p9279
V\u1001
p9280
V\u103d
p9281
tp9282
I2
s(V\u1006
p9283
V\u103d
p9284
V\u1031
p9285
tp9286
I31
s(V\u103a
p9287
g44
V\u1021
p9288
tp9289
I39
s(g399
g399
g1759
tp9290
I1
s(V\u1015
p9291
V\u103c
p9292
V\u102c
p9293
tp9294
I3
s(V\u1000
p9295
V\u1015
p9296
V\u103c
p9297
tp9298
I2
s(V\u1004
p9299
V\u103d
p9300
V\u1031
p9301
tp9302
I6
s(V\u103e
p9303
V\u102f
p9304
V\u1006
p9305
tp9306
I2
s(V\u104e
p9307
V\u1004
p9308
V\u103a
p9309
tp9310
I3
s(V\u1038
p9311
V\u1019
p9312
V\u1015
p9313
tp9314
I1
s(V\u1036
p9315
V\u1038
p9316
V\u1018
p9317
tp9318
I1
s(V\u103b
p9319
V\u1019
p9320
V\u103a
p9321
tp9322
I31
s(V\u1038
p9323
V\u101b
p9324
V\u1001
p9325
tp9326
I1
s(V\u1015
p9327
V\u103c
p9328
V\u103f
p9329
tp9330
I2
s(V\u1000
p9331
g44
V\u101c
p9332
tp9333
I3
s(V\u103c
p9334
V\u102f
p9335
V\u101b
p9336
tp9337
I2
s(g44
V\u101b
p9338
V\u102f
p9339
tp9340
I1
s(g44
V\u1000
p9341
V\u101c
p9342
tp9343
I5
s(V\u103e
p9344
V\u102d
p9345
V\u1015
p9346
tp9347
I12
s(V\u1042
p9348
V\u1041
p9349
g44
tp9350
I2
s(g44
g352
g4140
tp9351
I1
s(V\u1006
p9352
V\u1014
p9353
V\u1039
p9354
tp9355
I7
s(g44
V\u201c
p9356
V\u1019
p9357
tp9358
I2
s(V\u102f
p9359
V\u1038
p9360
g44
tp9361
I5
s(V\u1021
p9362
V\u1019
p9363
V\u103c
p9364
tp9365
I8
s(V\u1031
p9366
V\u1038
p9367
g544
tp9368
I1
s(V\u102f
p9369
V\u101c
p9370
V\u1031
p9371
tp9372
I1
s(V\u1018
p9373
V\u1032
p9374
V\u1015
p9375
tp9376
I1
s(V\u1010
p9377
V\u102e
p9378
V\u1038
p9379
tp9380
I1
s(V\u103a
p9381
g454
g44
tp9382
I1
s(V\u104a
p9383
V\u1010
p9384
V\u102d
p9385
tp9386
I1
s(g44
V\u1014
p9387
V\u103e
p9388
tp9389
I18
s(V\u1021
p9390
V\u101c
p9391
V\u102c
p9392
tp9393
I5
s(g544
V\u1042
p9394
g454
tp9395
I1
s(g44
V\u101a
p9396
V\u1030
p9397
tp9398
I3
s(V\u103a
p9399
g44
V\u1042
p9400
tp9401
I3
s(V\u1005
p9402
V\u102e
p9403
V\u1021
p9404
tp9405
I4
s(V\u201c
p9406
V\u1010
p9407
V\u102d
p9408
tp9409
I3
s(V\u102d
p9410
g44
V\u1042
p9411
tp9412
I1
s(g44
V\u101b
p9413
V\u1031
p9414
tp9415
I16
s(V\u1045
p9416
V\u1042
p9417
g44
tp9418
I1
s(V\u201c
p9419
V\u1021
p9420
V\u1001
p9421
tp9422
I1
s(V\u1010
p9423
V\u1005
p9424
V\u103a
p9425
tp9426
I12
s(V\u102c
p9427
V\u1010
p9428
V\u1030
p9429
tp9430
I5
s(g44
V\u1000
p9431
V\u103d
p9432
tp9433
I1
s(V\u1010
p9434
V\u1014
p9435
V\u100a
p9436
tp9437
I1
s(V\u101e
p9438
V\u102c
p9439
V\u1016
p9440
tp9441
I1
s(V\u103a
p9442
g454
V\u104a
p9443
tp9444
I1
s(V\u1038
p9445
V\u101e
p9446
V\u1018
p9447
tp9448
I3
s(V\u102f
p9449
V\u1010
p9450
V\u100a
p9451
tp9452
I4
s(V\u102d
p9453
V\u1000
p9454
V\u102d
p9455
tp9456
I1
s(V\u1015
p9457
V\u103a
p9458
g544
tp9459
I1
s(V\u103d
p9460
V\u1014
p9461
V\u103a
p9462
tp9463
I45
s(V\u1006
p9464
V\u1015
p9465
V\u103a
p9466
tp9467
I1
s(V\u101c
p9468
V\u1031
p9469
g44
tp9470
I1
s(V\u101f
p9471
V\u102c
p9472
g454
tp9473
I1
s(V\u101e
p9474
V\u102d
p9475
V\u1010
p9476
tp9477
I1
s(V\u1012
p9478
V\u101b
p9479
V\u103e
p9480
tp9481
I1
s(V\u1038
p9482
V\u101b
p9483
V\u100a
p9484
tp9485
I1
s(V\u103a
p9486
V\u1000
p9487
V\u102c
p9488
tp9489
I1
s(V\u1030
p9490
V\u1038
p9491
V\u1001
p9492
tp9493
I2
s(V\u103c
p9494
V\u103d
p9495
V\u101c
p9496
tp9497
I1
s(V\u102e
p9498
V\u1019
p9499
V\u102d
p9500
tp9501
I14
s(V\u102b
p9502
V\u1038
p9503
V\u101b
p9504
tp9505
I1
s(V\u101b
p9506
V\u1010
p9507
V\u101a
p9508
tp9509
I2
s(V\u104a
p9510
g44
V\u1014
p9511
tp9512
I3
s(V\u102c
p9513
V\u1006
p9514
V\u1031
p9515
tp9516
I1
s(V\u103a
p9517
V\u1014
p9518
V\u1000
p9519
tp9520
I12
s(V\u1048
p9521
g454
V\u104a
p9522
tp9523
I1
s(V\u1026
p9524
V\u1038
p9525
V\u1015
p9526
tp9527
I2
s(V\u103c
p9528
V\u1032
p9529
V\u1014
p9530
tp9531
I1
s(V\u103a
p9532
V\u1038
p9533
V\u104b
p9534
tp9535
I1
s(g44
V\u1010
p9536
V\u1004
p9537
tp9538
I7
s(V\u102d
p9539
V\u100f
p9540
V\u103a
p9541
tp9542
I1
s(V\u102c
p9543
V\u1014
p9544
V\u1010
p9545
tp9546
I1
s(V\u102f
p9547
V\u1021
p9548
V\u1006
p9549
tp9550
I1
s(V\u102c
p9551
V\u103a
p9552
V\u101f
p9553
tp9554
I1
s(V\u101b
p9555
V\u1031
p9556
V\u1000
p9557
tp9558
I1
s(g285
V\u1019
p9559
V\u1021
p9560
tp9561
I1
s(V\u103a
p9562
V\u1038
p9563
V\u101e
p9564
tp9565
I29
s(V\u101c
p9566
V\u1032
p9567
g44
tp9568
I4
s(V\u103a
p9569
V\u101b
p9570
V\u102c
p9571
tp9572
I18
s(V\u103a
p9573
V\u101d
p9574
V\u1031
p9575
tp9576
I1
s(V\u1037
p9577
g44
V\u1010
p9578
tp9579
I11
s(V\u103a
p9580
g44
V\u1014
p9581
tp9582
I13
s(V\u1041
p9583
V\u1041
p9584
g44
tp9585
I1
s(V\u1037
p9586
V\u1004
p9587
V\u103c
p9588
tp9589
I1
s(V\u1038
p9590
g44
V\u1041
p9591
tp9592
I1
s(V\u1042
p9593
V\u1041
p9594
V\u1049
p9595
tp9596
I1
s(g454
g44
V\u1001
p9597
tp9598
I3
s(V\u1042
p9599
V\u1047
p9600
g454
tp9601
I1
s(V\u103c
p9602
V\u102d
p9603
V\u102f
p9604
tp9605
I28
s(g44
V\u1016
p9606
V\u1000
p9607
tp9608
I11
s(V\u102c
p9609
V\u1018
p9610
V\u102c
p9611
tp9612
I1
s(V\u103b
p9613
V\u1009
p9614
V\u103a
p9615
tp9616
I1
s(V\u103a
p9617
V\u1000
p9618
V\u1014
p9619
tp9620
I2
s(V\u1031
p9621
V\u1000
p9622
V\u1039
p9623
tp9624
I1
s(V\u1019
p9625
V\u102d
p9626
V\u102f
p9627
tp9628
I29
s(g187
g399
g1554
tp9629
I7
s(g44
V\u101e
p9630
V\u103d
p9631
tp9632
I2
s(V\u103e
p9633
V\u102d
p9634
V\u101b
p9635
tp9636
I6
s(g611
g44
V\u1001
p9637
tp9638
I1
s(V\u1012
p9639
V\u1021
p9640
V\u1019
p9641
tp9642
I1
s(V\u1037
p9643
V\u1001
p9644
V\u103d
p9645
tp9646
I8
s(g1297
g231
g108
tp9647
I1
s(V\u1048
p9648
g454
g44
tp9649
I4
s(V\u101f
p9650
V\u102d
p9651
V\u102f
p9652
tp9653
I3
s(V\u1015
p9654
V\u1021
p9655
V\u102d
p9656
tp9657
I1
s(V\u102f
p9658
V\u1014
p9659
V\u1031
p9660
tp9661
I4
s(V\u103b
p9662
V\u102c
p9663
g44
tp9664
I1
s(V\u1037
p9665
V\u101b
p9666
V\u103e
p9667
tp9668
I4
s(V\u103a
p9669
V\u101e
p9670
V\u1010
p9671
tp9672
I1
s(V\u1038
p9673
V\u1021
p9674
V\u1001
p9675
tp9676
I1
s(V\u1004
p9677
V\u103a
p9678
V\u1011
p9679
tp9680
I5
s(V\u1005
p9681
V\u103d
p9682
V\u1014
p9683
tp9684
I3
s(V\u1037
p9685
V\u1012
p9686
V\u102e
p9687
tp9688
I1
s(V\u1043
p9689
V\u1048
p9690
g454
tp9691
I1
s(V\u1037
p9692
V\u101e
p9693
V\u1030
p9694
tp9695
I1
s(V\u102c
p9696
V\u1016
p9697
V\u1000
p9698
tp9699
I1
s(V\u1038
p9700
V\u1014
p9701
V\u102c
p9702
tp9703
I1
s(g409
g3632
g1509
tp9704
I1
s(V\u201c
p9705
V\u1021
p9706
V\u102d
p9707
tp9708
I3
s(V\u1037
p9709
V\u1019
p9710
V\u1000
p9711
tp9712
I1
s(V\u101c
p9713
V\u103d
p9714
V\u1014
p9715
tp9716
I5
s(V\u1000
p9717
V\u103a
p9718
V\u1010
p9719
tp9720
I37
s(V\u1037
p9721
g44
V\u100a
p9722
tp9723
I2
s(g44
g652
g1337
tp9724
I2
s(V\u1005
p9725
V\u102e
p9726
V\u1038
p9727
tp9728
I6
s(V\u1037
p9729
V\u101e
p9730
V\u102f
p9731
tp9732
I1
s(V\u1000
p9733
g44
V\u101e
p9734
tp9735
I3
s(V\u102f
p9736
V\u1000
p9737
V\u1039
p9738
tp9739
I3
s(g8725
g1076
g108
tp9740
I2
s(V\u1005
p9741
V\u102e
p9742
V\u1012
p9743
tp9744
I3
s(V\u103a
p9745
V\u104a
p9746
g44
tp9747
I14
s(V\u102d
p9748
V\u1015
p9749
V\u1031
p9750
tp9751
I2
s(g454
V\u1000
p9752
V\u102d
p9753
tp9754
I2
s(V\u1004
p9755
V\u103a
p9756
V\u1017
p9757
tp9758
I1
s(V\u104b
p9759
g44
V\u1021
p9760
tp9761
I7
s(V\u101b
p9762
V\u103d
p9763
V\u1000
p9764
tp9765
I7
s(V\u1049
p9766
V\u1049
p9767
V\u1047
p9768
tp9769
I1
s(V\u1037
p9770
V\u103a
p9771
V\u1016
p9772
tp9773
I2
s(V\u102e
p9774
V\u1000
p9775
V\u103c
p9776
tp9777
I2
s(V\u103c
p9778
V\u100a
p9779
V\u1037
p9780
tp9781
I2
s(V\u102b
p9782
g44
V\u101b
p9783
tp9784
I1
s(V\u1031
p9785
V\u1038
p9786
V\u101b
p9787
tp9788
I9
s(V\u101a
p9789
V\u100a
p9790
V\u1031
p9791
tp9792
I1
s(V\u1038
p9793
V\u101b
p9794
V\u1014
p9795
tp9796
I3
s(V\u1000
p9797
V\u1010
p9798
V\u1031
p9799
tp9800
I5
s(g4140
g554
g1077
tp9801
I2
s(g44
V\u1015
p9802
V\u1011
p9803
tp9804
I2
s(V\u102c
p9805
V\u101b
p9806
g44
tp9807
I1
s(V\u1010
p9808
V\u103a
p9809
V\u1006
p9810
tp9811
I1
s(V\u1021
p9812
V\u1015
p9813
V\u103c
p9814
tp9815
I5
s(V\u103b
p9816
V\u1000
p9817
V\u103a
p9818
tp9819
I32
s(V\u1021
p9820
V\u1014
p9821
V\u100a
p9822
tp9823
I1
s(V\u1014
p9824
V\u1031
p9825
g44
tp9826
I2
s(V\u1016
p9827
V\u102d
p9828
V\u1014
p9829
tp9830
I3
s(V\u102d
p9831
V\u102f
p9832
g454
tp9833
I1
s(V\u1001
p9834
V\u102f
p9835
V\u1000
p9836
tp9837
I1
s(V\u102c
p9838
V\u1014
p9839
V\u101a
p9840
tp9841
I1
s(V\u102b
p9842
V\u1010
p9843
V\u102e
p9844
tp9845
I20
s(V\u102c
p9846
V\u103a
p9847
V\u1015
p9848
tp9849
I3
s(V\u103e
p9850
V\u102d
p9851
V\u101c
p9852
tp9853
I2
s(V\u1049
p9854
g454
g44
tp9855
I1
s(V\u102f
p9856
V\u101c
p9857
V\u102f
p9858
tp9859
I2
s(V\u101b
p9860
V\u1031
p9861
g44
tp9862
I4
s(V\u1038
p9863
V\u1015
p9864
V\u102e
p9865
tp9866
I2
s(V\u1038
p9867
V\u1010
p9868
V\u1000
p9869
tp9870
I1
s(V\u1032
p9871
V\u101e
p9872
V\u103d
p9873
tp9874
I1
s(g44
V\u101f
p9875
V\u102f
p9876
tp9877
I5
s(V\u1038
p9878
V\u1016
p9879
V\u102d
p9880
tp9881
I1
s(V\u101e
p9882
V\u1019
p9883
V\u103b
p9884
tp9885
I2
s(V\u1031
p9886
V\u1010
p9887
V\u1004
p9888
tp9889
I1
s(V\u1010
p9890
V\u102c
p9891
V\u1021
p9892
tp9893
I5
s(V\u1000
p9894
g44
V\u1041
p9895
tp9896
I2
s(V\u1004
p9897
V\u103a
p9898
V\u104a
p9899
tp9900
I5
s(V\u1007
p9901
V\u102c
p9902
V\u1000
p9903
tp9904
I1
s(V\u1005
p9905
V\u102f
p9906
V\u1004
p9907
tp9908
I3
s(V\u1031
p9909
V\u102b
p9910
V\u103a
p9911
tp9912
I9
s(g44
V\u1010
p9913
V\u102e
p9914
tp9915
I1
s(V\u1032
p9916
V\u1037
p9917
V\u1018
p9918
tp9919
I1
s(V\u1038
p9920
V\u1021
p9921
V\u102c
p9922
tp9923
I9
s(g1297
g454
g44
tp9924
I1
s(g44
V\u1012
p9925
V\u102f
p9926
tp9927
I2
s(V\u1001
p9928
V\u1019
p9929
V\u103b
p9930
tp9931
I2
s(V\u101c
p9932
V\u1032
p9933
V\u104b
p9934
tp9935
I1
s(g44
V\u1019
p9936
V\u103d
p9937
tp9938
I16
s(V\u1019
p9939
V\u103e
p9940
g44
tp9941
I37
s(V\u101a
p9942
V\u1030
p9943
V\u1000
p9944
tp9945
I2
s(V\u1014
p9946
V\u103e
p9947
V\u1004
p9948
tp9949
I27
s(g1554
g44
V\u1000
p9950
tp9951
I1
s(g409
g1509
g230
tp9952
I2
s(V\u1021
p9953
V\u101b
p9954
V\u1015
p9955
tp9956
I1
s(V\u102f
p9957
V\u1037
p9958
V\u1001
p9959
tp9960
I2
s(V\u1019
p9961
V\u1010
p9962
V\u1030
p9963
tp9964
I4
s(V\u1046
p9965
V\u1046
p9966
g44
tp9967
I1
s(g44
V\u1002
p9968
V\u103b
p9969
tp9970
I2
s(V\u1010
p9971
V\u1001
p9972
V\u102f
p9973
tp9974
I4
s(V\u1037
p9975
g44
V\u1006
p9976
tp9977
I4
s(V\u1019
p9978
V\u103a
p9979
V\u1019
p9980
tp9981
I2
s(g44
V\u1010
p9982
V\u1032
p9983
tp9984
I1
s(g44
V\u101a
p9985
V\u102f
p9986
tp9987
I1
s(V\u102f
p9988
g44
V\u1019
p9989
tp9990
I5
s(g285
V\u1019
p9991
V\u1010
p9992
tp9993
I1
s(V\u1036
p9994
V\u101e
p9995
V\u100f
p9996
tp9997
I1
s(V\u102c
p9998
V\u101a
p9999
V\u1014
p10000
tp10001
I9
s(V\u1037
p10002
V\u1021
p10003
V\u102c
p10004
tp10005
I2
s(V\u102d
p10006
V\u1000
p10007
V\u1014
p10008
tp10009
I1
s(V\u1012
p10010
V\u102f
p10011
V\u1000
p10012
tp10013
I3
s(V\u1036
p10014
V\u1037
p10015
V\u101e
p10016
tp10017
I1
s(V\u1037
p10018
V\u1021
p10019
V\u101b
p10020
tp10021
I4
s(V\u1037
p10022
g44
V\u1021
p10023
tp10024
I49
s(g611
g44
V\u101e
p10025
tp10026
I1
s(V\u1031
p10027
V\u102c
p10028
V\u103a
p10029
tp10030
I77
s(V\u103a
p10031
V\u1011
p10032
V\u1032
p10033
tp10034
I3
s(V\u1010
p10035
V\u101d
p10036
V\u103e
p10037
tp10038
I1
s(V\u1021
p10039
V\u102d
p10040
V\u1015
p10041
tp10042
I7
s(g454
g44
V\u1000
p10043
tp10044
I6
s(V\u1005
p10045
V\u103a
p10046
V\u101e
p10047
tp10048
I18
s(V\u103a
p10049
V\u1014
p10050
V\u1032
p10051
tp10052
I4
s(V\u1044
p10053
g454
g44
tp10054
I2
s(g44
V\u1048
p10055
g44
tp10056
I4
s(V\u1014
p10057
V\u102f
p10058
V\u1010
p10059
tp10060
I1
s(V\u1016
p10061
V\u103c
p10062
V\u1004
p10063
tp10064
I13
s(V\u103e
p10065
V\u102f
p10066
V\u1014
p10067
tp10068
I14
s(V\u1001
p10069
V\u103b
p10070
V\u102d
p10071
tp10072
I8
s(V\u1038
p10073
V\u101e
p10074
V\u1031
p10075
tp10076
I8
s(V\u1013
p10077
V\u102d
p10078
V\u1000
p10079
tp10080
I3
s(V\u103c
p10081
V\u101b
p10082
V\u1000
p10083
tp10084
I2
s(V\u1021
p10085
V\u1014
p10086
V\u1031
p10087
tp10088
I9
s(g44
V\u1021
p10089
V\u1011
p10090
tp10091
I10
s(V\u1014
p10092
V\u103a
p10093
V\u1005
p10094
tp10095
I4
s(g544
g177
g230
tp10096
I4
s(V\u1005
p10097
V\u1009
p10098
V\u103a
p10099
tp10100
I15
s(V\u102d
p10101
V\u1010
p10102
V\u103a
p10103
tp10104
I8
s(V\u102c
p10105
V\u100a
p10106
V\u102e
p10107
tp10108
I1
s(V\u103d
p10109
V\u1032
p10110
V\u104c
p10111
tp10112
I3
s(V\u102c
p10113
V\u101a
p10114
V\u1004
p10115
tp10116
I1
s(V\u100d
p10117
V\u1021
p10118
V\u101c
p10119
tp10120
I1
s(V\u101a
p10121
V\u103a
p10122
V\u101b
p10123
tp10124
I8
s(g44
V\u1015
p10125
V\u103d
p10126
tp10127
I4
s(V\u1019
p10128
V\u102c
p10129
V\u1014
p10130
tp10131
I10
s(V\u101b
p10132
V\u1000
p10133
g44
tp10134
I1
s(V\u1031
p10135
V\u1010
p10136
V\u103d
p10137
tp10138
I1
s(V\u1037
p10139
V\u1019
p10140
V\u103c
p10141
tp10142
I2
s(V\u1031
p10143
V\u1038
p10144
V\u1002
p10145
tp10146
I2
s(V\u102e
p10147
V\u1038
p10148
V\u1000
p10149
tp10150
I3
s(V\u103a
p10151
V\u1018
p10152
V\u1000
p10153
tp10154
I2
s(V\u102e
p10155
V\u1021
p10156
V\u1001
p10157
tp10158
I2
s(V\u1004
p10159
V\u103a
p10160
V\u1038
p10161
tp10162
I246
s(V\u102e
p10163
g544
g352
tp10164
I3
s(V\u102d
p10165
V\u1000
p10166
V\u1021
p10167
tp10168
I1
s(V\u1015
p10169
V\u102e
p10170
V\u1038
p10171
tp10172
I15
s(V\u1031
p10173
V\u1038
p10174
V\u1019
p10175
tp10176
I12
s(V\u1038
p10177
V\u101b
p10178
V\u104a
p10179
tp10180
I1
s(V\u1031
p10181
V\u101b
p10182
V\u102d
p10183
tp10184
I1
s(V\u1038
p10185
g544
g398
tp10186
I1
s(V\u1018
p10187
V\u102c
p10188
g44
tp10189
I2
s(V\u2019
p10190
g44
V\u101f
p10191
tp10192
I1
s(V\u1037
p10193
V\u103a
p10194
V\u1010
p10195
tp10196
I2
s(V\u1038
p10197
V\u1021
p10198
V\u1019
p10199
tp10200
I5
s(V\u1031
p10201
V\u1012
p10202
V\u1014
p10203
tp10204
I1
s(V\u1032
p10205
V\u1037
p10206
V\u1001
p10207
tp10208
I9
s(V\u1001
p10209
V\u102f
p10210
g44
tp10211
I4
s(V\u1036
p10212
V\u101b
p10213
V\u101e
p10214
tp10215
I2
s(V\u101a
p10216
V\u103a
p10217
V\u1010
p10218
tp10219
I9
s(V\u1006
p10220
V\u100b
p10221
V\u1039
p10222
tp10223
I1
s(V\u1010
p10224
V\u103a
p10225
V\u101b
p10226
tp10227
I5
s(V\u103a
p10228
V\u101b
p10229
g44
tp10230
I1
s(V\u1000
p10231
V\u103c
p10232
V\u101e
p10233
tp10234
I8
s(V\u103c
p10235
V\u1010
p10236
V\u101a
p10237
tp10238
I2
s(V\u102b
p10239
V\u103a
p10240
V\u1015
p10241
tp10242
I1
s(V\u1038
p10243
V\u101b
p10244
V\u1016
p10245
tp10246
I1
s(V\u103a
p10247
g44
V\u1000
p10248
tp10249
I18
s(V\u103a
p10250
g544
V\u1043
p10251
tp10252
I1
s(V\u1004
p10253
V\u103a
p10254
V\u101e
p10255
tp10256
I14
s(V\u1030
p10257
V\u1026
p10258
V\u1038
p10259
tp10260
I4
s(V\u1010
p10261
V\u102e
p10262
V\u101e
p10263
tp10264
I2
s(V\u102f
p10265
g44
V\u101c
p10266
tp10267
I4
s(V\u1038
p10268
V\u104b
p10269
g44
tp10270
I3
s(V\u1000
p10271
g44
g544
tp10272
I1
s(g176
g2948
g176
tp10273
I2
s(V\u1038
p10274
V\u1021
p10275
V\u101a
p10276
tp10277
I1
s(g44
V\u101b
p10278
V\u101b
p10279
tp10280
I4
s(V\u1038
p10281
g44
V\u1001
p10282
tp10283
I8
s(V\u102f
p10284
g44
V\u1010
p10285
tp10286
I7
s(V\u1032
p10287
V\u101b
p10288
V\u102f
p10289
tp10290
I4
s(V\u1032
p10291
V\u1019
p10292
V\u1032
p10293
tp10294
I2
s(g352
g230
g409
tp10295
I1
s(V\u1031
p10296
g44
V\u101a
p10297
tp10298
I2
s(V\u101a
p10299
V\u1030
p10300
g44
tp10301
I3
s(V\u1009
p10302
V\u103a
p10303
V\u1010
p10304
tp10305
I2
s(V\u1015
p10306
V\u1031
p10307
V\u1000
p10308
tp10309
I1
s(V\u101c
p10310
V\u102c
p10311
V\u101c
p10312
tp10313
I1
s(V\u102f
p10314
g44
V\u1002
p10315
tp10316
I1
s(V\u102b
p10317
V\u101e
p10318
V\u1031
p10319
tp10320
I2
s(V\u1002
p10321
V\u1005
p10322
V\u103a
p10323
tp10324
I1
s(V\u1036
p10325
V\u1011
p10326
V\u1000
p10327
tp10328
I1
s(V\u1005
p10329
V\u1019
p10330
V\u103e
p10331
tp10332
I1
s(V\u1039
p10333
V\u1005
p10334
V\u1000
p10335
tp10336
I4
s(V\u101b
p10337
V\u102f
p10338
V\u1036
p10339
tp10340
I5
s(V\u1000
p10341
V\u103a
p10342
V\u2019
p10343
tp10344
I1
s(V\u1045
p10345
g44
V\u1021
p10346
tp10347
I5
s(V\u1011
p10348
V\u101d
p10349
V\u102e
p10350
tp10351
I3
s(V\u104a
p10352
V\u1015
p10353
V\u103c
p10354
tp10355
I3
s(g44
V\u2018
p10356
V\u101d
p10357
tp10358
I2
s(V\u1011
p10359
V\u102d
p10360
g44
tp10361
I2
s(V\u1038
p10362
V\u1019
p10363
V\u101b
p10364
tp10365
I4
s(V\u1026
p10366
V\u1038
p10367
V\u101f
p10368
tp10369
I2
s(V\u1037
p10370
V\u1015
p10371
V\u1032
p10372
tp10373
I2
s(V\u1019
p10374
V\u101b
p10375
V\u103d
p10376
tp10377
I1
s(V\u1036
p10378
V\u1025
p10379
V\u1015
p10380
tp10381
I2
s(g397
g454
V\u104c
p10382
tp10383
I1
s(g454
V\u1019
p10384
V\u103e
p10385
tp10386
I4
s(V\u1004
p10387
V\u103a
p10388
V\u1005
p10389
tp10390
I27
s(V\u102c
p10391
g44
V\u101a
p10392
tp10393
I1
s(V\u1005
p10394
V\u1036
p10395
V\u101e
p10396
tp10397
I1
s(V\u1038
p10398
V\u101b
p10399
g44
tp10400
I3
s(V\u1030
p10401
g44
V\u1006
p10402
tp10403
I1
s(V\u1010
p10404
V\u1015
p10405
V\u103a
p10406
tp10407
I10
s(V\u102c
p10408
V\u1000
p10409
V\u1010
p10410
tp10411
I1
s(V\u100a
p10412
V\u103a
p10413
V\u1001
p10414
tp10415
I1
s(V\u102f
p10416
V\u1038
p10417
V\u1001
p10418
tp10419
I2
s(V\u103c
p10420
V\u1005
p10421
V\u103a
p10422
tp10423
I74
s(V\u101e
p10424
V\u1018
p10425
V\u1031
p10426
tp10427
I13
s(V\u101b
p10428
V\u1014
p10429
V\u103e
p10430
tp10431
I1
s(V\u101b
p10432
V\u1015
p10433
V\u102b
p10434
tp10435
I10
s(V\u101b
p10436
V\u101c
p10437
V\u1012
p10438
tp10439
I1
s(g44
g544
g187
tp10440
I1
s(g652
g1554
g44
tp10441
I1
s(V\u102f
p10442
V\u1010
p10443
V\u1032
p10444
tp10445
I5
s(V\u1021
p10446
V\u101c
p10447
V\u103e
p10448
tp10449
I1
s(V\u1014
p10450
V\u103a
p10451
V\u1038
p10452
tp10453
I42
s(V\u102c
p10454
V\u103a
p10455
V\u1016
p10456
tp10457
I1
s(V\u1042
p10458
V\u1046
p10459
g44
tp10460
I1
s(V\u103c
p10461
V\u1015
p10462
V\u102e
p10463
tp10464
I1
s(V\u1018
p10465
V\u101a
p10466
V\u103a
p10467
tp10468
I7
s(V\u101b
p10469
V\u103d
p10470
V\u1036
p10471
tp10472
I1
s(V\u1019
p10473
V\u1001
p10474
V\u1036
p10475
tp10476
I6
s(V\u1010
p10477
V\u103a
p10478
V\u1015
p10479
tp10480
I8
s(V\u1019
p10481
V\u1032
p10482
V\u1037
p10483
tp10484
I13
s(V\u1032
p10485
V\u1015
p10486
V\u103c
p10487
tp10488
I4
s(V\u103a
p10489
V\u104b
p10490
V\u1010
p10491
tp10492
I1
s(V\u101c
p10493
V\u103e
p10494
V\u102f
p10495
tp10496
I2
s(V\u102c
p10497
V\u1004
p10498
V\u1037
p10499
tp10500
I1
s(V\u1015
p10501
V\u102b
p10502
V\u1021
p10503
tp10504
I3
s(V\u102f
p10505
V\u1005
p10506
V\u1031
p10507
tp10508
I2
s(V\u1001
p10509
V\u103c
p10510
V\u1019
p10511
tp10512
I1
s(V\u101a
p10513
V\u103a
p10514
V\u1011
p10515
tp10516
I1
s(V\u102c
p10517
V\u103a
p10518
V\u1018
p10519
tp10520
I1
s(g44
V\u1015
p10521
V\u1004
p10522
tp10523
I3
s(V\u1030
p10524
g44
V\u101c
p10525
tp10526
I1
s(V\u1032
p10527
V\u1037
p10528
V\u1005
p10529
tp10530
I11
s(V\u102c
p10531
V\u101e
p10532
V\u1030
p10533
tp10534
I1
s(g230
g1509
g44
tp10535
I1
s(g44
V\u1041
p10536
V\u1042
p10537
tp10538
I2
s(V\u102c
p10539
V\u1010
p10540
V\u102d
p10541
tp10542
I1
s(g44
V\u1016
p10543
V\u103c
p10544
tp10545
I21
s(V\u102b
p10546
V\u1010
p10547
V\u101a
p10548
tp10549
I38
s(V\u101a
p10550
V\u1030
p10551
V\u1014
p10552
tp10553
I1
s(V\u1036
p10554
V\u1038
p10555
V\u101e
p10556
tp10557
I6
s(V\u103a
p10558
V\u1037
p10559
V\u101c
p10560
tp10561
I9
s(V\u1015
p10562
V\u102b
p10563
V\u101d
p10564
tp10565
I40
s(V\u1021
p10566
V\u101c
p10567
V\u1031
p10568
tp10569
I1
s(g176
g2948
g44
tp10570
I2
s(g44
V\u1010
p10571
V\u101a
p10572
tp10573
I4
s(V\u1032
p10574
V\u101b
p10575
V\u1031
p10576
tp10577
I4
s(V\u1012
p10578
V\u101b
p10579
V\u101a
p10580
tp10581
I15
s(V\u1038
p10582
V\u101e
p10583
V\u1015
p10584
tp10585
I2
s(V\u101d
p10586
g44
V\u1010
p10587
tp10588
I1
s(g44
V\u1001
p10589
V\u1000
p10590
tp10591
I1
s(V\u101d
p10592
g454
g44
tp10593
I1
s(V\u104f
p10594
g44
V\u1011
p10595
tp10596
I1
s(V\u103e
p10597
V\u1009
p10598
V\u103a
p10599
tp10600
I3
s(V\u1037
p10601
V\u101b
p10602
V\u1010
p10603
tp10604
I1
s(V\u2013
p10605
g44
V\u1042
p10606
tp10607
I1
s(V\u1038
p10608
V\u101c
p10609
V\u1031
p10610
tp10611
I3
s(V\u103b
p10612
V\u1019
p10613
V\u1038
p10614
tp10615
I6
s(V\u103a
p10616
V\u1037
p10617
V\u104a
p10618
tp10619
I1
s(V\u1015
p10620
V\u102d
p10621
V\u102f
p10622
tp10623
I11
s(V\u102f
p10624
V\u1015
p10625
V\u103a
p10626
tp10627
I35
s(V\u103a
p10628
V\u1038
p10629
V\u100a
p10630
tp10631
I1
s(V\u1000
p10632
V\u103a
p10633
V\u201d
p10634
tp10635
I6
s(V\u102e
p10636
V\u1038
p10637
V\u1015
p10638
tp10639
I9
s(V\u103e
p10640
V\u102c
p10641
V\u1010
p10642
tp10643
I1
s(V\u1015
p10644
V\u103c
p10645
V\u1004
p10646
tp10647
I16
s(V\u102c
p10648
V\u101e
p10649
V\u100a
p10650
tp10651
I5
s(V\u1021
p10652
V\u1014
p10653
V\u1000
p10654
tp10655
I4
s(V\u1019
p10656
V\u102e
p10657
V\u1016
p10658
tp10659
I1
s(V\u1038
p10660
V\u1014
p10661
V\u100a
p10662
tp10663
I5
s(V\u103b
p10664
V\u1005
p10665
V\u103a
p10666
tp10667
I1
s(V\u102b
p10668
V\u1014
p10669
V\u102d
p10670
tp10671
I1
s(V\u1040
p10672
V\u101d
p10673
V\u1048
p10674
tp10675
I3
s(V\u1037
p10676
V\u1005
p10677
V\u102d
p10678
tp10679
I1
s(V\u1032
p10680
V\u104c
p10681
V\u000a
p10682
tp10683
I1
s(V\u1037
p10684
V\u1000
p10685
V\u101c
p10686
tp10687
I1
s(V\u1019
p10688
V\u102f
p10689
V\u1014
p10690
tp10691
I1
s(V\u1037
p10692
V\u103a
p10693
V\u101b
p10694
tp10695
I3
s(V\u1015
p10696
V\u103c
p10697
V\u102d
p10698
tp10699
I4
s(V\u1014
p10700
V\u103a
p10701
V\u1011
p10702
tp10703
I1
s(V\u1039
p10704
V\u1005
p10705
g44
tp10706
I1
s(V\u1032
p10707
V\u101d
p10708
V\u1004
p10709
tp10710
I5
s(V\u1036
p10711
g44
V\u1010
p10712
tp10713
I1
s(V\u1000
p10714
V\u103b
p10715
V\u1006
p10716
tp10717
I1
s(V\u1038
p10718
V\u1006
p10719
V\u103d
p10720
tp10721
I16
s(V\u101b
p10722
V\u1016
p10723
V\u103c
p10724
tp10725
I1
s(V\u1010
p10726
V\u102f
p10727
V\u1014
p10728
tp10729
I2
s(V\u103e
p10730
V\u102d
p10731
V\u1010
p10732
tp10733
I5
s(V\u102c
p10734
V\u1000
p10735
V\u103c
p10736
tp10737
I8
s(V\u102d
p10738
V\u101e
p10739
V\u102c
p10740
tp10741
I1
s(g652
g187
g730
tp10742
I1
s(V\u103a
p10743
g44
V\u1043
p10744
tp10745
I2
s(V\u1021
p10746
V\u1011
p10747
V\u100a
p10748
tp10749
I5
s(V\u1015
p10750
V\u102b
p10751
V\u1005
p10752
tp10753
I1
s(V\u103c
p10754
V\u101b
p10755
V\u1015
p10756
tp10757
I3
s(V\u1038
p10758
V\u101b
p10759
V\u1000
p10760
tp10761
I3
s(V\u1032
p10762
V\u101d
p10763
V\u102d
p10764
tp10765
I1
s(V\u1000
p10766
V\u101e
p10767
V\u102c
p10768
tp10769
I1
s(V\u102f
p10770
V\u1036
p10771
V\u2019
p10772
tp10773
I1
s(g911
g399
g451
tp10774
I1
s(V\u1037
p10775
V\u101e
p10776
V\u103d
p10777
tp10778
I2
s(V\u1014
p10779
V\u103a
p10780
V\u1037
p10781
tp10782
I14
s(V\u1015
p10783
V\u103d
p10784
V\u1032
p10785
tp10786
I58
s(V\u1019
p10787
V\u1010
p10788
V\u1014
p10789
tp10790
I1
s(V\u1031
p10791
V\u1011
p10792
V\u102c
p10793
tp10794
I1
s(V\u104a
p10795
g44
V\u1021
p10796
tp10797
I7
s(V\u102c
p10798
V\u1021
p10799
V\u1031
p10800
tp10801
I6
s(V\u101e
p10802
V\u102c
p10803
V\u1014
p10804
tp10805
I1
s(V\u100a
p10806
V\u103a
p10807
V\u101c
p10808
tp10809
I1
s(V\u1038
p10810
g544
V\u1049
p10811
tp10812
I1
s(V\u1000
p10813
V\u103b
p10814
V\u101a
p10815
tp10816
I1
s(V\u101e
p10817
V\u1014
p10818
V\u103a
p10819
tp10820
I1
s(V\u1019
p10821
V\u103e
p10822
V\u102f
p10823
tp10824
I34
s(V\u104b
p10825
g44
V\u1010
p10826
tp10827
I5
s(V\u102b
p10828
V\u1038
p10829
V\u1011
p10830
tp10831
I1
s(V\u1031
p10832
V\u1015
p10833
V\u1031
p10834
tp10835
I2
s(V\u1039
p10836
V\u100d
p10837
V\u102b
p10838
tp10839
I1
s(V\u102c
p10840
g44
V\u1014
p10841
tp10842
I10
s(V\u1001
p10843
V\u102d
p10844
V\u102f
p10845
tp10846
I26
s(V\u1030
p10847
V\u104a
p10848
g44
tp10849
I2
s(V\u1012
p10850
V\u1019
p10851
V\u1032
p10852
tp10853
I1
s(V\u102d
p10854
V\u1015
p10855
V\u103a
p10856
tp10857
I11
s(V\u1036
p10858
V\u1005
p10859
V\u102f
p10860
tp10861
I1
s(V\u1000
p10862
V\u103a
p10863
V\u101a
p10864
tp10865
I2
s(V\u1005
p10866
V\u102f
p10867
V\u1021
p10868
tp10869
I8
s(V\u1036
p10870
V\u1004
p10871
V\u103d
p10872
tp10873
I2
s(V\u103a
p10874
V\u1038
p10875
V\u1019
p10876
tp10877
I30
s(V\u1049
p10878
V\u1045
p10879
V\u1047
p10880
tp10881
I3
s(V\u101c
p10882
V\u102d
p10883
V\u102f
p10884
tp10885
I67
s(V\u1018
p10886
V\u1031
p10887
V\u102c
p10888
tp10889
I13
s(V\u1021
p10890
V\u1015
p10891
V\u1005
p10892
tp10893
I1
s(V\u1036
p10894
V\u101b
p10895
V\u1019
p10896
tp10897
I2
s(V\u103c
p10898
V\u1011
p10899
V\u102c
p10900
tp10901
I4
s(V\u1021
p10902
V\u1015
p10903
V\u1031
p10904
tp10905
I4
s(V\u1010
p10906
V\u102d
p10907
V\u1015
p10908
tp10909
I1
s(g44
V\u1010
p10910
V\u1001
p10911
tp10912
I5
s(V\u100a
p10913
V\u103a
p10914
V\u1015
p10915
tp10916
I2
s(g4978
g454
g44
tp10917
I3
s(V\u1010
p10918
V\u1010
p10919
V\u103a
p10920
tp10921
I2
s(V\u101a
p10922
V\u1009
p10923
V\u103a
p10924
tp10925
I1
s(g44
V\u1014
p10926
V\u1031
p10927
tp10928
I11
s(V\u103a
p10929
V\u1038
p10930
V\u104a
p10931
tp10932
I16
s(V\u1032
p10933
V\u1021
p10934
V\u1014
p10935
tp10936
I2
s(V\u1010
p10937
V\u1030
p10938
V\u1000
p10939
tp10940
I1
s(V\u102f
p10941
V\u1037
p10942
V\u101c
p10943
tp10944
I3
s(V\u103d
p10945
V\u1031
p10946
V\u101f
p10947
tp10948
I1
s(V\u102c
p10949
V\u103a
p10950
V\u101e
p10951
tp10952
I2
s(V\u1032
p10953
g44
V\u101d
p10954
tp10955
I1
s(g44
g544
V\u1046
p10956
tp10957
I4
s(g44
V\u1011
p10958
V\u102f
p10959
tp10960
I5
s(V\u103d
p10961
V\u1032
p10962
V\u1014
p10963
tp10964
I2
s(V\u1001
p10965
V\u103d
p10966
V\u102b
p10967
tp10968
I1
s(V\u100a
p10969
V\u103d
p10970
V\u1014
p10971
tp10972
I1
s(V\u102f
p10973
V\u1010
p10974
V\u102d
p10975
tp10976
I2
s(V\u103a
p10977
V\u1005
p10978
V\u102e
p10979
tp10980
I2
s(g44
V\u1045
p10981
V\u1040
p10982
tp10983
I1
s(V\u103a
p10984
V\u101b
p10985
V\u103d
p10986
tp10987
I15
s(V\u1010
p10988
V\u102c
p10989
V\u1019
p10990
tp10991
I2
s(g44
V\u1006
p10992
V\u1031
p10993
tp10994
I7
s(g44
V\u101d
p10995
g44
tp10996
I3
s(V\u1038
p10997
V\u1011
p10998
V\u103d
p10999
tp11000
I1
s(g44
V\u1021
p11001
V\u1032
p11002
tp11003
I5
s(V\u1019
p11004
V\u1006
p11005
V\u102d
p11006
tp11007
I2
s(V\u101e
p11008
V\u102d
p11009
V\u1018
p11010
tp11011
I1
s(V\u1010
p11012
V\u102d
p11013
V\u000a
p11014
tp11015
I1
s(V\u102b
p11016
V\u103a
p11017
V\u1019
p11018
tp11019
I1
s(V\u101d
p11020
V\u103e
p11021
V\u1019
p11022
tp11023
I1
s(V\u1015
p11024
V\u1031
p11025
V\u102b
p11026
tp11027
I21
s(V\u1004
p11028
V\u101a
p11029
V\u103a
p11030
tp11031
I5
s(V\u201c
p11032
V\u1021
p11033
V\u100b
p11034
tp11035
I1
s(V\u1000
p11036
V\u103b
p11037
V\u101d
p11038
tp11039
I1
s(V\u102c
p11040
V\u1038
p11041
V\u101e
p11042
tp11043
I33
s(V\u104c
p11044
g44
V\u1041
p11045
tp11046
I1
s(V\u201c
p11047
g44
V\u1019
p11048
tp11049
I1
s(V\u1036
p11050
V\u1038
p11051
V\u1000
p11052
tp11053
I2
s(V\u102b
p11054
V\u1014
p11055
V\u103a
p11056
tp11057
I1
s(g1077
g108
g230
tp11058
I2
s(g44
V\u1021
p11059
V\u102d
p11060
tp11061
I4
s(V\u102c
p11062
V\u1037
p11063
V\u1004
p11064
tp11065
I1
s(V\u101a
p11066
V\u103a
p11067
g454
tp11068
I1
s(V\u1032
p11069
V\u1019
p11070
V\u103e
p11071
tp11072
I12
s(V\u103a
p11073
V\u1037
p11074
V\u1001
p11075
tp11076
I6
s(V\u102d
p11077
V\u102f
p11078
V\u1005
p11079
tp11080
I1
s(V\u103d
p11081
V\u103e
p11082
V\u1010
p11083
tp11084
I16
s(V\u104f
p11085
g44
V\u1019
p11086
tp11087
I1
s(V\u1031
p11088
g44
V\u1014
p11089
tp11090
I1
s(V\u1047
p11091
V\u1040
p11092
g44
tp11093
I6
s(V\u1030
p11094
g44
V\u100a
p11095
tp11096
I2
s(V\u103b
p11097
V\u101d
p11098
V\u1031
p11099
tp11100
I1
s(V\u102f
p11101
V\u1038
p11102
V\u1015
p11103
tp11104
I1
s(V\u1031
p11105
V\u101b
p11106
V\u101c
p11107
tp11108
I2
s(g44
V\u1019
p11109
V\u1000
p11110
tp11111
I2
s(V\u103a
p11112
V\u1019
p11113
V\u1010
p11114
tp11115
I15
s(g44
V\u1000
p11116
V\u1010
p11117
tp11118
I1
s(V\u1037
p11119
V\u1000
p11120
V\u103c
p11121
tp11122
I11
s(V\u1011
p11123
V\u102d
p11124
V\u102f
p11125
tp11126
I15
s(V\u103e
p11127
V\u102d
p11128
V\u101e
p11129
tp11130
I12
s(V\u1036
p11131
V\u1010
p11132
V\u1004
p11133
tp11134
I3
s(V\u1031
p11135
V\u1021
p11136
V\u1015
p11137
tp11138
I1
s(V\u102c
p11139
V\u1038
p11140
V\u1015
p11141
tp11142
I24
s(g399
g708
g554
tp11143
I1
s(V\u1036
p11144
V\u1001
p11145
V\u1032
p11146
tp11147
I5
s(V\u101b
p11148
V\u101c
p11149
V\u102d
p11150
tp11151
I1
s(g44
V\u1005
p11152
V\u103d
p11153
tp11154
I2
s(V\u101b
p11155
V\u102d
p11156
V\u103f
p11157
tp11158
I1
s(V\u103e
p11159
V\u102f
p11160
V\u101f
p11161
tp11162
I1
s(V\u103a
p11163
V\u101e
p11164
V\u102c
p11165
tp11166
I4
s(V\u1031
p11167
V\u1038
p11168
V\u104a
p11169
tp11170
I6
s(V\u1012
p11171
V\u1019
p11172
V\u103b
p11173
tp11174
I1
s(V\u102b
p11175
V\u104b
p11176
V\u000a
p11177
tp11178
I3
s(V\u102f
p11179
g44
g1759
tp11180
I1
s(V\u1038
p11181
V\u1021
p11182
V\u1016
p11183
tp11184
I14
s(V\u1000
p11185
V\u103a
p11186
V\u1005
p11187
tp11188
I6
s(V\u1010
p11189
V\u1016
p11190
V\u103c
p11191
tp11192
I1
s(V\u1037
p11193
V\u101e
p11194
V\u102e
p11195
tp11196
I1
s(V\u101e
p11197
V\u101b
p11198
V\u103d
p11199
tp11200
I1
s(V\u1010
p11201
V\u103a
p11202
V\u101e
p11203
tp11204
I6
s(V\u201d
p11205
g44
V\u1011
p11206
tp11207
I1
s(g44
g1759
g554
tp11208
I1
s(V\u103a
p11209
V\u201d
p11210
V\u101f
p11211
tp11212
I6
s(V\u102f
p11213
g44
V\u101b
p11214
tp11215
I4
s(V\u1021
p11216
V\u1010
p11217
V\u100a
p11218
tp11219
I1
s(V\u102f
p11220
V\u1019
p11221
V\u101e
p11222
tp11223
I1
s(V\u1032
p11224
V\u1010
p11225
V\u101a
p11226
tp11227
I1
s(V\u103e
p11228
V\u102f
p11229
V\u1036
p11230
tp11231
I2
s(V\u1018
p11232
V\u102c
p11233
V\u101c
p11234
tp11235
I4
s(V\u102f
p11236
V\u1038
p11237
V\u101c
p11238
tp11239
I3
s(V\u101b
p11240
V\u101e
p11241
V\u102c
p11242
tp11243
I1
s(V\u1045
p11244
V\u1047
p11245
V\u1040
p11246
tp11247
I3
s(V\u1021
p11248
V\u101b
p11249
V\u1031
p11250
tp11251
I11
s(g44
V\u1019
p11252
V\u103b
p11253
tp11254
I10
s(g44
V\u1045
p11255
V\u1042
p11256
tp11257
I1
s(V\u1014
p11258
V\u103a
p11259
V\u101e
p11260
tp11261
I2
s(V\u103c
p11262
V\u1031
p11263
V\u100a
p11264
tp11265
I1
s(V\u1017
p11266
V\u103b
p11267
V\u102c
p11268
tp11269
I1
s(V\u1019
p11270
V\u101b
p11271
V\u1031
p11272
tp11273
I2
s(V\u102e
p11274
g44
g352
tp11275
I1
s(V\u1037
p11276
g44
V\u1005
p11277
tp11278
I5
s(g44
V\u101c
p11279
V\u1031
p11280
tp11281
I4
s(V\u101b
p11282
V\u101e
p11283
V\u100a
p11284
tp11285
I2
s(g44
V\u101c
p11286
V\u102c
p11287
tp11288
I2
s(V\u1016
p11289
V\u1030
p11290
V\u1038
p11291
tp11292
I1
s(g454
V\u104c
p11293
g44
tp11294
I2
s(V\u1019
p11295
V\u1011
p11296
V\u102c
p11297
tp11298
I1
s(V\u1005
p11299
V\u1031
p11300
V\u101c
p11301
tp11302
I1
s(V\u1021
p11303
V\u1005
p11304
V\u1009
p11305
tp11306
I2
s(V\u1019
p11307
V\u1000
p11308
V\u103b
p11309
tp11310
I2
s(V\u1018
p11311
V\u1032
p11312
g44
tp11313
I17
s(V\u1032
p11314
g44
V\u1021
p11315
tp11316
I3
s(V\u102c
p11317
V\u103a
p11318
V\u1014
p11319
tp11320
I4
s(V\u101e
p11321
V\u102f
p11322
V\u1036
p11323
tp11324
I10
s(V\u103a
p11325
V\u1017
p11326
V\u103b
p11327
tp11328
I1
s(V\u1021
p11329
V\u101b
p11330
V\u100a
p11331
tp11332
I3
s(V\u1032
p11333
V\u1005
p11334
V\u102c
p11335
tp11336
I1
s(V\u1001
p11337
V\u103d
p11338
V\u1032
p11339
tp11340
I13
s(V\u1032
p11341
V\u1037
p11342
g44
tp11343
I75
s(V\u2018
p11344
V\u1014
p11345
V\u102d
p11346
tp11347
I1
s(V\u102c
p11348
V\u101b
p11349
V\u102f
p11350
tp11351
I1
s(V\u102f
p11352
V\u1011
p11353
V\u1031
p11354
tp11355
I1
s(V\u103a
p11356
V\u1019
p11357
V\u103e
p11358
tp11359
I41
s(V\u1014
p11360
V\u102c
p11361
V\u1038
p11362
tp11363
I4
s(V\u101e
p11364
V\u102c
p11365
V\u1019
p11366
tp11367
I1
s(V\u101b
p11368
V\u102c
p11369
V\u1015
p11370
tp11371
I1
s(V\u101e
p11372
V\u102d
p11373
V\u1015
p11374
tp11375
I2
s(V\u1037
p11376
V\u101f
p11377
g44
tp11378
I2
s(V\u103c
p11379
V\u1014
p11380
V\u102d
p11381
tp11382
I3
s(V\u102f
p11383
V\u1004
p11384
V\u103c
p11385
tp11386
I4
s(V\u1011
p11387
V\u102d
p11388
V\u101b
p11389
tp11390
I1
s(V\u1031
p11391
V\u102c
p11392
V\u1015
p11393
tp11394
I2
s(V\u1038
p11395
V\u101b
p11396
V\u101c
p11397
tp11398
I1
s(V\u1038
p11399
V\u1015
p11400
V\u102b
p11401
tp11402
I44
s(V\u1004
p11403
V\u103a
p11404
V\u1000
p11405
tp11406
I19
s(V\u102c
p11407
g44
V\u101d
p11408
tp11409
I3
s(V\u1007
p11410
V\u201d
p11411
g44
tp11412
I1
s(V\u1005
p11413
V\u102f
p11414
V\u1005
p11415
tp11416
I2
s(V\u1005
p11417
V\u1005
p11418
V\u103a
p11419
tp11420
I17
s(V\u103a
p11421
V\u1038
p11422
V\u1025
p11423
tp11424
I1
s(V\u100d
p11425
V\u1019
p11426
V\u103b
p11427
tp11428
I1
s(V\u1015
p11429
V\u102b
p11430
V\u1038
p11431
tp11432
I11
s(g176
g730
g409
tp11433
I1
s(V\u1036
p11434
V\u1011
p11435
V\u102c
p11436
tp11437
I1
s(V\u1030
p11438
g44
V\u1010
p11439
tp11440
I1
s(V\u1036
p11441
V\u1038
p11442
g44
tp11443
I3
s(V\u1019
p11444
V\u1010
p11445
V\u1031
p11446
tp11447
I5
s(V\u101d
p11448
V\u1014
p11449
V\u1032
p11450
tp11451
I1
s(V\u102b
p11452
V\u1038
p11453
V\u1005
p11454
tp11455
I1
s(V\u101b
p11456
g44
V\u1006
p11457
tp11458
I1
s(V\u1009
p11459
V\u103a
p11460
V\u1038
p11461
tp11462
I9
s(g2608
g109
g554
tp11463
I2
s(V\u1003
p11464
g454
V\u1016
p11465
tp11466
I1
s(V\u101b
p11467
V\u1031
p11468
V\u1038
p11469
tp11470
I131
s(V\u1010
p11471
V\u103a
p11472
V\u101d
p11473
tp11474
I1
s(V\u102c
p11475
g44
V\u1006
p11476
tp11477
I7
s(V\u1005
p11478
V\u103a
p11479
V\u1010
p11480
tp11481
I10
s(V\u102f
p11482
V\u101f
p11483
V\u102c
p11484
tp11485
I1
s(V\u102d
p11486
V\u1010
p11487
V\u102c
p11488
tp11489
I1
s(V\u101e
p11490
V\u1036
p11491
V\u1000
p11492
tp11493
I2
s(V\u103a
p11494
V\u1000
p11495
V\u1031
p11496
tp11497
I4
s(V\u1037
p11498
V\u1021
p11499
V\u102d
p11500
tp11501
I2
s(V\u101c
p11502
V\u102c
p11503
V\u1001
p11504
tp11505
I15
s(V\u101b
p11506
V\u1018
p11507
V\u1030
p11508
tp11509
I1
s(V\u1010
p11510
V\u1019
p11511
V\u103a
p11512
tp11513
I4
s(V\u1006
p11514
V\u101a
p11515
V\u103a
p11516
tp11517
I1
s(V\u102f
p11518
V\u1037
p11519
V\u1006
p11520
tp11521
I2
s(V\u1019
p11522
g44
V\u1045
p11523
tp11524
I1
s(V\u1001
p11525
V\u1036
p11526
g44
tp11527
I3
s(V\u103a
p11528
V\u101c
p11529
V\u1004
p11530
tp11531
I1
s(g44
V\u101c
p11532
V\u1010
p11533
tp11534
I2
s(V\u102f
p11535
V\u1015
p11536
V\u1031
p11537
tp11538
I1
s(V\u1038
p11539
g44
V\u1042
p11540
tp11541
I2
s(V\u1030
p11542
V\u1000
p11543
V\u103d
p11544
tp11545
I1
s(V\u103a
p11546
V\u1037
p11547
V\u1000
p11548
tp11549
I11
s(V\u1038
p11550
V\u101e
p11551
V\u1030
p11552
tp11553
I13
s(V\u1030
p11554
V\u1019
p11555
V\u103b
p11556
tp11557
I26
s(g44
V\u104e
p11558
V\u1004
p11559
tp11560
I3
s(V\u1001
p11561
V\u103b
p11562
V\u1000
p11563
tp11564
I28
s(V\u1005
p11565
V\u103a
p11566
V\u101b
p11567
tp11568
I1
s(V\u1016
p11569
V\u103c
p11570
V\u1005
p11571
tp11572
I74
s(V\u1031
p11573
V\u101c
p11574
V\u102f
p11575
tp11576
I1
s(g44
V\u1019
p11577
V\u1006
p11578
tp11579
I2
s(g44
V\u1041
p11580
g44
tp11581
I2
s(V\u101e
p11582
V\u1019
p11583
V\u102e
p11584
tp11585
I68
s(V\u1019
p11586
V\u103a
p11587
V\u1021
p11588
tp11589
I1
s(V\u1031
p11590
V\u101c
p11591
V\u102d
p11592
tp11593
I2
s(V\u103a
p11594
g44
V\u1019
p11595
tp11596
I14
s(V\u103b
p11597
V\u1014
p11598
V\u1031
p11599
tp11600
I1
s(V\u101b
p11601
V\u101f
p11602
V\u102d
p11603
tp11604
I1
s(V\u1021
p11605
V\u1014
p11606
V\u102f
p11607
tp11608
I1
s(V\u1031
p11609
V\u1038
p11610
V\u1001
p11611
tp11612
I10
s(V\u102c
p11613
V\u1037
p11614
V\u101e
p11615
tp11616
I1
s(V\u1038
p11617
g44
g187
tp11618
I2
s(g108
g109
g230
tp11619
I4
s(V\u102d
p11620
V\u1000
p11621
V\u101c
p11622
tp11623
I1
s(V\u1019
p11624
V\u102c
p11625
V\u1015
p11626
tp11627
I4
s(V\u1032
p11628
V\u1037
p11629
V\u1014
p11630
tp11631
I1
s(g1509
g44
g1759
tp11632
I1
s(g44
V\u1015
p11633
V\u102b
p11634
tp11635
I38
s(V\u1015
p11636
V\u103a
p11637
V\u1014
p11638
tp11639
I1
s(g44
V\u1019
p11640
V\u1031
p11641
tp11642
I2
s(g44
V\u1014
p11643
V\u102c
p11644
tp11645
I5
s(V\u1015
p11646
V\u102b
p11647
g44
tp11648
I6
s(V\u1038
p11649
g44
V\u101a
p11650
tp11651
I2
s(V\u102e
p11652
V\u100a
p11653
V\u103d
p11654
tp11655
I1
s(V\u1001
p11656
V\u103d
p11657
V\u1004
p11658
tp11659
I33
s(g44
V\u1001
p11660
V\u102f
p11661
tp11662
I3
s(V\u102e
p11663
V\u1038
p11664
V\u1001
p11665
tp11666
I7
s(g1554
g2335
g1297
tp11667
I1
s(V\u1031
p11668
V\u1012
p11669
V\u102e
p11670
tp11671
I1
s(V\u1005
p11672
V\u103d
p11673
V\u102c
p11674
tp11675
I6
s(V\u102b
p11676
V\u1010
p11677
V\u1031
p11678
tp11679
I2
s(V\u102f
p11680
g44
V\u1041
p11681
tp11682
I1
s(V\u1031
p11683
V\u102b
p11684
V\u1004
p11685
tp11686
I14
s(g44
V\u1016
p11687
V\u1031
p11688
tp11689
I3
s(V\u1037
p11690
V\u1006
p11691
V\u1014
p11692
tp11693
I2
s(V\u102f
p11694
V\u1036
p11695
V\u1005
p11696
tp11697
I10
s(V\u1000
p11698
V\u101c
p11699
V\u100a
p11700
tp11701
I7
s(V\u103e
p11702
V\u102c
p11703
V\u1015
p11704
tp11705
I1
s(V\u1000
p11706
V\u102c
p11707
V\u1038
p11708
tp11709
I1
s(V\u1039
p11710
V\u1005
p11711
V\u100a
p11712
tp11713
I1
s(g44
V\u1001
p11714
V\u1014
p11715
tp11716
I2
s(g544
V\u1041
p11717
g4978
tp11718
I1
s(V\u101c
p11719
V\u1030
p11720
V\u1004
p11721
tp11722
I2
s(V\u100a
p11723
V\u1038
p11724
V\u103a
p11725
tp11726
I1
s(V\u1005
p11727
V\u102e
p11728
g44
tp11729
I2
s(g44
V\u1021
p11730
V\u1019
p11731
tp11732
I95
s(V\u1032
p11733
V\u1037
p11734
V\u1000
p11735
tp11736
I8
s(V\u102f
p11737
V\u1037
p11738
V\u1021
p11739
tp11740
I3
s(V\u103e
p11741
V\u1005
p11742
V\u103a
p11743
tp11744
I15
s(V\u101b
p11745
V\u101a
p11746
V\u103a
p11747
tp11748
I16
s(V\u103c
p11749
V\u1031
p11750
V\u1001
p11751
tp11752
I13
s(g1554
g4140
g454
tp11753
I1
s(V\u102f
p11754
V\u1000
p11755
g44
tp11756
I1
s(V\u1038
p11757
V\u100a
p11758
V\u102e
p11759
tp11760
I1
s(V\u103a
p11761
V\u1000
p11762
V\u1010
p11763
tp11764
I1
s(V\u1031
p11765
V\u1000
p11766
V\u101c
p11767
tp11768
I1
s(g399
g1509
g230
tp11769
I1
s(V\u102c
p11770
V\u1038
p11771
V\u100a
p11772
tp11773
I1
s(V\u102f
p11774
V\u1036
p11775
V\u1010
p11776
tp11777
I7
s(V\u101b
p11778
V\u101e
p11779
V\u1000
p11780
tp11781
I2
s(V\u1004
p11782
V\u103a
p11783
g44
tp11784
I101
s(V\u1048
p11785
V\u1042
p11786
V\u1041
p11787
tp11788
I1
s(V\u1015
p11789
V\u103a
p11790
V\u1019
p11791
tp11792
I17
s(V\u1040
p11793
V\u101d
p11794
g454
tp11795
I1
s(V\u1032
p11796
V\u104b
p11797
V\u000a
p11798
tp11799
I1
s(V\u101b
p11800
V\u102e
p11801
V\u1038
p11802
tp11803
I1
s(V\u102b
p11804
V\u1018
p11805
V\u1030
p11806
tp11807
I2
s(V\u1036
p11808
V\u1037
p11809
V\u1016
p11810
tp11811
I2
s(V\u1038
p11812
g44
V\u1004
p11813
tp11814
I7
s(V\u1002
p11815
V\u103b
p11816
V\u1030
p11817
tp11818
I1
s(V\u1012
p11819
V\u102b
p11820
V\u1019
p11821
tp11822
I1
s(V\u1010
p11823
V\u102c
p11824
V\u101d
p11825
tp11826
I5
s(V\u1007
p11827
V\u1030
p11828
V\u101c
p11829
tp11830
I1
s(V\u101c
p11831
V\u1031
p11832
V\u102c
p11833
tp11834
I17
s(V\u1000
p11835
V\u103a
p11836
V\u1021
p11837
tp11838
I6
s(V\u101c
p11839
V\u103a
p11840
V\u1010
p11841
tp11842
I1
s(V\u1038
p11843
V\u101b
p11844
V\u101e
p11845
tp11846
I3
s(V\u102e
p11847
V\u1001
p11848
V\u103b
p11849
tp11850
I5
s(V\u100a
p11851
V\u1004
p11852
V\u103a
p11853
tp11854
I1
s(g44
V\u101b
p11855
V\u1000
p11856
tp11857
I4
s(V\u102f
p11858
V\u101c
p11859
V\u103a
p11860
tp11861
I1
s(V\u103a
p11862
V\u1011
p11863
V\u103d
p11864
tp11865
I3
s(V\u1032
p11866
V\u1037
p11867
V\u101d
p11868
tp11869
I3
s(V\u101c
p11870
V\u1005
p11871
V\u1009
p11872
tp11873
I1
s(V\u102f
p11874
g44
V\u1014
p11875
tp11876
I2
s(V\u1030
p11877
V\u1038
p11878
V\u101c
p11879
tp11880
I1
s(V\u1031
p11881
V\u1001
p11882
V\u103c
p11883
tp11884
I4
s(V\u1038
p11885
V\u1019
p11886
V\u101a
p11887
tp11888
I3
s(V\u1000
p11889
g44
V\u1010
p11890
tp11891
I2
s(V\u201c
p11892
V\u1001
p11893
V\u103b
p11894
tp11895
I1
s(V\u101e
p11896
V\u1005
p11897
V\u103a
p11898
tp11899
I1
s(V\u1038
p11900
V\u1005
p11901
V\u1005
p11902
tp11903
I1
s(V\u102e
p11904
V\u101b
p11905
V\u1001
p11906
tp11907
I1
s(g44
V\u101c
p11908
V\u1005
p11909
tp11910
I1
s(V\u101c
p11911
V\u1031
p11912
V\u1037
p11913
tp11914
I5
s(V\u1001
p11915
V\u1036
p11916
V\u1000
p11917
tp11918
I6
s(V\u1012
p11919
V\u102e
p11920
V\u1001
p11921
tp11922
I3
s(V\u1031
p11923
V\u1019
p11924
V\u101a
p11925
tp11926
I1
s(V\u103c
p11927
V\u1031
p11928
V\u1004
p11929
tp11930
I1
s(V\u102b
p11931
V\u1015
p11932
V\u1032
p11933
tp11934
I1
s(V\u1038
p11935
V\u1021
p11936
V\u100a
p11937
tp11938
I3
s(V\u1021
p11939
V\u1015
p11940
V\u102d
p11941
tp11942
I1
s(V\u102c
p11943
g44
V\u1000
p11944
tp11945
I5
s(V\u102d
p11946
V\u102f
p11947
V\u1019
p11948
tp11949
I6
s(V\u102c
p11950
V\u101b
p11951
V\u1004
p11952
tp11953
I5
s(V\u103a
p11954
V\u1021
p11955
V\u1031
p11956
tp11957
I5
s(V\u1005
p11958
V\u1000
p11959
V\u103a
p11960
tp11961
I1
s(V\u104b
p11962
V\u1010
p11963
V\u1001
p11964
tp11965
I1
s(V\u103a
p11966
V\u1019
p11967
V\u102c
p11968
tp11969
I11
s(g44
V\u1042
p11970
V\u1047
p11971
tp11972
I1
s(V\u1005
p11973
V\u1036
p11974
g544
tp11975
I1
s(V\u103a
p11976
V\u1010
p11977
V\u102f
p11978
tp11979
I2
s(V\u102d
p11980
g44
V\u1015
p11981
tp11982
I1
s(V\u103a
p11983
g44
g911
tp11984
I1
s(g399
g454
V\u1019
p11985
tp11986
I1
s(V\u1006
p11987
V\u102f
p11988
V\u1036
p11989
tp11990
I22
s(g44
g544
V\u101c
p11991
tp11992
I1
s(V\u101d
p11993
g44
V\u1026
p11994
tp11995
I1
s(V\u103e
p11996
V\u102d
p11997
V\u1001
p11998
tp11999
I6
s(V\u1031
p12000
V\u1011
p12001
V\u1015
p12002
tp12003
I1
s(V\u104d
p12004
g44
V\u101b
p12005
tp12006
I1
s(V\u101b
p12007
V\u102c
p12008
V\u1016
p12009
tp12010
I3
s(V\u103d
p12011
V\u1031
p12012
V\u1037
p12013
tp12014
I12
s(g44
V\u2013
p12015
g44
tp12016
I2
s(g231
g44
g399
tp12017
I1
s(V\u101b
p12018
V\u101b
p12019
V\u1004
p12020
tp12021
I1
s(V\u1015
p12022
V\u102b
p12023
V\u1000
p12024
tp12025
I12
s(V\u1014
p12026
V\u1031
p12027
V\u1006
p12028
tp12029
I1
s(V\u1015
p12030
V\u101c
p12031
V\u1031
p12032
tp12033
I1
s(V\u102d
p12034
V\u1014
p12035
V\u102d
p12036
tp12037
I2
s(V\u1044
p12038
V\u1045
p12039
V\u1048
p12040
tp12041
I1
s(V\u1019
p12042
V\u103e
p12043
V\u1010
p12044
tp12045
I6
s(V\u1036
p12046
V\u1019
p12047
V\u103b
p12048
tp12049
I5
s(V\u1000
p12050
V\u103c
p12051
V\u1031
p12052
tp12053
I69
s(V\u1045
p12054
g44
V\u1026
p12055
tp12056
I6
s(V\u1000
p12057
V\u103c
p12058
V\u102c
p12059
tp12060
I13
s(V\u1012
p12061
V\u103a
p12062
V\u1011
p12063
tp12064
I1
s(g44
g911
g1297
tp12065
I1
s(g44
V\u1011
p12066
V\u102d
p12067
tp12068
I9
s(V\u1038
p12069
V\u1001
p12070
V\u103d
p12071
tp12072
I5
s(V\u103a
p12073
V\u1006
p12074
V\u1036
p12075
tp12076
I1
s(g1633
g554
g109
tp12077
I2
s(g44
V\u1021
p12078
V\u1014
p12079
tp12080
I9
s(V\u103a
p12081
V\u1021
p12082
V\u1004
p12083
tp12084
I1
s(V\u1036
p12085
V\u1016
p12086
V\u103c
p12087
tp12088
I1
s(V\u1038
p12089
V\u1019
p12090
V\u103e
p12091
tp12092
I39
s(V\u1030
p12093
V\u100a
p12094
V\u102e
p12095
tp12096
I5
s(V\u1038
p12097
V\u101e
p12098
V\u1014
p12099
tp12100
I1
s(V\u1038
p12101
V\u1000
p12102
V\u103c
p12103
tp12104
I23
s(V\u1048
p12105
g44
V\u1011
p12106
tp12107
I1
s(V\u1032
p12108
V\u1019
p12109
V\u103b
p12110
tp12111
I10
s(V\u100a
p12112
V\u103a
p12113
V\u101e
p12114
tp12115
I5
s(V\u104f
p12116
g44
V\u1016
p12117
tp12118
I1
s(V\u1001
p12119
V\u1036
p12120
V\u1025
p12121
tp12122
I2
s(g44
V\u1012
p12123
V\u101e
p12124
tp12125
I1
s(V\u1031
p12126
V\u102c
p12127
V\u1000
p12128
tp12129
I85
s(V\u1038
p12130
V\u101c
p12131
V\u1032
p12132
tp12133
I3
s(V\u103a
p12134
V\u1013
p12135
V\u102b
p12136
tp12137
I2
s(V\u1005
p12138
V\u103a
p12139
V\u1026
p12140
tp12141
I4
s(V\u102f
p12142
V\u1038
p12143
V\u1010
p12144
tp12145
I5
s(V\u1019
p12146
V\u1004
p12147
V\u103c
p12148
tp12149
I1
s(V\u103c
p12150
V\u1000
p12151
V\u103c
p12152
tp12153
I1
s(V\u103a
p12154
V\u1014
p12155
V\u102d
p12156
tp12157
I26
s(V\u103a
p12158
V\u101e
p12159
V\u100a
p12160
tp12161
I21
s(V\u1036
p12162
V\u101b
p12163
V\u101b
p12164
tp12165
I1
s(V\u101c
p12166
V\u1000
p12167
V\u102f
p12168
tp12169
I1
s(V\u103a
p12170
V\u1010
p12171
V\u102c
p12172
tp12173
I15
s(V\u1038
p12174
V\u1000
p12175
V\u1031
p12176
tp12177
I27
s(V\u1037
p12178
V\u1019
p12179
V\u101b
p12180
tp12181
I1
s(V\u1030
p12182
V\u1000
p12183
V\u1015
p12184
tp12185
I1
s(g2948
g397
g398
tp12186
I1
s(V\u1015
p12187
V\u1015
p12188
V\u103c
p12189
tp12190
I1
s(V\u104a
p12191
g44
V\u1017
p12192
tp12193
I1
s(V\u1000
p12194
V\u103c
p12195
V\u101b
p12196
tp12197
I8
s(V\u1004
p12198
V\u103a
p12199
V\u1037
p12200
tp12201
I109
s(g176
g2608
g176
tp12202
I2
s(V\u103c
p12203
V\u1014
p12204
V\u103a
p12205
tp12206
I20
s(V\u1019
p12207
V\u101f
p12208
V\u102c
p12209
tp12210
I3
s(V\u103a
p12211
g44
V\u2018
p12212
tp12213
I2
s(V\u1004
p12214
V\u103a
p12215
V\u1026
p12216
tp12217
I7
s(V\u101b
p12218
V\u1031
p12219
V\u1005
p12220
tp12221
I11
s(V\u1000
p12222
V\u103c
p12223
V\u102f
p12224
tp12225
I4
s(V\u1010
p12226
V\u1019
p12227
V\u103b
p12228
tp12229
I2
s(V\u102f
p12230
V\u1010
p12231
V\u103a
p12232
tp12233
I15
s(V\u102f
p12234
V\u1038
p12235
V\u101b
p12236
tp12237
I18
s(g44
g544
g2027
tp12238
I1
s(V\u102d
p12239
V\u102f
p12240
V\u101b
p12241
tp12242
I7
s(V\u104b
p12243
g44
V\u1015
p12244
tp12245
I1
s(V\u201c
p12246
V\u101c
p12247
V\u1000
p12248
tp12249
I2
s(V\u102e
p12250
V\u1038
p12251
V\u101d
p12252
tp12253
I3
s(g44
V\u101c
p12254
V\u100a
p12255
tp12256
I1
s(V\u102b
p12257
V\u103a
p12258
V\u1021
p12259
tp12260
I1
s(V\u102f
p12261
V\u101e
p12262
V\u102c
p12263
tp12264
I1
s(g44
V\u201c
p12265
V\u1025
p12266
tp12267
I1
s(V\u1032
p12268
V\u1014
p12269
V\u102d
p12270
tp12271
I1
s(V\u103a
p12272
V\u101b
p12273
V\u103e
p12274
tp12275
I14
s(V\u1000
p12276
V\u103c
p12277
V\u1010
p12278
tp12279
I3
s(g109
g231
g44
tp12280
I2
s(V\u1012
p12281
V\u101e
p12282
V\u1019
p12283
tp12284
I1
s(V\u1030
p12285
V\u101e
p12286
V\u1031
p12287
tp12288
I1
s(V\u102c
p12289
V\u1014
p12290
V\u1031
p12291
tp12292
I1
s(g44
g187
g397
tp12293
I1
s(V\u1026
p12294
V\u1038
p12295
V\u101c
p12296
tp12297
I2
s(V\u100a
p12298
V\u103a
p12299
V\u101f
p12300
tp12301
I5
s(V\u1014
p12302
V\u102c
p12303
V\u1005
p12304
tp12305
I1
s(g44
V\u101b
p12306
V\u1015
p12307
tp12308
I4
s(V\u1039
p12309
V\u1012
p12310
V\u1021
p12311
tp12312
I1
s(V\u102d
p12313
V\u102f
p12314
V\u1010
p12315
tp12316
I17
s(V\u103a
p12317
V\u1019
p12318
V\u101f
p12319
tp12320
I1
s(V\u102c
p12321
V\u1038
p12322
V\u1018
p12323
tp12324
I3
s(V\u1019
p12325
V\u103e
p12326
V\u102c
p12327
tp12328
I69
s(V\u102c
p12329
V\u1038
p12330
V\u104a
p12331
tp12332
I3
s(V\u1036
p12333
V\u1038
p12334
V\u1006
p12335
tp12336
I9
s(V\u102d
p12337
V\u101b
p12338
V\u1015
p12339
tp12340
I2
s(V\u1012
p12341
V\u102e
p12342
V\u101b
p12343
tp12344
I1
s(V\u1016
p12345
V\u103d
p12346
V\u1004
p12347
tp12348
I3
s(V\u1036
p12349
V\u1001
p12350
V\u103c
p12351
tp12352
I2
s(V\u102b
p12353
V\u101b
p12354
V\u101b
p12355
tp12356
I2
s(V\u102c
p12357
V\u1001
p12358
V\u1036
p12359
tp12360
I8
s(V\u104b
p12361
V\u101c
p12362
V\u103d
p12363
tp12364
I1
s(V\u102c
p12365
V\u1000
p12366
V\u1031
p12367
tp12368
I1
s(V\u103c
p12369
V\u102f
p12370
V\u1005
p12371
tp12372
I1
s(V\u103e
p12373
V\u1005
p12374
V\u1005
p12375
tp12376
I2
s(V\u1019
p12377
V\u101b
p12378
g44
tp12379
I1
s(V\u102c
p12380
V\u1015
p12381
V\u102b
p12382
tp12383
I7
s(V\u1041
p12384
V\u1049
p12385
V\u1049
p12386
tp12387
I1
s(V\u103d
p12388
V\u102b
p12389
V\u1018
p12390
tp12391
I1
s(V\u103a
p12392
V\u1002
p12393
V\u103b
p12394
tp12395
I9
s(V\u103d
p12396
V\u1032
p12397
V\u1019
p12398
tp12399
I16
s(V\u100a
p12400
V\u103a
p12401
V\u1014
p12402
tp12403
I33
s(V\u1021
p12404
V\u101e
p12405
V\u102e
p12406
tp12407
I6
s(V\u1038
p12408
V\u1000
p12409
V\u1010
p12410
tp12411
I1
s(V\u1000
p12412
V\u1006
p12413
V\u102d
p12414
tp12415
I2
s(g544
V\u1045
p12416
g454
tp12417
I1
s(g44
V\u1044
p12418
V\u1048
p12419
tp12420
I1
s(V\u1031
p12421
V\u101b
p12422
V\u102c
p12423
tp12424
I9
s(V\u1000
p12425
V\u103c
p12426
V\u1015
p12427
tp12428
I8
s(V\u1014
p12429
V\u103a
p12430
g44
tp12431
I10
s(V\u101b
p12432
V\u1005
p12433
V\u1031
p12434
tp12435
I1
s(V\u101f
p12436
V\u102c
p12437
V\u1004
p12438
tp12439
I1
s(V\u1004
p12440
V\u103c
p12441
V\u102c
p12442
tp12443
I1
s(V\u1000
p12444
V\u103a
p12445
V\u1015
p12446
tp12447
I47
s(V\u103a
p12448
V\u1005
p12449
V\u102d
p12450
tp12451
I5
s(V\u102d
p12452
V\u1014
p12453
V\u103e
p12454
tp12455
I9
s(g109
g230
g108
tp12456
I4
s(V\u102f
p12457
V\u1037
p12458
V\u101d
p12459
tp12460
I1
s(V\u102c
p12461
V\u1038
p12462
V\u1006
p12463
tp12464
I2
s(V\u1037
p12465
g44
V\u1012
p12466
tp12467
I5
s(V\u101e
p12468
V\u1031
p12469
V\u1015
p12470
tp12471
I1
s(V\u1010
p12472
V\u103a
p12473
g44
tp12474
I6
s(g44
V\u1015
p12475
V\u1005
p12476
tp12477
I1
s(V\u1021
p12478
V\u101c
p12479
V\u1000
p12480
tp12481
I1
s(V\u1010
p12482
V\u103d
p12483
V\u1031
p12484
tp12485
I86
s(V\u103e
p12486
g44
V\u1012
p12487
tp12488
I8
s(V\u103d
p12489
V\u102c
p12490
V\u1016
p12491
tp12492
I1
s(V\u1037
p12493
V\u101d
p12494
V\u103a
p12495
tp12496
I1
s(g44
V\u1019
p12497
V\u100a
p12498
tp12499
I2
s(V\u101c
p12500
V\u100a
p12501
V\u103a
p12502
tp12503
I45
s(V\u103a
p12504
V\u1021
p12505
V\u1006
p12506
tp12507
I1
s(V\u101a
p12508
V\u103a
p12509
V\u101a
p12510
tp12511
I1
s(V\u1031
p12512
V\u1011
p12513
V\u1032
p12514
tp12515
I3
s(g44
g544
V\u1041
p12516
tp12517
I3
s(V\u1002
p12518
V\u101c
p12519
V\u1019
p12520
tp12521
I1
s(V\u1021
p12522
V\u1011
p12523
V\u1032
p12524
tp12525
I1
s(V\u102c
p12526
V\u1038
p12527
V\u101f
p12528
tp12529
I3
s(V\u1018
p12530
V\u102c
p12531
V\u101e
p12532
tp12533
I1
s(V\u1031
p12534
V\u102c
p12535
V\u101c
p12536
tp12537
I3
s(V\u103a
p12538
V\u1037
p12539
V\u1016
p12540
tp12541
I1
s(V\u1000
p12542
V\u103b
p12543
V\u102c
p12544
tp12545
I3
s(V\u101a
p12546
V\u103a
p12547
g544
tp12548
I3
s(V\u103e
p12549
V\u102f
p12550
V\u1010
p12551
tp12552
I3
s(V\u1021
p12553
V\u1005
p12554
V\u102d
p12555
tp12556
I10
s(V\u102c
p12557
V\u101c
p12558
V\u103e
p12559
tp12560
I1
s(V\u1038
p12561
V\u1019
p12562
V\u102e
p12563
tp12564
I1
s(V\u103d
p12565
V\u1032
p12566
V\u101c
p12567
tp12568
I3
s(V\u1037
p12569
V\u101b
p12570
V\u1031
p12571
tp12572
I3
s(V\u102d
p12573
V\u1015
p12574
V\u102b
p12575
tp12576
I6
s(V\u1011
p12577
V\u1030
p12578
V\u1021
p12579
tp12580
I1
s(V\u101e
p12581
V\u1019
p12582
V\u102d
p12583
tp12584
I2
s(V\u1019
p12585
V\u1010
p12586
V\u102d
p12587
tp12588
I3
s(V\u101b
p12589
V\u103e
p12590
V\u100a
p12591
tp12592
I4
s(V\u1041
p12593
V\u1048
p12594
g44
tp12595
I1
s(V\u101b
p12596
V\u1031
p12597
V\u101b
p12598
tp12599
I4
s(V\u101e
p12600
V\u100a
p12601
V\u103a
p12602
tp12603
I100
s(g44
V\u101e
p12604
V\u1030
p12605
tp12606
I11
s(V\u1032
p12607
V\u1000
p12608
g44
tp12609
I1
s(g1554
g44
V\u101c
p12610
tp12611
I2
s(V\u1005
p12612
V\u1031
p12613
V\u1001
p12614
tp12615
I1
s(V\u100f
p12616
V\u103a
p12617
V\u1038
p12618
tp12619
I1
s(V\u103a
p12620
V\u1000
p12621
V\u101c
p12622
tp12623
I1
s(V\u101b
p12624
V\u1010
p12625
V\u1031
p12626
tp12627
I2
s(V\u1049
p12628
g44
V\u1019
p12629
tp12630
I1
s(V\u1036
p12631
V\u1010
p12632
V\u1005
p12633
tp12634
I2
s(g4140
g454
V\u1000
p12635
tp12636
I1
s(V\u1012
p12637
V\u103a
p12638
V\u101c
p12639
tp12640
I1
s(V\u1013
p12641
V\u1019
p12642
V\u1039
p12643
tp12644
I1
s(V\u102f
p12645
V\u1036
p12646
V\u101c
p12647
tp12648
I2
s(V\u102e
p12649
V\u1021
p12650
V\u1005
p12651
tp12652
I3
s(V\u1037
p12653
g44
V\u1004
p12654
tp12655
I7
s(V\u103e
p12656
V\u102d
p12657
V\u1037
p12658
tp12659
I1
s(V\u1000
p12660
V\u103a
p12661
V\u1012
p12662
tp12663
I16
s(V\u103d
p12664
V\u102c
p12665
V\u1000
p12666
tp12667
I1
s(V\u1037
p12668
V\u103a
p12669
V\u101e
p12670
tp12671
I1
s(V\u1031
p12672
V\u1021
p12673
V\u1010
p12674
tp12675
I4
s(g44
V\u1021
p12676
V\u1000
p12677
tp12678
I13
s(V\u1001
p12679
V\u1014
p12680
V\u103a
p12681
tp12682
I5
s(V\u1012
p12683
V\u102e
p12684
V\u1016
p12685
tp12686
I1
s(V\u101a
p12687
V\u103a
p12688
V\u1021
p12689
tp12690
I4
s(V\u1002
p12691
V\u101a
p12692
V\u1000
p12693
tp12694
I2
s(V\u103a
p12695
V\u1014
p12696
V\u1005
p12697
tp12698
I1
s(V\u101b
p12699
V\u1031
p12700
V\u1010
p12701
tp12702
I2
s(V\u103a
p12703
V\u101e
p12704
V\u102f
p12705
tp12706
I3
s(V\u103a
p12707
V\u1012
p12708
V\u1031
p12709
tp12710
I9
s(V\u103a
p12711
V\u1037
p12712
V\u101a
p12713
tp12714
I1
s(V\u102f
p12715
V\u1011
p12716
V\u102c
p12717
tp12718
I1
s(V\u1010
p12719
V\u103a
p12720
V\u101f
p12721
tp12722
I1
s(g44
V\u101b
p12723
V\u103e
p12724
tp12725
I13
s(V\u102f
p12726
V\u1038
p12727
V\u101d
p12728
tp12729
I1
s(V\u103a
p12730
V\u1011
p12731
V\u1004
p12732
tp12733
I1
s(V\u1037
p12734
g44
V\u1000
p12735
tp12736
I12
s(V\u103a
p12737
g44
V\u1004
p12738
tp12739
I5
s(V\u1032
p12740
g44
V\u1014
p12741
tp12742
I1
s(g454
g44
V\u1021
p12743
tp12744
I3
s(V\u103a
p12745
V\u1001
p12746
V\u1010
p12747
tp12748
I2
s(V\u103e
p12749
g44
V\u1011
p12750
tp12751
I2
s(V\u103a
p12752
V\u1011
p12753
V\u1031
p12754
tp12755
I19
s(V\u103a
p12756
V\u101f
p12757
V\u102c
p12758
tp12759
I2
s(V\u101c
p12760
V\u1004
p12761
V\u103a
p12762
tp12763
I8
s(V\u1038
p12764
V\u101e
p12765
V\u102d
p12766
tp12767
I6
s(V\u1014
p12768
V\u1030
p12769
V\u1038
p12770
tp12771
I3
s(V\u1030
p12772
V\u101b
p12773
V\u1032
p12774
tp12775
I2
s(V\u1019
p12776
V\u1005
p12777
V\u1031
p12778
tp12779
I1
s(V\u103a
p12780
V\u1019
p12781
V\u103b
p12782
tp12783
I25
s(V\u1014
p12784
V\u1031
p12785
V\u1011
p12786
tp12787
I1
s(V\u104a
p12788
g44
V\u1019
p12789
tp12790
I6
s(V\u102b
p12791
V\u101c
p12792
V\u102d
p12793
tp12794
I1
s(V\u1000
p12795
V\u102c
p12796
V\u1019
p12797
tp12798
I1
s(V\u1030
p12799
g44
V\u1041
p12800
tp12801
I1
s(V\u1032
p12802
V\u1006
p12803
V\u1014
p12804
tp12805
I4
s(V\u1032
p12806
V\u1012
p12807
V\u102e
p12808
tp12809
I7
s(V\u1030
p12810
V\u1021
p12811
V\u102d
p12812
tp12813
I1
s(V\u1014
p12814
V\u103a
p12815
V\u1000
p12816
tp12817
I5
s(V\u1015
p12818
V\u103c
p12819
V\u1006
p12820
tp12821
I1
s(V\u1037
p12822
g44
V\u1026
p12823
tp12824
I2
s(g44
V\u101c
p12825
V\u102f
p12826
tp12827
I5
s(g544
V\u1046
p12828
g451
tp12829
I1
s(V\u103a
p12830
V\u1010
p12831
V\u100a
p12832
tp12833
I2
s(g44
V\u1018
p12834
V\u102c
p12835
tp12836
I4
s(V\u103b
p12837
V\u102f
p12838
V\u1015
p12839
tp12840
I10
s(V\u103a
p12841
V\u101b
p12842
V\u1019
p12843
tp12844
I2
s(V\u1038
p12845
V\u1010
p12846
V\u1031
p12847
tp12848
I5
s(V\u101b
p12849
V\u104a
p12850
g44
tp12851
I1
s(V\u102e
p12852
V\u1019
p12853
V\u103b
p12854
tp12855
I4
s(V\u1011
p12856
V\u1015
p12857
V\u103a
p12858
tp12859
I4
s(V\u1038
p12860
V\u101b
p12861
V\u101b
p12862
tp12863
I3
s(V\u1021
p12864
V\u1014
p12865
V\u102d
p12866
tp12867
I5
s(V\u1010
p12868
V\u103a
p12869
V\u1000
p12870
tp12871
I2
s(V\u1036
p12872
V\u101e
p12873
V\u1031
p12874
tp12875
I1
s(V\u1015
p12876
V\u103a
p12877
V\u1005
p12878
tp12879
I8
s(g231
g108
g109
tp12880
I5
s(V\u103a
p12881
V\u1038
p12882
V\u1011
p12883
tp12884
I7
s(g1509
g231
g108
tp12885
I1
s(V\u101e
p12886
V\u1000
p12887
V\u1032
p12888
tp12889
I3
s(V\u1038
p12890
V\u1005
p12891
V\u1009
p12892
tp12893
I4
s(V\u103a
p12894
V\u101e
p12895
V\u1031
p12896
tp12897
I8
s(V\u1038
p12898
g44
V\u1018
p12899
tp12900
I2
s(V\u1019
p12901
V\u101c
p12902
V\u1032
p12903
tp12904
I2
s(V\u1038
p12905
V\u104a
p12906
g44
tp12907
I29
s(V\u1004
p12908
V\u103a
p12909
V\u1001
p12910
tp12911
I24
s(V\u102c
p12912
g44
V\u101e
p12913
tp12914
I5
s(V\u1021
p12915
V\u100a
p12916
V\u103d
p12917
tp12918
I3
s(V\u1005
p12919
V\u103a
p12920
V\u1015
p12921
tp12922
I42
s(V\u1042
p12923
g44
V\u1026
p12924
tp12925
I3
s(V\u1031
p12926
V\u1014
p12927
V\u1032
p12928
tp12929
I3
s(V\u1005
p12930
V\u1031
p12931
V\u1014
p12932
tp12933
I1
s(g44
V\u1014
p12934
V\u102e
p12935
tp12936
I3
s(V\u101b
p12937
V\u1014
p12938
V\u103a
p12939
tp12940
I8
s(V\u1037
p12941
V\u1019
p12942
V\u1010
p12943
tp12944
I1
s(V\u1031
p12945
V\u1038
p12946
V\u1016
p12947
tp12948
I4
s(V\u102c
p12949
V\u1037
p12950
g44
tp12951
I15
s(V\u1005
p12952
V\u102d
p12953
V\u1010
p12954
tp12955
I7
s(V\u1032
p12956
g44
g187
tp12957
I1
s(V\u1031
p12958
V\u1001
p12959
V\u103b
p12960
tp12961
I1
s(V\u103b
p12962
V\u1004
p12963
V\u103a
p12964
tp12965
I26
s(V\u102e
p12966
V\u1038
p12967
V\u104f
p12968
tp12969
I1
s(V\u1041
p12970
V\u1041
p12971
V\u1045
p12972
tp12973
I2
s(V\u1031
p12974
V\u102b
p12975
V\u1006
p12976
tp12977
I1
s(V\u102f
p12978
g44
V\u1016
p12979
tp12980
I4
s(V\u101d
p12981
V\u2019
p12982
g44
tp12983
I2
s(V\u102f
p12984
V\u1000
p12985
V\u1031
p12986
tp12987
I1
s(V\u1036
p12988
V\u1018
p12989
V\u1032
p12990
tp12991
I1
s(V\u1031
p12992
V\u101b
p12993
V\u1001
p12994
tp12995
I1
s(V\u1015
p12996
V\u102b
p12997
V\u1014
p12998
tp12999
I1
s(g544
V\u1048
p13000
g454
tp13001
I1
s(V\u103a
p13002
V\u1025
p13003
V\u1015
p13004
tp13005
I1
s(V\u101c
p13006
V\u102c
p13007
V\u1000
p13008
tp13009
I3
s(g544
g399
g2027
tp13010
I1
s(V\u1031
p13011
V\u1005
p13012
V\u102e
p13013
tp13014
I11
s(g44
V\u1015
p13015
V\u1021
p13016
tp13017
I1
s(V\u100a
p13018
V\u103d
p13019
V\u1010
p13020
tp13021
I4
s(V\u101a
p13022
V\u103d
p13023
V\u1004
p13024
tp13025
I2
s(V\u201d
p13026
g44
V\u101c
p13027
tp13028
I2
s(V\u1010
p13029
V\u103a
p13030
V\u1016
p13031
tp13032
I1
s(V\u1002
p13033
V\u1039
p13034
V\u1002
p13035
tp13036
I1
s(V\u103c
p13037
V\u101e
p13038
V\u100a
p13039
tp13040
I7
s(V\u104a
p13041
g44
V\u1004
p13042
tp13043
I2
s(V\u1005
p13044
V\u1032
p13045
V\u101b
p13046
tp13047
I3
s(V\u1018
p13048
V\u101d
p13049
V\u1000
p13050
tp13051
I1
s(V\u1031
p13052
V\u1019
p13053
V\u102e
p13054
tp13055
I1
s(V\u103a
p13056
V\u101e
p13057
V\u101b
p13058
tp13059
I1
s(V\u1036
p13060
g44
V\u1037
p13061
tp13062
I1
s(V\u1010
p13063
V\u103a
p13064
V\u104a
p13065
tp13066
I1
s(V\u1031
p13067
V\u1000
p13068
g44
tp13069
I4
s(V\u1036
p13070
V\u1010
p13071
V\u103d
p13072
tp13073
I10
s(V\u1005
p13074
V\u1031
p13075
V\u1037
p13076
tp13077
I2
s(V\u1037
p13078
V\u1015
p13079
V\u1031
p13080
tp13081
I3
s(V\u103c
p13082
V\u102e
p13083
V\u1016
p13084
tp13085
I2
s(V\u1001
p13086
V\u103b
p13087
V\u102f
p13088
tp13089
I10
s(g44
V\u1019
p13090
V\u1005
p13091
tp13092
I2
s(g611
g44
V\u1042
p13093
tp13094
I1
s(V\u102f
p13095
V\u1019
p13096
V\u102d
p13097
tp13098
I2
s(V\u1000
p13099
V\u103b
p13100
V\u1031
p13101
tp13102
I13
s(V\u102b
p13103
g44
V\u1000
p13104
tp13105
I1
s(V\u1004
p13106
V\u1036
p13107
V\u101b
p13108
tp13109
I15
s(g1509
g44
g352
tp13110
I1
s(V\u1021
p13111
V\u102c
p13112
V\u100f
p13113
tp13114
I3
s(V\u103a
p13115
V\u1006
p13116
V\u102f
p13117
tp13118
I4
s(V\u103e
p13119
V\u100a
p13120
V\u103a
p13121
tp13122
I5
s(V\u1037
p13123
V\u1021
p13124
V\u1015
p13125
tp13126
I2
s(V\u103c
p13127
V\u102f
p13128
V\u1015
p13129
tp13130
I1
s(g109
g409
g1509
tp13131
I2
s(V\u102b
p13132
V\u1014
p13133
V\u1032
p13134
tp13135
I2
s(V\u1032
p13136
V\u1037
p13137
g544
tp13138
I2
s(g44
V\u1021
p13139
V\u1006
p13140
tp13141
I9
s(V\u102d
p13142
V\u1000
p13143
V\u1019
p13144
tp13145
I1
s(g108
g44
g4140
tp13146
I2
s(V\u1013
p13147
V\u102b
p13148
V\u1010
p13149
tp13150
I2
s(V\u1012
p13151
V\u102e
p13152
V\u1010
p13153
tp13154
I1
s(g44
V\u1005
p13155
V\u1005
p13156
tp13157
I12
s(V\u1005
p13158
V\u103a
p13159
V\u1019
p13160
tp13161
I6
s(g44
V\u1045
p13162
g44
tp13163
I1
s(V\u101c
p13164
V\u1019
p13165
V\u103a
p13166
tp13167
I1
s(V\u1031
p13168
g44
V\u101e
p13169
tp13170
I4
s(V\u103a
p13171
V\u100a
p13172
V\u103e
p13173
tp13174
I1
s(V\u103c
p13175
V\u100c
p13176
V\u102c
p13177
tp13178
I3
s(V\u103c
p13179
V\u102d
p13180
V\u1019
p13181
tp13182
I41
s(V\u1019
p13183
V\u1010
p13184
V\u1000
p13185
tp13186
I2
s(g44
V\u101e
p13187
V\u102d
p13188
tp13189
I9
s(V\u103e
p13190
g44
V\u1004
p13191
tp13192
I1
s(V\u103a
p13193
g44
V\u1011
p13194
tp13195
I3
s(V\u1019
p13196
V\u1032
p13197
V\u1016
p13198
tp13199
I1
s(V\u1031
p13200
g44
V\u1005
p13201
tp13202
I1
s(V\u1030
p13203
V\u1005
p13204
V\u102c
p13205
tp13206
I1
s(V\u104a
p13207
g544
V\u1001
p13208
tp13209
I1
s(V\u1037
p13210
V\u1005
p13211
V\u100a
p13212
tp13213
I11
s(V\u1037
p13214
V\u1021
p13215
V\u101c
p13216
tp13217
I1
s(V\u1010
p13218
V\u1036
p13219
V\u1037
p13220
tp13221
I2
s(g1554
g44
V\u1019
p13222
tp13223
I2
s(V\u1041
p13224
g454
g44
tp13225
I1
s(V\u101a
p13226
V\u103a
p13227
V\u1005
p13228
tp13229
I24
s(V\u1015
p13230
V\u103a
p13231
V\u101c
p13232
tp13233
I1
s(V\u201d
p13234
g44
V\u101f
p13235
tp13236
I1
s(g44
V\u1043
p13237
V\u1040
p13238
tp13239
I9
s(V\u1014
p13240
V\u1031
p13241
V\u1037
p13242
tp13243
I4
s(V\u1000
p13244
V\u1031
p13245
V\u102c
p13246
tp13247
I57
s(V\u1001
p13248
V\u102c
p13249
V\u1019
p13250
tp13251
I1
s(V\u1031
p13252
V\u101a
p13253
V\u103a
p13254
tp13255
I1
s(V\u103a
p13256
V\u1016
p13257
V\u103d
p13258
tp13259
I5
s(g44
V\u1019
p13260
V\u103c
p13261
tp13262
I13
s(V\u1038
p13263
V\u1019
p13264
V\u1010
p13265
tp13266
I1
s(g544
V\u1041
p13267
V\u1043
p13268
tp13269
I1
s(V\u1014
p13270
V\u1031
p13271
V\u1010
p13272
tp13273
I4
s(g44
g544
V\u101e
p13274
tp13275
I1
s(V\u1032
p13276
V\u101d
p13277
V\u1031
p13278
tp13279
I1
s(g544
V\u1017
p13280
V\u101f
p13281
tp13282
I1
s(g230
g409
g108
tp13283
I1
s(V\u101e
p13284
V\u102c
p13285
g44
tp13286
I9
s(V\u1014
p13287
V\u103e
p13288
V\u102d
p13289
tp13290
I12
s(V\u103c
p13291
g44
V\u101e
p13292
tp13293
I1
s(V\u101c
p13294
V\u103d
p13295
V\u1004
p13296
tp13297
I1
s(V\u1031
p13298
V\u1016
p13299
V\u103c
p13300
tp13301
I5
s(V\u1038
p13302
V\u1005
p13303
V\u102d
p13304
tp13305
I4
s(g44
V\u1006
p13306
V\u100b
p13307
tp13308
I1
s(V\u101e
p13309
V\u1031
p13310
V\u1038
p13311
tp13312
I6
s(g44
V\u1006
p13313
V\u102d
p13314
tp13315
I23
s(V\u102b
p13316
V\u1037
p13317
g44
tp13318
I2
s(V\u1031
p13319
V\u1038
p13320
V\u1014
p13321
tp13322
I40
s(V\u1004
p13323
V\u1036
p13324
g44
tp13325
I1
s(V\u103a
p13326
V\u104b
p13327
g44
tp13328
I41
s(V\u1016
p13329
V\u1031
p13330
V\u102c
p13331
tp13332
I11
s(V\u1001
p13333
V\u102f
p13334
V\u101b
p13335
tp13336
I1
s(V\u102c
p13337
g44
V\u1018
p13338
tp13339
I1
s(V\u1015
p13340
V\u102b
p13341
V\u101e
p13342
tp13343
I9
s(V\u102e
p13344
V\u1038
p13345
V\u1010
p13346
tp13347
I19
s(V\u1038
p13348
g44
V\u2013
p13349
tp13350
I2
s(V\u1039
p13351
V\u100c
p13352
V\u1019
p13353
tp13354
I2
s(V\u1015
p13355
V\u1031
p13356
V\u1019
p13357
tp13358
I10
s(V\u201c
p13359
V\u1019
p13360
V\u103d
p13361
tp13362
I1
s(V\u1001
p13363
V\u1036
p13364
V\u1001
p13365
tp13366
I5
s(V\u102f
p13367
V\u101c
p13368
V\u100a
p13369
tp13370
I8
s(V\u1036
p13371
V\u1000
p13372
V\u103b
p13373
tp13374
I2
s(V\u102d
p13375
V\u1001
p13376
V\u1032
p13377
tp13378
I5
s(V\u1018
p13379
V\u102c
p13380
V\u1021
p13381
tp13382
I1
s(V\u103b
p13383
V\u1031
p13384
V\u102c
p13385
tp13386
I17
s(g44
g4140
g554
tp13387
I2
s(V\u103e
p13388
V\u102d
p13389
V\u1019
p13390
tp13391
I1
s(V\u104f
p13392
g44
V\u1014
p13393
tp13394
I1
s(V\u1032
p13395
g44
V\u1010
p13396
tp13397
I3
s(V\u103a
p13398
V\u1037
p13399
V\u1015
p13400
tp13401
I8
s(V\u101f
p13402
V\u102f
p13403
V\u101c
p13404
tp13405
I2
s(g352
g4140
g652
tp13406
I1
s(V\u1001
p13407
V\u102f
p13408
V\u1010
p13409
tp13410
I2
s(V\u104b
p13411
g44
V\u101c
p13412
tp13413
I4
s(V\u1038
p13414
V\u101c
p13415
V\u102c
p13416
tp13417
I6
s(V\u102f
p13418
V\u101b
p13419
V\u1021
p13420
tp13421
I1
s(V\u1019
p13422
V\u1031
p13423
V\u101b
p13424
tp13425
I1
s(V\u102f
p13426
V\u101b
p13427
V\u1015
p13428
tp13429
I1
s(V\u1011
p13430
V\u102c
p13431
V\u1038
p13432
tp13433
I37
s(V\u101e
p13434
V\u1000
p13435
V\u103a
p13436
tp13437
I11
s(V\u101b
p13438
V\u103e
p13439
V\u1019
p13440
tp13441
I2
s(g44
g2608
g109
tp13442
I2
s(V\u1038
p13443
V\u101c
p13444
V\u103d
p13445
tp13446
I1
s(V\u103d
p13447
V\u1031
p13448
V\u101b
p13449
tp13450
I11
s(V\u103c
p13451
V\u102f
p13452
V\u1019
p13453
tp13454
I1
s(V\u103a
p13455
V\u1005
p13456
V\u103d
p13457
tp13458
I6
s(V\u103a
p13459
g44
V\u1044
p13460
tp13461
I1
s(V\u1032
p13462
V\u1015
p13463
V\u102b
p13464
tp13465
I1
s(V\u102c
p13466
V\u1038
p13467
V\u1000
p13468
tp13469
I30
s(V\u102f
p13470
V\u1021
p13471
V\u101b
p13472
tp13473
I1
s(V\u1038
p13474
V\u1015
p13475
V\u1019
p13476
tp13477
I1
s(g44
V\u1047
p13478
V\u1040
p13479
tp13480
I3
s(g44
V\u201c
p13481
V\u101d
p13482
tp13483
I1
s(g44
V\u1041
p13484
V\u1044
p13485
tp13486
I1
s(V\u1015
p13487
V\u103c
p13488
V\u100a
p13489
tp13490
I57
s(V\u1019
p13491
V\u1019
p13492
V\u103c
p13493
tp13494
I2
s(V\u1000
p13495
V\u1021
p13496
V\u101b
p13497
tp13498
I1
s(V\u1010
p13499
V\u100a
p13500
V\u103a
p13501
tp13502
I12
s(g1554
g44
V\u1010
p13503
tp13504
I1
s(V\u1037
p13505
V\u101a
p13506
V\u1004
p13507
tp13508
I1
s(V\u102f
p13509
V\u1036
p13510
V\u101b
p13511
tp13512
I2
s(V\u101f
p13513
V\u102c
p13514
g44
tp13515
I14
s(V\u1038
p13516
V\u101c
p13517
V\u100a
p13518
tp13519
I9
s(V\u102b
p13520
V\u1038
p13521
V\u1014
p13522
tp13523
I4
s(V\u100a
p13524
V\u103a
p13525
V\u1037
p13526
tp13527
I26
s(V\u1036
p13528
V\u1038
p13529
V\u101c
p13530
tp13531
I1
s(V\u101d
p13532
V\u101b
p13533
V\u1031
p13534
tp13535
I1
s(V\u103a
p13536
V\u1038
p13537
V\u201d
p13538
tp13539
I5
s(V\u1032
p13540
g44
V\u1026
p13541
tp13542
I1
s(V\u101b
p13543
g44
V\u1010
p13544
tp13545
I1
s(V\u101d
p13546
V\u1031
p13547
V\u1038
p13548
tp13549
I3
s(V\u1010
p13550
V\u1030
p13551
V\u1005
p13552
tp13553
I1
s(V\u1036
p13554
V\u2019
p13555
g44
tp13556
I1
s(V\u102e
p13557
V\u104a
p13558
g44
tp13559
I2
s(V\u1001
p13560
V\u102f
p13561
V\u1015
p13562
tp13563
I1
s(V\u102f
p13564
g44
V\u1004
p13565
tp13566
I2
s(V\u1037
p13567
V\u1016
p13568
V\u1030
p13569
tp13570
I1
s(V\u1021
p13571
V\u1005
p13572
V\u102e
p13573
tp13574
I2
s(g44
V\u1043
p13575
g44
tp13576
I2
s(V\u1005
p13577
V\u102d
p13578
V\u1014
p13579
tp13580
I1
s(g44
V\u1010
p13581
V\u103d
p13582
tp13583
I9
s(V\u103c
p13584
V\u101e
p13585
V\u103d
p13586
tp13587
I1
s(V\u102f
p13588
V\u1038
p13589
V\u1011
p13590
tp13591
I2
s(V\u103e
p13592
V\u1010
p13593
V\u103a
p13594
tp13595
I22
s(V\u103a
p13596
V\u1038
p13597
V\u104c
p13598
tp13599
I1
s(V\u1021
p13600
V\u1006
p13601
V\u102d
p13602
tp13603
I2
s(V\u1038
p13604
V\u101e
p13605
V\u102e
p13606
tp13607
I5
s(V\u103a
p13608
V\u1016
p13609
V\u1010
p13610
tp13611
I1
s(V\u1037
p13612
V\u101c
p13613
V\u102d
p13614
tp13615
I5
s(V\u1010
p13616
V\u103a
p13617
V\u1010
p13618
tp13619
I21
s(V\u1010
p13620
V\u101e
p13621
V\u103d
p13622
tp13623
I1
s(V\u1021
p13624
V\u1011
p13625
V\u1000
p13626
tp13627
I2
s(g44
V\u1021
p13628
V\u101c
p13629
tp13630
I4
s(V\u1031
p13631
V\u1000
p13632
V\u103c
p13633
tp13634
I14
s(V\u103a
p13635
V\u1004
p13636
V\u1036
p13637
tp13638
I30
s(V\u1000
p13639
V\u102c
p13640
V\u1025
p13641
tp13642
I1
s(g44
V\u101a
p13643
V\u1001
p13644
tp13645
I4
s(V\u1021
p13646
V\u1011
p13647
V\u103d
p13648
tp13649
I7
s(V\u102e
p13650
V\u1000
p13651
g44
tp13652
I4
s(g44
V\u1018
p13653
V\u101a
p13654
tp13655
I6
s(V\u103a
p13656
V\u101f
p13657
V\u1030
p13658
tp13659
I1
s(V\u103a
p13660
V\u101c
p13661
V\u102c
p13662
tp13663
I19
s(V\u102c
p13664
V\u1010
p13665
V\u1019
p13666
tp13667
I2
s(V\u103a
p13668
V\u104b
p13669
V\u1000
p13670
tp13671
I1
s(g544
g352
g2948
tp13672
I3
s(g454
V\u1016
p13673
V\u103c
p13674
tp13675
I1
s(g44
V\u1012
p13676
V\u102e
p13677
tp13678
I21
s(V\u101a
p13679
V\u1014
p13680
V\u103a
p13681
tp13682
I9
s(V\u1046
p13683
g44
V\u101b
p13684
tp13685
I1
s(V\u103a
p13686
V\u101b
p13687
V\u1010
p13688
tp13689
I2
s(V\u101b
p13690
V\u101b
p13691
V\u1031
p13692
tp13693
I5
s(V\u103d
p13694
V\u1031
p13695
V\u1038
p13696
tp13697
I101
s(V\u201c
p13698
V\u1000
p13699
V\u103b
p13700
tp13701
I1
s(V\u1015
p13702
V\u102f
p13703
V\u1036
p13704
tp13705
I19
s(V\u100a
p13706
V\u102e
p13707
V\u1021
p13708
tp13709
I3
s(g44
V\u101b
p13710
V\u103d
p13711
tp13712
I23
s(g231
g44
g2608
tp13713
I2
s(V\u103d
p13714
V\u1032
p13715
V\u1000
p13716
tp13717
I10
s(V\u103a
p13718
V\u1037
p13719
V\u101b
p13720
tp13721
I14
s(V\u1037
p13722
V\u101b
p13723
V\u1015
p13724
tp13725
I2
s(V\u102f
p13726
V\u1010
p13727
V\u1001
p13728
tp13729
I1
s(V\u103a
p13730
V\u101e
p13731
V\u103d
p13732
tp13733
I3
s(V\u104b
p13734
g44
V\u1012
p13735
tp13736
I13
s(V\u1038
p13737
g44
V\u101c
p13738
tp13739
I12
s(V\u1036
p13740
V\u1038
p13741
V\u1021
p13742
tp13743
I5
s(g44
V\u1019
p13744
V\u1019
p13745
tp13746
I2
s(V\u1015
p13747
V\u102b
p13748
V\u1018
p13749
tp13750
I5
s(V\u103a
p13751
V\u1019
p13752
V\u101a
p13753
tp13754
I2
s(V\u103e
p13755
V\u102c
p13756
V\u101c
p13757
tp13758
I4
s(V\u103a
p13759
V\u1010
p13760
V\u1006
p13761
tp13762
I1
s(V\u102e
p13763
V\u1038
p13764
V\u1016
p13765
tp13766
I1
s(V\u1016
p13767
V\u103d
p13768
V\u1032
p13769
tp13770
I46
s(g109
g1297
g409
tp13771
I1
s(V\u102f
p13772
V\u1021
p13773
V\u1016
p13774
tp13775
I1
s(V\u201d
p13776
g44
V\u1000
p13777
tp13778
I1
ssS'font'
p13779
S'unicode'
p13780
sS'totalNGram'
p13781
I23374
sb.