ccopy_reg
_reconstructor
p0
(c__main__
ngramModel
p1
c__builtin__
object
p2
Ntp3
Rp4
(dp5
S'lang'
p6
S'burmese'
p7
sS'logSum'
p8
F2146.118184804865
sS'linesAdded'
p9
I162
sS'numSamples'
p10
I22314
sS'ngramLength'
p11
I3
sS'modelFileName'
p12
S'models/UnicodeBurmese_Model_3_model.save'
p13
sS'detectorType'
p14
S'NGRAM'
p15
sS'fileName'
p16
S'testdata/burmeseUnicode.txt'
p17
sS'model'
p18
(dp19
(VN
p20
VP
p21
V 
p22
tp23
I3
s(V\u1019
p24
V\u103a
p25
V\u1037
p26
tp27
I1
s(V\u1005
p28
V\u102c
p29
V\u1038
p30
tp31
I3
s(V\u103c
p32
V\u102e
p33
V\u1038
p34
tp35
I43
s(V\u102c
p36
V\u1038
p37
V\u1019
p38
tp39
I12
s(V\u103f
p40
V\u1014
p41
V\u102c
p42
tp43
I1
s(g22
V\u1000
p44
V\u1031
p45
tp46
I3
s(V\u1036
p47
V\u101d
p48
V\u1004
p49
tp50
I1
s(V\u102c
p51
V\u103a
p52
V\u1001
p53
tp54
I1
s(V\u1038
p55
g22
V\u1011
p56
tp57
I2
s(V\u103a
p58
V\u1005
p59
V\u1032
p60
tp61
I4
s(V\u103e
p62
V\u102c
p63
g22
tp64
I44
s(V\u1015
p65
V\u103c
p66
V\u1014
p67
tp68
I12
s(V\u1011
p69
V\u1031
p70
V\u102c
p71
tp72
I11
s(V\u102e
p73
V\u1018
p74
V\u102e
p75
tp76
I1
s(V\u1021
p77
V\u101c
p78
V\u1000
p79
tp80
I1
s(V\u102b
p81
V\u101d
p82
V\u1004
p83
tp84
I2
s(V\u1000
p85
V\u103a
p86
V\u1014
p87
tp88
I11
s(V\u102c
p89
V\u1019
p90
V\u103c
p91
tp92
I1
s(V\u102b
p93
V\u1014
p94
V\u102e
p95
tp96
I1
s(g22
V\u101e
p97
V\u1036
p98
tp99
I1
s(V\u101a
p100
V\u103a
p101
V\u1019
p102
tp103
I5
s(V\u103a
p104
V\u1015
p105
V\u103c
p106
tp107
I17
s(V\u1038
p108
g22
V\u1006
p109
tp110
I7
s(V\u1013
p111
V\u102c
p112
V\u1038
p113
tp114
I1
s(V\u101b
p115
V\u1004
p116
V\u103a
p117
tp118
I11
s(V\u1037
p119
g22
V\u1011
p120
tp121
I2
s(g22
V\u1011
p122
V\u102d
p123
tp124
I5
s(V\u1037
p125
V\u1018
p126
V\u102c
p127
tp128
I1
s(V\u1000
p129
V\u1014
p130
V\u103a
p131
tp132
I17
s(V\u1038
p133
V\u1010
p134
V\u102d
p135
tp136
I1
s(V\u1005
p137
V\u103a
p138
V\u1005
p139
tp140
I1
s(V\u1032
p141
V\u1011
p142
V\u1032
p143
tp144
I1
s(V\u1015
p145
V\u103d
p146
V\u102c
p147
tp148
I2
s(V\u1014
p149
V\u103a
p150
V\u101d
p151
tp152
I1
s(V\u1006
p153
V\u1000
p154
V\u103a
p155
tp156
I5
s(V\u1021
p157
V\u101e
p158
V\u1000
p159
tp160
I2
s(V\u1005
p161
V\u100a
p162
V\u103a
p163
tp164
I11
s(V\u1037
p165
V\u101b
p166
V\u1032
p167
tp168
I4
s(V\u103a
p169
V\u101b
p170
V\u1031
p171
tp172
I6
s(V\u1006
p173
V\u102d
p174
V\u102f
p175
tp176
I19
s(V\u1010
p177
V\u1032
p178
V\u1037
p179
tp180
I43
s(V\u1006
p181
V\u103d
p182
V\u102c
p183
tp184
I3
s(V\u103a
p185
g22
V\u101d
p186
tp187
I2
s(V\u1000
p188
V\u103d
p189
V\u1032
p190
tp191
I3
s(V\u1037
p192
V\u1021
p193
V\u1010
p194
tp195
I2
s(V\u103c
p196
V\u1036
p197
V\u101d
p198
tp199
I1
s(V\u1037
p200
V\u1006
p201
V\u102f
p202
tp203
I3
s(V(
p204
V\u1042
p205
V)
p206
tp207
I1
s(V\u1015
p208
V\u103a
p209
V\u1021
p210
tp211
I2
s(V\u1001
p212
V\u103c
p213
V\u102f
p214
tp215
I2
s(V\u102c
p216
V\u1010
p217
V\u103d
p218
tp219
I2
s(V\u102c
p220
V\u1038
p221
g22
tp222
I34
s(V\u1031
p223
V\u101c
p224
V\u103e
p225
tp226
I1
s(V\u1019
p227
V\u103c
p228
V\u102f
p229
tp230
I1
s(V\u103a
p231
V\u101c
p232
V\u103d
p233
tp234
I2
s(V\u1036
p235
V\u101b
p236
V\u1004
p237
tp238
I1
s(V\u1019
p239
V\u103a
p240
V\u1014
p241
tp242
I1
s(V\u1039
p243
V\u1002
p244
g22
tp245
I4
s(V\u1014
p246
V\u1031
p247
V\u1015
p248
tp249
I4
s(g22
V\u1000
p250
V\u103b
p251
tp252
I2
s(V\u1012
p253
V\u102b
p254
V\u1014
p255
tp256
I1
s(V\u1005
p257
V\u103a
p258
V\u101c
p259
tp260
I2
s(V\u101b
p261
V\u102c
p262
V\u101b
p263
tp264
I2
s(V\u1032
p265
V\u1037
p266
V\u1015
p267
tp268
I9
s(V\u103e
p269
V\u1031
p270
V\u1037
p271
tp272
I7
s(V\u1031
p273
V\u1021
p274
V\u102d
p275
tp276
I1
s(V\u1038
p277
V\u101e
p278
V\u102c
p279
tp280
I12
s(V\u1010
p281
V\u102d
p282
V\u101a
p283
tp284
I1
s(V\u1030
p285
V\u101f
p286
V\u102c
p287
tp288
I1
s(V\u101e
p289
V\u1019
p290
V\u1002
p291
tp292
I4
s(V\u100a
p293
V\u1031
p294
V\u102c
p295
tp296
I9
s(V\u102e
p297
V\u101c
p298
V\u100a
p299
tp300
I1
s(V\u1010
p301
V\u103a
p302
V\u1018
p303
tp304
I1
s(V\u102d
p305
V\u101a
p306
g22
tp307
I1
s(V\u103a
p308
V\u1006
p309
V\u103d
p310
tp311
I3
s(V\u1031
p312
V\u101f
p313
V\u102c
p314
tp315
I3
s(V\u103a
p316
V\u104b
p317
V\u000a
p318
tp319
I60
s(V\u101b
p320
V\u101b
p321
V\u103e
p322
tp323
I2
s(V\u1014
p324
V\u103a
p325
V\u1001
p326
tp327
I1
s(V\u103e
p328
V\u1031
p329
V\u102c
p330
tp331
I1
s(V\u1015
p332
V\u102b
p333
V\u1038
p334
tp335
I1
s(V\u1014
p336
V\u1031
p337
V\u1019
p338
tp339
I1
s(V\u102d
p340
V\u102f
p341
V\u1015
p342
tp343
I12
s(V\u101f
p344
V\u102e
p345
V\u101c
p346
tp347
I3
s(V\u101b
p348
V\u102c
p349
V\u1038
p350
tp351
I3
s(V\u1037
p352
g22
V\u101f
p353
tp354
I4
s(V\u102b
p355
g22
V\u1015
p356
tp357
I3
s(V\u103a
p358
V\u1038
p359
V\u1010
p360
tp361
I12
s(g22
g204
V\u1043
p362
tp363
I1
s(V\u1010
p364
V\u103a
p365
V\u1001
p366
tp367
I3
s(g22
V\u1006
p368
V\u102e
p369
tp370
I6
s(V\u1031
p371
V\u1010
p372
V\u1032
p373
tp374
I4
s(V\u103c
p375
V\u1019
p376
V\u103e
p377
tp378
I2
s(V\u100a
p379
V\u103a
p380
g22
tp381
I8
s(Vc
p382
Vh
p383
Vi
p384
tp385
I1
s(V\u1038
p386
V\u1014
p387
V\u1031
p388
tp389
I2
s(V\u1031
p390
g22
V\u1021
p391
tp392
I3
s(V\u1037
p393
V\u101c
p394
V\u100a
p395
tp396
I6
s(V\u103c
p397
V\u102c
p398
V\u1019
p399
tp400
I1
s(V\u1021
p401
V\u1001
p402
V\u1036
p403
tp404
I4
s(V\u103c
p405
V\u1031
p406
V\u101b
p407
tp408
I1
s(V\u1010
p409
V\u102c
p410
V\u1016
p411
tp412
I1
s(V\u103e
p413
V\u102c
p414
V\u1016
p415
tp416
I2
s(V\u101a
p417
V\u1037
p418
V\u103a
p419
tp420
I6
s(V\u1014
p421
V\u102c
p422
V\u1014
p423
tp424
I1
s(V\u1014
p425
V\u103d
p426
V\u1031
p427
tp428
I7
s(V\u1039
p429
V\u1018
p430
V\u102c
p431
tp432
I1
s(V\u1005
p433
V\u103a
p434
V\u1012
p435
tp436
I1
s(V\u1039
p437
V\u1002
p438
V\u102b
p439
tp440
I1
s(g22
V\u1041
p441
V\u101d
p442
tp443
I1
s(V\u102d
p444
g22
V\u1019
p445
tp446
I1
s(V\u103a
p447
V\u1001
p448
V\u1032
p449
tp450
I9
s(V\u103a
p451
g22
V\u1026
p452
tp453
I4
s(g22
V\u1000
p454
V\u102d
p455
tp456
I16
s(V\u1032
p457
V\u1014
p458
V\u1031
p459
tp460
I1
s(g22
V\u1019
p461
V\u102d
p462
tp463
I8
s(V\u1000
p464
V\u103a
p465
V\u101b
p466
tp467
I18
s(V\u102d
p468
V\u102f
p469
V\u1038
p470
tp471
I42
s(Vd
p472
g22
V\u101f
p473
tp474
I1
s(V\u1005
p475
V\u103a
p476
V\u101d
p477
tp478
I1
s(g22
V\u1010
p479
V\u1031
p480
tp481
I4
s(V\u1015
p482
V\u102f
p483
V\u1014
p484
tp485
I1
s(V\u1037
p486
g22
V\u1018
p487
tp488
I2
s(V\u102c
p489
V\u101b
p490
V\u102e
p491
tp492
I4
s(V\u1036
p493
V\u1000
p494
V\u102d
p495
tp496
I2
s(V\u103e
p497
V\u1030
p498
V\u1038
p499
tp500
I3
s(V\u102c
p501
V\u1019
p502
V\u1039
p503
tp504
I1
s(V\u1010
p505
V\u101a
p506
V\u103a
p507
tp508
I91
s(g22
V\u1006
p509
V\u102f
p510
tp511
I3
s(V\u101e
p512
V\u1010
p513
V\u1004
p514
tp515
I1
s(V\u1036
p516
V\u1010
p517
V\u1031
p518
tp519
I4
s(V\u1043
p520
V\u1049
p521
V\u1014
p522
tp523
I1
s(V\u1001
p524
V\u101b
p525
V\u102e
p526
tp527
I6
s(V\u1038
p528
V\u101b
p529
V\u102c
p530
tp531
I1
s(V\u1021
p532
V\u1010
p533
V\u103d
p534
tp535
I16
s(V\u1031
p536
V\u101b
p537
V\u1032
p538
tp539
I1
s(V\u1000
p540
V\u103c
p541
V\u103d
p542
tp543
I1
s(V\u102d
p544
V\u1001
p545
V\u102d
p546
tp547
I2
s(V\u102f
p548
g22
V\u1006
p549
tp550
I6
s(V\u1037
p551
V\u101b
p552
V\u1004
p553
tp554
I2
s(V\u1019
p555
V\u103b
p556
V\u1000
p557
tp558
I1
s(V\u102c
p559
g22
V\u1021
p560
tp561
I20
s(V\u1021
p562
V\u101d
p563
V\u1031
p564
tp565
I5
s(V\u1049
p566
V\u1014
p567
V\u103e
p568
tp569
I1
s(V\u1038
p570
V\u1000
p571
V\u102d
p572
tp573
I5
s(V\u103b
p574
V\u1014
p575
V\u103a
p576
tp577
I1
s(V\u1031
p578
V\u1010
p579
V\u1039
p580
tp581
I1
s(V\u1031
p582
V\u101e
p583
V\u102d
p584
tp585
I5
s(V\u1014
p586
V\u1031
p587
V\u1014
p588
tp589
I4
s(V\u101e
p590
V\u101c
p591
V\u102d
p592
tp593
I3
s(V\u1010
p594
V\u1030
p595
V\u100a
p596
tp597
I6
s(V\u1019
p598
V\u1002
p599
V\u1039
p600
tp601
I4
s(V\u103c
p602
V\u1010
p603
V\u102c
p604
tp605
I1
s(V\u101a
p606
V\u1031
p607
V\u102c
p608
tp609
I16
s(V\u1021
p610
V\u1016
p611
V\u103c
p612
tp613
I2
s(g22
V\u1000
p614
g22
tp615
I24
s(V\u1031
p616
V\u1038
p617
V\u101e
p618
tp619
I2
s(V\u1010
p620
V\u102e
p621
V\u101f
p622
tp623
I1
s(V\u1037
p624
V\u1010
p625
V\u1032
p626
tp627
I7
s(V\u100a
p628
V\u103a
p629
V\u1000
p630
tp631
I1
s(V\u1044
p632
V\u1045
p633
g22
tp634
I1
s(V\u103a
p635
V\u1015
p636
V\u102b
p637
tp638
I14
s(g22
V\u1021
p639
V\u1013
p640
tp641
I1
s(V\u103b
p642
g22
V\u1014
p643
tp644
I1
s(V\u103a
p645
V\u1010
p646
V\u103d
p647
tp648
I14
s(V\u103d
p649
V\u1032
p650
V\u1021
p651
tp652
I1
s(V\u103b
p653
V\u103d
p654
V\u1014
p655
tp656
I2
s(V\u1014
p657
V\u103e
p658
V\u102c
p659
tp660
I1
s(V\u103a
p661
V\u1021
p662
V\u1001
p663
tp664
I5
s(V\u1031
p665
V\u1015
p666
V\u103c
p667
tp668
I1
s(g22
V\u1006
p669
V\u102c
p670
tp671
I2
s(g22
V\u1007
p672
V\u1030
p673
tp674
I1
s(V\u102f
p675
g22
V\u1001
p676
tp677
I1
s(V\u1019
p678
V\u102d
p679
V\u1014
p680
tp681
I1
s(V\u1015
p682
V\u103c
p683
V\u1031
p684
tp685
I25
s(V\u1021
p686
V\u102d
p687
V\u102f
p688
tp689
I5
s(g22
V\u1015
p690
V\u103b
p691
tp692
I2
s(V\u1031
p693
V\u1001
p694
V\u102d
p695
tp696
I1
s(V\u102c
p697
V\u101e
p698
V\u102c
p699
tp700
I1
s(g21
g22
V\u1000
p701
tp702
I1
s(V\u1012
p703
V\u1031
p704
V\u101e
p705
tp706
I2
s(V\u103a
p707
V\u1001
p708
V\u102f
p709
tp710
I2
s(V\u102d
p711
V\u1000
p712
g22
tp713
I1
s(V\u1002
p714
V\u1039
p715
V\u1002
p716
tp717
I7
s(g22
V\u1018
p718
V\u1000
p719
tp720
I3
s(V\u1043
p721
g22
V\u101a
p722
tp723
I4
s(V\u1004
p724
V\u1014
p725
V\u103a
p726
tp727
I2
s(V\u101b
p728
V\u103e
p729
V\u1031
p730
tp731
I7
s(V\u1019
p732
V\u102c
p733
V\u1012
p734
tp735
I1
s(V\u1005
p736
V\u1031
p737
V\u102c
p738
tp739
I9
s(V\u103a
p740
V\u1021
p741
V\u1000
p742
tp743
I4
s(V\u1026
p744
g22
V\u1015
p745
tp746
I1
s(V\u1000
p747
g22
V\u1016
p748
tp749
I2
s(V\u1038
p750
V\u101c
p751
V\u102d
p752
tp753
I9
s(V\u103d
p754
V\u1031
p755
V\u1011
p756
tp757
I2
s(V\u1036
p758
V\u1019
p759
V\u102e
p760
tp761
I1
s(V\u1021
p762
V\u1001
p763
V\u102f
p764
tp765
I6
s(V\u101c
p766
V\u103e
p767
V\u102e
p768
tp769
I1
s(V\u1037
p770
V\u1015
p771
V\u102b
p772
tp773
I4
s(V\u102d
p774
V\u1014
p775
V\u103a
p776
tp777
I15
s(V\u1030
p778
g22
V\u1019
p779
tp780
I1
s(V\u101e
p781
V\u1010
p782
V\u102d
p783
tp784
I1
s(V\u1038
p785
V\u1015
p786
V\u1031
p787
tp788
I2
s(V\u103a
p789
V\u101d
p790
V\u1000
p791
tp792
I2
s(V\u1001
p793
V\u1010
p794
V\u103a
p795
tp796
I2
s(V\u102c
p797
V\u1016
p798
V\u103c
p799
tp800
I2
s(V\u1030
p801
V\u1021
p802
V\u100a
p803
tp804
I2
s(V\u1041
p805
V\u1043
p806
g22
tp807
I1
s(V\u1014
p808
V\u102d
p809
V\u1019
p810
tp811
I1
s(V\u102c
p812
V\u1010
p813
V\u102c
p814
tp815
I2
s(V\u1010
p816
V\u101a
p817
V\u1031
p818
tp819
I7
s(V\u1030
p820
V\u1010
p821
V\u102d
p822
tp823
I6
s(V\u101d
p824
V\u1031
p825
V\u1010
p826
tp827
I1
s(V\u1030
p828
g22
V\u1000
p829
tp830
I2
s(V\u1038
p831
V\u1007
p832
V\u1031
p833
tp834
I1
s(V\u103a
p835
V\u1026
p836
V\u1038
p837
tp838
I3
s(V\u1021
p839
V\u1014
p840
V\u103e
p841
tp842
I1
s(V\u102b
p843
V\u1038
p844
V\u1015
p845
tp846
I2
s(V\u1011
p847
V\u1032
p848
g22
tp849
I2
s(g22
V\u101e
p850
V\u1004
p851
tp852
I1
s(g22
V\u1010
p853
V\u1015
p854
tp855
I3
s(V\u1006
p856
V\u103d
p857
V\u101a
p858
tp859
I1
s(V\u1001
p860
V\u102b
p861
g22
tp862
I3
s(V\u1038
p863
V\u1021
p864
V\u1014
p865
tp866
I2
s(V\u1038
p867
V\u1010
p868
V\u1015
p869
tp870
I1
s(V\u1000
p871
V\u103d
p872
V\u1004
p873
tp874
I1
s(V\u102d
p875
V\u102f
p876
g22
tp877
I61
s(V\u1006
p878
V\u1010
p879
V\u103a
p880
tp881
I1
s(V\u102f
p882
g22
V\u1004
p883
tp884
I1
s(V\u101f
p885
V\u1031
p886
V\u102c
p887
tp888
I10
s(g22
V\u1000
p889
V\u1019
p890
tp891
I1
s(V\u1000
p892
g22
V\u1000
p893
tp894
I2
s(V\u1018
p895
V\u101c
p896
V\u102e
p897
tp898
I1
s(V\u101a
p899
V\u103a
p900
V\u101c
p901
tp902
I20
s(V\u101b
p903
g22
V\u1021
p904
tp905
I1
s(V\u1001
p906
V\u1036
p907
V\u1010
p908
tp909
I4
s(V\u102c
p910
V\u1006
p911
V\u1010
p912
tp913
I1
s(g22
V\u1001
p914
V\u1036
p915
tp916
I3
s(g22
V\u101c
p917
V\u1000
p918
tp919
I8
s(V\u103a
p920
V\u1016
p921
V\u103c
p922
tp923
I1
s(V\u102c
p924
V\u1019
p925
V\u100a
p926
tp927
I2
s(V\u1001
p928
V\u103c
p929
V\u1031
p930
tp931
I3
s(V\u1037
p932
V\u101c
p933
V\u102c
p934
tp935
I1
s(V\u1031
p936
V\u1037
p937
V\u1006
p938
tp939
I3
s(V\u1031
p940
V\u1010
p941
V\u102f
p942
tp943
I1
s(V\u1018
p944
V\u100f
p945
V\u1039
p946
tp947
I1
s(V\u1019
p948
V\u103d
p949
V\u1031
p950
tp951
I1
s(V\u103a
p952
V\u1015
p953
V\u102d
p954
tp955
I4
s(V\u1011
p956
V\u102d
p957
V\u1015
p958
tp959
I2
s(V\u1021
p960
V\u1013
p961
V\u102d
p962
tp963
I1
s(V\u101d
p964
V\u102d
p965
V\u102f
p966
tp967
I1
s(V\u103a
p968
V\u101c
p969
V\u102d
p970
tp971
I30
s(V\u1001
p972
V\u1036
p973
V\u101b
p974
tp975
I2
s(V\u100a
p976
V\u1037
p977
V\u103a
p978
tp979
I1
s(V\u101e
p980
V\u1030
p981
V\u1010
p982
tp983
I20
s(V\u1000
p984
V\u1039
p985
V\u1001
p986
tp987
I1
s(V\u102e
p988
V\u1019
p989
V\u103d
p990
tp991
I1
s(V\u1011
p992
V\u1030
p993
V\u1011
p994
tp995
I2
s(V\u102f
p996
V\u1038
p997
V\u1019
p998
tp999
I1
s(V\u103a
p1000
V\u1011
p1001
V\u1000
p1002
tp1003
I2
s(V\u102e
p1004
g22
V\u1005
p1005
tp1006
I1
s(V\u102f
p1007
V\u1000
p1008
V\u103d
p1009
tp1010
I1
s(V\u1031
p1011
V\u1037
p1012
g22
tp1013
I3
s(V\u101b
p1014
V\u102e
p1015
V\u1038
p1016
tp1017
I16
s(V\u1000
p1018
V\u103b
p1019
V\u1019
p1020
tp1021
I1
s(g22
V\u1005
p1022
V\u1014
p1023
tp1024
I2
s(V\u1038
p1025
V\u1014
p1026
V\u103d
p1027
tp1028
I5
s(V\u102c
p1029
V\u1038
p1030
V\u1001
p1031
tp1032
I3
s(V\u102e
p1033
g22
V\u101e
p1034
tp1035
I4
s(V\u103e
p1036
V\u102c
p1037
V\u1005
p1038
tp1039
I2
s(V\u103d
p1040
V\u103e
p1041
V\u1032
p1042
tp1043
I2
s(V\u102f
p1044
V\u1001
p1045
V\u102b
p1046
tp1047
I1
s(V\u1038
p1048
g22
V\u1041
p1049
tp1050
I1
s(V\u102d
p1051
V\u102f
p1052
V\u1001
p1053
tp1054
I3
s(V\u1038
p1055
g22
V\u101f
p1056
tp1057
I4
s(g22
V\u1017
p1058
V\u102f
p1059
tp1060
I1
s(V\u1005
p1061
V\u103a
p1062
V\u1001
p1063
tp1064
I3
s(V\u103a
p1065
V\u101b
p1066
V\u1015
p1067
tp1068
I10
s(V\u102c
p1069
g22
V\u1017
p1070
tp1071
I2
s(V\u102c
p1072
V\u103a
p1073
V\u1000
p1074
tp1075
I4
s(V\u1021
p1076
V\u101b
p1077
g22
tp1078
I1
s(V\u1038
p1079
V\u101a
p1080
V\u1031
p1081
tp1082
I2
s(V\u1004
p1083
V\u1036
p1084
g22
tp1085
I2
s(V\u102f
p1086
V\u1036
p1087
V\u1000
p1088
tp1089
I1
s(V\u1010
p1090
V\u103a
p1091
V\u1004
p1092
tp1093
I1
s(V\u1002
p1094
V\u103b
p1095
V\u103d
p1096
tp1097
I2
s(V\u103a
p1098
V\u1038
p1099
V\u1015
p1100
tp1101
I3
s(V\u1011
p1102
V\u101b
p1103
V\u102e
p1104
tp1105
I3
s(V\u1010
p1106
V\u1039
p1107
V\u1010
p1108
tp1109
I1
s(g22
V\u1010
p1110
V\u1000
p1111
tp1112
I1
s(V\u101c
p1113
V\u1031
p1114
V\u102c
p1115
tp1116
I7
s(V\u103d
p1117
V\u102d
p1118
V\u102f
p1119
tp1120
I1
s(V\u1038
p1121
g22
V\u1014
p1122
tp1123
I4
s(V\u103a
p1124
V\u1005
p1125
g22
tp1126
I2
s(V\u1039
p1127
V\u1002
p1128
V\u101c
p1129
tp1130
I2
s(V\u102e
p1131
V\u1016
p1132
V\u103c
p1133
tp1134
I1
s(V\u104b
p1135
g22
V\u1021
p1136
tp1137
I1
s(V\u102e
p1138
V\u1038
p1139
V\u101e
p1140
tp1141
I4
s(V\u102c
p1142
V\u104a
p1143
g22
tp1144
I1
s(V\u1014
p1145
V\u1031
p1146
g22
tp1147
I6
s(V\u1004
p1148
V\u103a
p1149
V\u1016
p1150
tp1151
I2
s(V\u1005
p1152
V\u102d
p1153
V\u1014
p1154
tp1155
I2
s(g22
V\u1016
p1156
V\u1000
p1157
tp1158
I1
s(V\u1010
p1159
V\u103d
p1160
V\u1000
p1161
tp1162
I8
s(V\u1031
p1163
V\u102c
p1164
V\u1016
p1165
tp1166
I1
s(V\u1001
p1167
V\u103c
p1168
V\u1004
p1169
tp1170
I2
s(V\u1031
p1171
V\u1016
p1172
V\u1014
p1173
tp1174
I2
s(V\u101e
p1175
V\u102d
p1176
V\u1019
p1177
tp1178
I2
s(g22
V\u1011
p1179
V\u102c
p1180
tp1181
I4
s(V\u103e
p1182
V\u102c
p1183
V\u1038
p1184
tp1185
I3
s(V\u101b
p1186
V\u102e
p1187
V\u1015
p1188
tp1189
I1
s(V\u102c
p1190
V\u1000
p1191
V\u103a
p1192
tp1193
I42
s(V\u1031
p1194
V\u1011
p1195
V\u102d
p1196
tp1197
I3
s(V\u1043
p1198
g206
V\u101b
p1199
tp1200
I1
s(V\u1038
p1201
V\u101b
p1202
V\u101e
p1203
tp1204
I1
s(V\u1037
p1205
V\u1018
p1206
V\u1030
p1207
tp1208
I1
s(V\u102d
p1209
V\u102f
p1210
V\u104a
p1211
tp1212
I1
s(V\u1030
p1213
V\u1037
p1214
V\u101c
p1215
tp1216
I1
s(V\u1021
p1217
V\u101b
p1218
V\u103d
p1219
tp1220
I4
s(V\u1011
p1221
V\u1019
p1222
V\u103a
p1223
tp1224
I1
s(V\u103d
p1225
V\u1036
p1226
V\u101b
p1227
tp1228
I2
s(g22
V\u1010
p1229
V\u101a
p1230
tp1231
I4
s(V\u1031
p1232
V\u1037
p1233
V\u1015
p1234
tp1235
I1
s(g22
V\u1005
p1236
V\u1031
p1237
tp1238
I7
s(V\u1031
p1239
V\u1011
p1240
V\u1032
p1241
tp1242
I1
s(V\u101c
p1243
V\u1000
p1244
V\u103a
p1245
tp1246
I14
s(V\u102f
p1247
V\u101c
p1248
V\u103b
p1249
tp1250
I1
s(V\u1019
p1251
V\u102d
p1252
V\u102f
p1253
tp1254
I8
s(V\u1038
p1255
V\u1021
p1256
V\u1031
p1257
tp1258
I1
s(g22
V\u1041
p1259
V\u1049
p1260
tp1261
I1
s(V\u1038
p1262
V\u1019
p1263
V\u102c
p1264
tp1265
I3
s(V\u1018
p1266
V\u102e
p1267
V\u1005
p1268
tp1269
I1
s(V\u103a
p1270
V\u1000
p1271
V\u102d
p1272
tp1273
I12
s(V\u1037
p1274
V\u1021
p1275
V\u1011
p1276
tp1277
I1
s(V\u1021
p1278
V\u1005
p1279
V\u1039
p1280
tp1281
I1
s(V\u1031
p1282
V\u1037
p1283
V\u1000
p1284
tp1285
I3
s(V\u103a
p1286
V\u101b
p1287
V\u1032
p1288
tp1289
I5
s(V\u102c
p1290
V\u101f
p1291
V\u102c
p1292
tp1293
I1
s(V\u101e
p1294
V\u1014
p1295
V\u103a
p1296
tp1297
I3
s(V\u102c
p1298
V\u1006
p1299
V\u102d
p1300
tp1301
I1
s(V\u1001
p1302
V\u1036
p1303
V\u1019
p1304
tp1305
I1
s(V\u102d
p1306
V\u1019
p1307
V\u103b
p1308
tp1309
I1
s(V\u1031
p1310
V\u1014
p1311
V\u1031
p1312
tp1313
I2
s(V\u1014
p1314
V\u103a
p1315
V\u000a
p1316
tp1317
I1
s(V\u103a
p1318
V\u1005
p1319
V\u100a
p1320
tp1321
I1
s(V\u1036
p1322
V\u1001
p1323
V\u103c
p1324
tp1325
I8
s(V\u1019
p1326
V\u1006
p1327
V\u102f
p1328
tp1329
I2
s(V\u1016
p1330
V\u103c
p1331
V\u1031
p1332
tp1333
I1
s(V\u101c
p1334
g22
V\u1048
p1335
tp1336
I1
s(V\u103a
p1337
g22
V\u1015
p1338
tp1339
I15
s(g22
V\u1000
p1340
V\u103c
p1341
tp1342
I11
s(V\u102c
p1343
V\u103a
p1344
g22
tp1345
I5
s(V\u1004
p1346
V\u1036
p1347
V\u1000
p1348
tp1349
I2
s(V\u102f
p1350
V\u1036
p1351
g22
tp1352
I3
s(V\u1032
p1353
V\u1037
p1354
V\u1014
p1355
tp1356
I1
s(V\u103d
p1357
V\u1031
p1358
g22
tp1359
I35
s(V\u1016
p1360
V\u102d
p1361
V\u1010
p1362
tp1363
I1
s(V\u103a
p1364
V\u1014
p1365
V\u102c
p1366
tp1367
I4
s(V\u100a
p1368
V\u102e
p1369
V\u1019
p1370
tp1371
I4
s(V\u103a
p1372
V\u101c
p1373
V\u1000
p1374
tp1375
I2
s(V\u1021
p1376
V\u1005
p1377
V\u100a
p1378
tp1379
I5
s(V\u1037
p1380
V\u1000
p1381
V\u102d
p1382
tp1383
I5
s(V\u1031
p1384
V\u1000
p1385
V\u102d
p1386
tp1387
I10
s(V\u1011
p1388
V\u103d
p1389
V\u1000
p1390
tp1391
I2
s(V\u1010
p1392
V\u103a
p1393
V\u1019
p1394
tp1395
I1
s(V\u1041
p1396
V\u1049
p1397
g22
tp1398
I1
s(V\u104a
p1399
g22
V\u1007
p1400
tp1401
I1
s(g22
V\u1006
p1402
V\u103d
p1403
tp1404
I4
s(V\u1031
p1405
V\u1005
p1406
V\u1031
p1407
tp1408
I1
s(V\u101c
p1409
V\u102c
p1410
V\u1016
p1411
tp1412
I1
s(V\u103d
p1413
V\u1031
p1414
V\u1037
p1415
tp1416
I8
s(V\u103d
p1417
V\u1000
p1418
V\u103a
p1419
tp1420
I14
s(V\u1038
p1421
V\u1019
p1422
V\u103e
p1423
tp1424
I18
s(g22
V\u1005
p1425
V\u1036
p1426
tp1427
I1
s(V\u1005
p1428
V\u102f
p1429
V\u1000
p1430
tp1431
I10
s(V\u102f
p1432
V\u101e
p1433
V\u102c
p1434
tp1435
I1
s(V\u1037
p1436
V\u1014
p1437
V\u1032
p1438
tp1439
I2
s(V\u100a
p1440
V\u102e
p1441
V\u1010
p1442
tp1443
I2
s(V\u1015
p1444
V\u1004
p1445
V\u103a
p1446
tp1447
I4
s(V\u1036
p1448
V\u101e
p1449
V\u1030
p1450
tp1451
I1
s(V\u1001
p1452
V\u103a
p1453
g22
tp1454
I1
s(V\u1038
p1455
V\u1015
p1456
V\u103d
p1457
tp1458
I4
s(V\u1038
p1459
V\u1014
p1460
V\u1032
p1461
tp1462
I6
s(V\u101b
p1463
V\u103e
p1464
V\u102d
p1465
tp1466
I27
s(V\u101b
p1467
V\u103d
p1468
V\u101a
p1469
tp1470
I7
s(V\u1019
p1471
V\u1031
p1472
V\u104a
p1473
tp1474
I2
s(V\u1019
p1475
V\u103c
p1476
V\u1014
p1477
tp1478
I3
s(V\u101c
p1479
V\u103e
p1480
V\u1019
p1481
tp1482
I2
s(g22
V\u1021
p1483
V\u1005
p1484
tp1485
I21
s(g22
V\u101e
p1486
V\u102e
p1487
tp1488
I1
s(V\u103c
p1489
V\u1036
p1490
V\u1005
p1491
tp1492
I1
s(V\u103a
p1493
V\u1037
p1494
V\u1019
p1495
tp1496
I3
s(V\u1001
p1497
V\u1031
p1498
V\u102b
p1499
tp1500
I8
s(V\u103a
p1501
g22
V\u1012
p1502
tp1503
I8
s(V\u1012
p1504
V\u102e
p1505
V\u1001
p1506
tp1507
I1
s(V\u1000
p1508
V\u102e
p1509
g22
tp1510
I1
s(V\u1038
p1511
V\u101e
p1512
V\u100a
p1513
tp1514
I1
s(V\u1037
p1515
V\u103a
p1516
V\u1015
p1517
tp1518
I1
s(V\u1038
p1519
V\u1021
p1520
V\u102f
p1521
tp1522
I1
s(V\u1011
p1523
V\u1000
p1524
V\u103a
p1525
tp1526
I4
s(V\u1004
p1527
V\u103a
p1528
V\u101b
p1529
tp1530
I16
s(V\u1017
p1531
V\u101f
p1532
V\u102d
p1533
tp1534
I1
s(V\u1012
p1535
V\u102b
p1536
V\u1010
p1537
tp1538
I1
s(V\u1009
p1539
V\u103a
p1540
V\u1019
p1541
tp1542
I2
s(V\u101d
p1543
V\u1000
p1544
V\u103a
p1545
tp1546
I3
s(V\u102f
p1547
V\u1016
p1548
V\u103c
p1549
tp1550
I1
s(V\u102f
p1551
V\u1000
p1552
V\u101b
p1553
tp1554
I6
s(V\u102f
p1555
V\u1037
p1556
V\u1014
p1557
tp1558
I3
s(V\u103c
p1559
V\u102f
p1560
V\u1015
p1561
tp1562
I1
s(V\u1036
p1563
V\u1018
p1564
V\u1030
p1565
tp1566
I1
s(g22
VI
p1567
VS
p1568
tp1569
I2
s(V\u1031
p1570
V\u1026
p1571
V\u1038
p1572
tp1573
I1
s(V\u103a
p1574
V\u1012
p1575
V\u1014
p1576
tp1577
I2
s(V\u103e
p1578
V\u1032
p1579
V\u1015
p1580
tp1581
I1
s(g22
V\u1004
p1582
V\u101a
p1583
tp1584
I1
s(V\u1001
p1585
V\u102f
p1586
V\u1001
p1587
tp1588
I1
s(V\u1001
p1589
V\u102f
p1590
V\u101c
p1591
tp1592
I3
s(V\u1037
p1593
V\u101b
p1594
V\u103e
p1595
tp1596
I2
s(V\u1026
p1597
V\u1038
p1598
V\u1016
p1599
tp1600
I2
s(V\u1030
p1601
V\u1038
p1602
V\u104b
p1603
tp1604
I2
s(V\u102e
p1605
V\u1011
p1606
V\u1032
p1607
tp1608
I2
s(V\u1005
p1609
V\u103a
p1610
V\u101a
p1611
tp1612
I1
s(V\u1038
p1613
V\u1010
p1614
V\u1001
p1615
tp1616
I1
s(V\u1036
p1617
V\u1010
p1618
V\u1032
p1619
tp1620
I2
s(V\u102c
p1621
V\u1038
p1622
V\u1016
p1623
tp1624
I2
s(V\u1037
p1625
V\u1017
p1626
V\u103a
p1627
tp1628
I1
s(V\u1010
p1629
V\u103a
p1630
V\u1010
p1631
tp1632
I2
s(V\u1014
p1633
V\u103a
p1634
V\u1016
p1635
tp1636
I1
s(V\u1015
p1637
V\u103a
p1638
V\u1015
p1639
tp1640
I4
s(V\u1005
p1641
V\u1010
p1642
V\u1004
p1643
tp1644
I4
s(g22
V\u1012
p1645
V\u102e
p1646
tp1647
I7
s(V\u103a
p1648
V\u1038
p1649
V\u1001
p1650
tp1651
I9
s(V\u103a
p1652
V\u1019
p1653
V\u102c
p1654
tp1655
I3
s(V\u103d
p1656
V\u1031
p1657
V\u1000
p1658
tp1659
I17
s(V\u1015
p1660
V\u103a
p1661
V\u1000
p1662
tp1663
I7
s(V\u1031
p1664
g22
V\u101c
p1665
tp1666
I7
s(V\u1000
p1667
V\u1021
p1668
V\u1006
p1669
tp1670
I1
s(V\u103b
p1671
V\u1019
p1672
V\u103e
p1673
tp1674
I1
s(g22
V\u100a
p1675
V\u102e
p1676
tp1677
I2
s(V\u103e
p1678
V\u102f
p1679
V\u1000
p1680
tp1681
I4
s(V\u1017
p1682
V\u101b
p1683
V\u1031
p1684
tp1685
I1
s(V\u1011
p1686
V\u102d
p1687
V\u1001
p1688
tp1689
I1
s(V\u1006
p1690
V\u1004
p1691
V\u1037
p1692
tp1693
I1
s(V\u1005
p1694
V\u102f
p1695
g22
tp1696
I2
s(V\u1031
p1697
V\u101e
p1698
V\u102c
p1699
tp1700
I1
s(V\u1021
p1701
V\u1016
p1702
V\u103d
p1703
tp1704
I9
s(V\u1001
p1705
V\u103c
p1706
V\u1036
p1707
tp1708
I1
s(g206
V\u101b
p1709
V\u1000
p1710
tp1711
I1
s(g22
V\u1019
p1712
V\u103e
p1713
tp1714
I4
s(V\u102e
p1715
V\u1038
p1716
V\u101a
p1717
tp1718
I10
s(g22
V\u1015
p1719
V\u1031
p1720
tp1721
I6
s(V\u1014
p1722
V\u102c
p1723
V\u101b
p1724
tp1725
I1
s(V\u1011
p1726
V\u1019
p1727
V\u1006
p1728
tp1729
I2
s(V\u1032
p1730
V\u1021
p1731
V\u1015
p1732
tp1733
I1
s(V\u102c
p1734
V\u1011
p1735
V\u102c
p1736
tp1737
I2
s(g22
V\u1021
p1738
V\u1010
p1739
tp1740
I18
s(V\u102c
p1741
V\u1014
p1742
V\u103a
p1743
tp1744
I1
s(V\u1015
p1745
V\u103a
p1746
V\u1016
p1747
tp1748
I5
s(V\u102c
p1749
V\u1005
p1750
V\u101b
p1751
tp1752
I2
s(g22
V\u1005
p1753
V\u100a
p1754
tp1755
I3
s(V\u103c
p1756
V\u102d
p1757
V\u1010
p1758
tp1759
I8
s(V\u103a
p1760
V\u1001
p1761
V\u103d
p1762
tp1763
I2
s(V\u1015
p1764
V\u1032
p1765
V\u101c
p1766
tp1767
I1
s(V\u103a
p1768
V\u1015
p1769
V\u1004
p1770
tp1771
I4
s(V\u1014
p1772
V\u1031
p1773
V\u1002
p1774
tp1775
I1
s(V\u101d
p1776
V\u1031
p1777
V\u1016
p1778
tp1779
I2
s(g22
V\u1041
p1780
V\u1043
p1781
tp1782
I1
s(V\u102e
p1783
V\u1019
p1784
V\u1036
p1785
tp1786
I1
s(V\u1021
p1787
V\u100a
p1788
V\u102e
p1789
tp1790
I2
s(V\u101c
p1791
V\u102c
p1792
g22
tp1793
I1
s(g22
V\u100a
p1794
V\u103d
p1795
tp1796
I2
s(V\u1031
p1797
V\u1010
p1798
V\u101a
p1799
tp1800
I2
s(V\u100a
p1801
V\u103a
p1802
V\u1038
p1803
tp1804
I36
s(g22
V\u1012
p1805
V\u100f
p1806
tp1807
I2
s(g22
V\u1021
p1808
V\u101b
p1809
tp1810
I10
s(V\u1031
p1811
V\u1037
p1812
V\u1019
p1813
tp1814
I4
s(V\u102c
p1815
V\u103a
p1816
V\u101c
p1817
tp1818
I4
s(V\u1014
p1819
V\u102c
p1820
g22
tp1821
I2
s(V\u103a
p1822
V\u1010
p1823
g22
tp1824
I1
s(V\u103e
p1825
V\u102d
p1826
V\u1001
p1827
tp1828
I3
s(V\u101b
p1829
V\u1001
p1830
V\u102d
p1831
tp1832
I16
s(V\u102f
p1833
V\u1037
p1834
V\u1021
p1835
tp1836
I2
s(V\u1043
p1837
V\u1001
p1838
V\u102f
p1839
tp1840
I1
s(V\u1010
p1841
g22
V\u1021
p1842
tp1843
I2
s(V\u103a
p1844
g22
V\u1001
p1845
tp1846
I7
s(V\u1015
p1847
V\u103a
p1848
V\u101b
p1849
tp1850
I4
s(V\u101e
p1851
V\u1030
p1852
g22
tp1853
I7
s(V\u1037
p1854
g22
V\u1041
p1855
tp1856
I1
s(V\u102c
p1857
V\u1010
p1858
V\u103a
p1859
tp1860
I1
s(V\u1038
p1861
g22
V\u1002
p1862
tp1863
I1
s(V\u103d
p1864
V\u103e
p1865
V\u1014
p1866
tp1867
I2
s(V\u102c
p1868
V\u1006
p1869
V\u101a
p1870
tp1871
I1
s(V\u102e
p1872
V\u1038
p1873
V\u1019
p1874
tp1875
I4
s(V\u1015
p1876
V\u103a
p1877
g22
tp1878
I16
s(V\u102c
p1879
V\u1016
p1880
V\u103d
p1881
tp1882
I2
s(V\u1036
p1883
V\u101b
p1884
V\u1032
p1885
tp1886
I1
s(V\u102c
p1887
V\u1038
p1888
V\u1012
p1889
tp1890
I2
s(V\u102d
p1891
V\u1014
p1892
V\u1031
p1893
tp1894
I3
s(V\u1030
p1895
V\u1019
p1896
V\u103e
p1897
tp1898
I3
s(g22
V\u1044
p1899
V\u1040
p1900
tp1901
I1
s(V\u103e
p1902
V\u102f
p1903
g22
tp1904
I5
s(V\u1041
p1905
V\u1040
p1906
g22
tp1907
I3
s(V\u102d
p1908
V\u1010
p1909
V\u101a
p1910
tp1911
I3
s(V\u103d
p1912
V\u1031
p1913
V\u1006
p1914
tp1915
I2
s(V\u1030
p1916
V\u1015
p1917
V\u102f
p1918
tp1919
I1
s(V\u1019
p1920
V\u102f
p1921
V\u1014
p1922
tp1923
I3
s(V\u1010
p1924
V\u102e
p1925
V\u1014
p1926
tp1927
I2
s(Vf
p1928
Va
p1929
g384
tp1930
I1
s(V\u103a
p1931
V\u1018
p1932
V\u102c
p1933
tp1934
I6
s(V\u102d
p1935
V\u1019
p1936
V\u103a
p1937
tp1938
I9
s(V\u103a
p1939
V\u1010
p1940
V\u1032
p1941
tp1942
I15
s(V\u1004
p1943
V\u103a
p1944
V\u1018
p1945
tp1946
I9
s(g22
V\u1011
p1947
V\u1032
p1948
tp1949
I3
s(V\u1019
p1950
V\u101b
p1951
V\u103e
p1952
tp1953
I4
s(V\u101e
p1954
V\u1030
p1955
V\u101f
p1956
tp1957
I1
s(V\u1001
p1958
V\u103b
p1959
V\u1004
p1960
tp1961
I2
s(V\u102f
p1962
V\u1010
p1963
V\u1031
p1964
tp1965
I3
s(V\u102b
p1966
V\u1010
p1967
V\u103d
p1968
tp1969
I1
s(V\u103d
p1970
V\u1032
p1971
V\u1037
p1972
tp1973
I9
s(V\u1036
p1974
V\u1000
p1975
V\u103c
p1976
tp1977
I1
s(V\u102f
p1978
V\u101e
p1979
V\u1030
p1980
tp1981
I1
s(V\u1010
p1982
V\u102c
p1983
V\u1010
p1984
tp1985
I1
s(g22
V\u101c
p1986
V\u103e
p1987
tp1988
I3
s(V\u1031
p1989
V\u101b
p1990
V\u1006
p1991
tp1992
I1
s(V\u1011
p1993
V\u1032
p1994
V\u1000
p1995
tp1996
I4
s(V\u102c
p1997
V\u1000
p1998
V\u102d
p1999
tp2000
I4
s(V\u102b
p2001
V\u1000
p2002
V\u103a
p2003
tp2004
I3
s(V\u1002
p2005
V\u102b
p2006
V\u1014
p2007
tp2008
I1
s(g22
V\u1005
p2009
V\u102e
p2010
tp2011
I6
s(g22
V\u1021
p2012
V\u1016
p2013
tp2014
I9
s(V\u103a
p2015
V\u101e
p2016
V\u1000
p2017
tp2018
I3
s(V\u1001
p2019
V\u1036
p2020
V\u1018
p2021
tp2022
I1
s(V\u102d
p2023
V\u102f
p2024
V\u101c
p2025
tp2026
I7
s(g22
V\u1005
p2027
V\u1015
p2028
tp2029
I1
s(V\u100a
p2030
V\u102e
p2031
V\u101c
p2032
tp2033
I1
s(V\u1002
p2034
V\u1014
p2035
V\u103d
p2036
tp2037
I2
s(V\u102f
p2038
V\u1014
p2039
V\u103a
p2040
tp2041
I16
s(V\u103c
p2042
V\u103f
p2043
V\u1014
p2044
tp2045
I1
s(V\u102c
p2046
V\u1001
p2047
V\u1036
p2048
tp2049
I1
s(V\u1000
p2050
V\u1030
p2051
V\u1021
p2052
tp2053
I2
s(V\u1038
p2054
V\u1014
p2055
V\u103e
p2056
tp2057
I1
s(V\u1037
p2058
g22
V\u1016
p2059
tp2060
I1
s(V\u103d
p2061
V\u103e
p2062
V\u1031
p2063
tp2064
I15
s(V\u102e
p2065
g22
V\u101c
p2066
tp2067
I1
s(V\u1019
p2068
V\u1032
p2069
V\u1006
p2070
tp2071
I1
s(V\u102e
p2072
V\u1038
p2073
V\u101b
p2074
tp2075
I13
s(V\u1010
p2076
V\u1030
p2077
V\u1019
p2078
tp2079
I2
s(V\u1021
p2080
V\u1000
p2081
V\u1032
p2082
tp2083
I1
s(V\u101b
p2084
V\u102e
p2085
g22
tp2086
I4
s(V\u1038
p2087
V\u1019
p2088
V\u103b
p2089
tp2090
I5
s(V\u1005
p2091
V\u1039
p2092
V\u1005
p2093
tp2094
I5
s(V\u103d
p2095
V\u1031
p2096
V\u1014
p2097
tp2098
I4
s(V\u1010
p2099
V\u102c
p2100
V\u1015
p2101
tp2102
I3
s(V\u103a
p2103
g22
V\u101e
p2104
tp2105
I7
s(V\u1000
p2106
g22
V\u1015
p2107
tp2108
I15
s(V\u1002
p2109
g22
V\u100c
p2110
tp2111
I1
s(V\u1018
p2112
V\u102f
p2113
V\u1014
p2114
tp2115
I1
s(V\u1036
p2116
V\u1021
p2117
V\u1019
p2118
tp2119
I1
s(V\u101b
p2120
V\u1015
p2121
V\u103c
p2122
tp2123
I1
s(V\u103a
p2124
V\u1038
p2125
V\u1014
p2126
tp2127
I7
s(V\u103a
p2128
V\u1016
p2129
V\u102d
p2130
tp2131
I10
s(V\u1040
p2132
g22
V\u101e
p2133
tp2134
I1
s(V\u1000
p2135
V\u103c
p2136
V\u1019
p2137
tp2138
I8
s(V\u102d
p2139
V\u1010
p2140
V\u102d
p2141
tp2142
I8
s(V\u102f
p2143
V\u1021
p2144
V\u1014
p2145
tp2146
I1
s(V\u1001
p2147
V\u103c
p2148
V\u102c
p2149
tp2150
I10
s(V\u1021
p2151
V\u101e
p2152
V\u102d
p2153
tp2154
I1
s(V\u1005
p2155
V\u102e
p2156
V\u1000
p2157
tp2158
I1
s(V\u102c
p2159
V\u1010
p2160
V\u101a
p2161
tp2162
I1
s(V\u1021
p2163
V\u1000
p2164
V\u103b
p2165
tp2166
I2
s(V\u103c
p2167
V\u102c
p2168
g22
tp2169
I3
s(g22
VA
p2170
g20
tp2171
I2
s(V\u1005
p2172
V\u1010
p2173
V\u103d
p2174
tp2175
I2
s(g22
V\u1019
p2176
V\u1032
p2177
tp2178
I1
s(V\u102f
p2179
g22
V\u101e
p2180
tp2181
I5
s(V\u1015
p2182
V\u103c
p2183
g22
tp2184
I1
s(g384
Vr
p2185
g22
tp2186
I1
s(V\u1038
p2187
V\u1011
p2188
V\u102c
p2189
tp2190
I9
s(V\u101c
p2191
V\u1030
p2192
V\u1011
p2193
tp2194
I1
s(V\u103a
p2195
V\u1010
p2196
V\u1014
p2197
tp2198
I6
s(V\u1021
p2199
V\u1031
p2200
V\u1038
p2201
tp2202
I2
s(V\u102c
p2203
V\u101c
p2204
V\u100a
p2205
tp2206
I3
s(V\u1014
p2207
V\u103a
p2208
V\u101b
p2209
tp2210
I3
s(V\u103d
p2211
V\u1032
p2212
V\u1010
p2213
tp2214
I2
s(V\u100a
p2215
V\u1005
p2216
V\u103b
p2217
tp2218
I4
s(V\u1032
p2219
g22
V\u1000
p2220
tp2221
I1
s(V\u1004
p2222
V\u1037
p2223
V\u103a
p2224
tp2225
I11
s(V\u1021
p2226
V\u1001
p2227
V\u1014
p2228
tp2229
I1
s(V\u1018
p2230
V\u1014
p2231
V\u103d
p2232
tp2233
I1
s(V\u1038
p2234
V\u1011
p2235
V\u1032
p2236
tp2237
I2
s(V\u102c
p2238
V\u1002
p2239
V\u1010
p2240
tp2241
I1
s(g1568
g22
V\u1021
p2242
tp2243
I2
s(V\u1010
p2244
V\u101c
p2245
V\u1031
p2246
tp2247
I2
s(V\u1036
p2248
V\u101e
p2249
V\u102c
p2250
tp2251
I1
s(V\u103b
p2252
g22
V\u1011
p2253
tp2254
I1
s(g21
g22
V\u1015
p2255
tp2256
I1
s(V\u101b
p2257
V\u1032
p2258
V\u1010
p2259
tp2260
I3
s(g22
V\u1000
p2261
V\u1021
p2262
tp2263
I1
s(V\u1014
p2264
V\u1032
p2265
V\u1037
p2266
tp2267
I33
s(V\u1032
p2268
V\u1037
p2269
V\u1021
p2270
tp2271
I6
s(g22
V\u101f
p2272
V\u102d
p2273
tp2274
I5
s(V\u103a
p2275
V\u1000
p2276
V\u103b
p2277
tp2278
I4
s(V\u1012
p2279
V\u102e
p2280
V\u1019
p2281
tp2282
I6
s(V\u1010
p2283
V\u102d
p2284
V\u1014
p2285
tp2286
I8
s(V\u1031
p2287
V\u1006
p2288
V\u102e
p2289
tp2290
I2
s(V\u1036
p2291
V\u101e
p2292
V\u1014
p2293
tp2294
I1
s(g22
V\u1014
p2295
V\u1032
p2296
tp2297
I9
s(V\u103a
p2298
V\u1005
p2299
V\u1001
p2300
tp2301
I1
s(V\u103c
p2302
V\u102f
p2303
V\u101c
p2304
tp2305
I2
s(V\u101b
p2306
V\u1032
p2307
V\u1037
p2308
tp2309
I17
s(V\u103e
p2310
V\u1036
p2311
V\u1019
p2312
tp2313
I1
s(V\u102c
p2314
V\u103a
p2315
V\u1015
p2316
tp2317
I1
s(V\u1021
p2318
V\u1000
p2319
V\u103c
p2320
tp2321
I16
s(V\u103e
p2322
V\u102f
p2323
V\u1021
p2324
tp2325
I1
s(V\u1032
p2326
g22
V\u1016
p2327
tp2328
I1
s(V\u102f
p2329
V\u1010
p2330
V\u102c
p2331
tp2332
I2
s(V\u1019
p2333
V\u101a
p2334
V\u103a
p2335
tp2336
I13
s(V\u101b
p2337
V\u102c
p2338
V\u1019
p2339
tp2340
I2
s(V\u101b
p2341
V\u102e
p2342
V\u1000
p2343
tp2344
I1
s(V\u102c
p2345
V\u101d
p2346
V\u1014
p2347
tp2348
I1
s(V\u102d
p2349
V\u102f
p2350
V\u101e
p2351
tp2352
I4
s(V\u1037
p2353
g22
V\u1001
p2354
tp2355
I4
s(V\u103a
p2356
V\u1006
p2357
V\u1014
p2358
tp2359
I9
s(g22
V\u1011
p2360
V\u103d
p2361
tp2362
I2
s(V\u1001
p2363
V\u103d
p2364
V\u102c
p2365
tp2366
I1
s(g22
V\u1010
p2367
V\u102d
p2368
tp2369
I15
s(V\u101d
p2370
V\u1014
p2371
V\u103a
p2372
tp2373
I10
s(V\u1031
p2374
g22
V\u1011
p2375
tp2376
I4
s(V\u1037
p2377
g22
V\u1014
p2378
tp2379
I6
s(V\u1038
p2380
V\u1010
p2381
V\u103d
p2382
tp2383
I6
s(V\u1000
p2384
V\u102e
p2385
V\u1000
p2386
tp2387
I1
s(V\u103d
p2388
V\u1004
p2389
V\u103a
p2390
tp2391
I25
s(V\u1031
p2392
V\u102c
p2393
V\u101e
p2394
tp2395
I1
s(g22
V\u1021
p2396
V\u102c
p2397
tp2398
I3
s(V\u102f
p2399
V\u1036
p2400
V\u1016
p2401
tp2402
I2
s(g22
V\u1021
p2403
V\u1031
p2404
tp2405
I3
s(V\u1021
p2406
V\u1011
p2407
V\u102d
p2408
tp2409
I1
s(V\u102b
p2410
V\u1004
p2411
V\u103a
p2412
tp2413
I8
s(V\u102e
p2414
V\u1021
p2415
V\u1019
p2416
tp2417
I3
s(V\u102c
p2418
g22
g204
tp2419
I1
s(V\u1038
p2420
V\u1010
p2421
V\u1032
p2422
tp2423
I9
s(V\u102c
p2424
V\u101c
p2425
V\u1031
p2426
tp2427
I1
s(V\u1037
p2428
V\u1021
p2429
V\u1000
p2430
tp2431
I1
s(V\u102f
p2432
V\u1036
p2433
V\u1038
p2434
tp2435
I26
s(V\u103b
p2436
V\u103e
p2437
V\u1019
p2438
tp2439
I1
s(V\u1005
p2440
V\u1001
p2441
V\u1014
p2442
tp2443
I1
s(V\u102c
p2444
V\u1038
p2445
V\u1010
p2446
tp2447
I13
s(V\u103a
p2448
V\u101e
p2449
V\u102d
p2450
tp2451
I1
s(V\u1031
p2452
V\u102c
p2453
V\u1011
p2454
tp2455
I2
s(V\u1038
p2456
V\u1021
p2457
V\u1006
p2458
tp2459
I1
s(V\u1036
p2460
V\u101b
p2461
V\u103e
p2462
tp2463
I2
s(V\u102e
p2464
V\u1015
p2465
V\u1010
p2466
tp2467
I1
s(V\u1032
p2468
g22
V\u1015
p2469
tp2470
I1
s(V\u103a
p2471
V\u1010
p2472
V\u1031
p2473
tp2474
I2
s(V\u103a
p2475
V\u1011
p2476
V\u1015
p2477
tp2478
I2
s(V\u102e
p2479
V\u1014
p2480
V\u1031
p2481
tp2482
I1
s(V\u102d
p2483
V\u101c
p2484
V\u102c
p2485
tp2486
I2
s(V\u1000
p2487
V\u103a
p2488
V\u101d
p2489
tp2490
I2
s(g22
V\u101e
p2491
V\u1018
p2492
tp2493
I8
s(V\u1038
p2494
V\u101b
p2495
V\u1032
p2496
tp2497
I1
s(g22
V\u101c
p2498
V\u102d
p2499
tp2500
I17
s(V\u1037
p2501
g22
V\u101a
p2502
tp2503
I1
s(V\u1021
p2504
V\u102d
p2505
V\u1019
p2506
tp2507
I2
s(V\u102c
p2508
V\u101b
p2509
V\u102c
p2510
tp2511
I1
s(V\u103e
p2512
V\u102f
p2513
V\u1015
p2514
tp2515
I2
s(V\u103a
p2516
V\u1006
p2517
V\u102d
p2518
tp2519
I1
s(g22
V\u1015
p2520
V\u102f
p2521
tp2522
I3
s(V\u1010
p2523
V\u101d
p2524
V\u1000
p2525
tp2526
I1
s(V\u101c
p2527
V\u102e
p2528
V\u1000
p2529
tp2530
I1
s(V\u103a
p2531
g22
V\u100a
p2532
tp2533
I2
s(V\u1038
p2534
g22
V\u1021
p2535
tp2536
I30
s(V\u1038
p2537
g22
V\u1016
p2538
tp2539
I7
s(g22
V\u101b
p2540
V\u1004
p2541
tp2542
I1
s(V\u1010
p2543
V\u102e
p2544
V\u1000
p2545
tp2546
I1
s(V\u102f
p2547
V\u1001
p2548
V\u1032
p2549
tp2550
I1
s(V\u103a
p2551
V\u1038
p2552
V\u1000
p2553
tp2554
I5
s(V\u1038
p2555
V\u1021
p2556
V\u1010
p2557
tp2558
I2
s(V\u1010
p2559
V\u103a
p2560
V\u1011
p2561
tp2562
I1
s(Vy
p2563
g1928
g1929
tp2564
I1
s(V\u1044
p2565
V\u1040
p2566
g22
tp2567
I1
s(V\u1026
p2568
V\u1038
p2569
g22
tp2570
I2
s(V\u1031
p2571
V\u102b
p2572
V\u1000
p2573
tp2574
I3
s(V\u102f
p2575
V\u1036
p2576
V\u1019
p2577
tp2578
I1
s(V\u101e
p2579
V\u1014
p2580
V\u1037
p2581
tp2582
I1
s(V\u102c
p2583
V\u1014
p2584
V\u102d
p2585
tp2586
I3
s(g22
V\u1012
p2587
V\u102f
p2588
tp2589
I2
s(V\u1015
p2590
V\u1010
p2591
V\u103a
p2592
tp2593
I10
s(V\u1001
p2594
V\u1031
p2595
V\u1010
p2596
tp2597
I1
s(V\u1014
p2598
V\u103a
p2599
V\u1018
p2600
tp2601
I1
s(g22
V\u1001
p2602
V\u1032
p2603
tp2604
I13
s(V\u1030
p2605
V\u1038
p2606
V\u1001
p2607
tp2608
I3
s(V\u1010
p2609
V\u101b
p2610
V\u102c
p2611
tp2612
I3
s(V\u1038
p2613
V\u1016
p2614
V\u1000
p2615
tp2616
I6
s(g22
V\u1005
p2617
V\u1000
p2618
tp2619
I5
s(V\u101c
p2620
V\u103a
p2621
V\u101f
p2622
tp2623
I1
s(V\u1037
p2624
V\u1019
p2625
V\u1015
p2626
tp2627
I1
s(V\u1038
p2628
g22
V\u1000
p2629
tp2630
I17
s(V\u103a
p2631
V\u1021
p2632
V\u101e
p2633
tp2634
I2
s(V\u1037
p2635
g22
V\u1025
p2636
tp2637
I1
s(V\u102b
p2638
V\u103a
p2639
V\u1010
p2640
tp2641
I1
s(V\u1021
p2642
V\u1006
p2643
V\u1004
p2644
tp2645
I3
s(V\u102e
p2646
g22
V\u1001
p2647
tp2648
I3
s(V\u1031
p2649
V\u101b
p2650
V\u103e
p2651
tp2652
I2
s(V\u1038
p2653
V\u1012
p2654
V\u1031
p2655
tp2656
I2
s(V\u1038
p2657
V\u1006
p2658
V\u102f
p2659
tp2660
I7
s(V\u101c
p2661
V\u1012
p2662
V\u103a
p2663
tp2664
I1
s(V\u1010
p2665
V\u1005
p2666
V\u1031
p2667
tp2668
I2
s(V\u1019
p2669
V\u100a
p2670
V\u102e
p2671
tp2672
I1
s(V\u102f
p2673
g22
V\u1010
p2674
tp2675
I5
s(V\u102f
p2676
V\u1004
p2677
V\u103a
p2678
tp2679
I72
s(V\u1031
p2680
V\u1038
p2681
V\u1015
p2682
tp2683
I4
s(V\u102e
p2684
V\u1000
p2685
V\u1014
p2686
tp2687
I1
s(V\u1037
p2688
V\u1015
p2689
V\u1031
p2690
tp2691
I2
s(V\u1031
p2692
V\u102c
p2693
V\u1010
p2694
tp2695
I8
s(V\u102d
p2696
V\u101e
p2697
V\u1031
p2698
tp2699
I1
s(V\u1000
p2700
g22
V\u1021
p2701
tp2702
I7
s(V\u1019
p2703
V\u1039
p2704
V\u1018
p2705
tp2706
I1
s(V\u101e
p2707
V\u103d
p2708
V\u101a
p2709
tp2710
I2
s(V\u101b
p2711
V\u103e
p2712
g22
tp2713
I3
s(V\u102c
p2714
g22
V\u101b
p2715
tp2716
I6
s(V\u1038
p2717
V\u1021
p2718
V\u101d
p2719
tp2720
I5
s(V\u1011
p2721
V\u1032
p2722
V\u101d
p2723
tp2724
I1
s(g22
V\u101e
p2725
V\u1019
p2726
tp2727
I9
s(V\u103a
p2728
V\u1038
p2729
V\u1019
p2730
tp2731
I7
s(V\u1010
p2732
V\u101b
p2733
V\u102f
p2734
tp2735
I2
s(V\u1015
p2736
V\u103a
p2737
V\u101e
p2738
tp2739
I3
s(V\u102e
p2740
V\u1010
p2741
V\u103d
p2742
tp2743
I6
s(V\u101b
p2744
V\u1000
p2745
V\u103a
p2746
tp2747
I12
s(V\u1005
p2748
V\u1014
p2749
V\u1031
p2750
tp2751
I1
s(V\u1014
p2752
V\u1031
p2753
V\u1000
p2754
tp2755
I1
s(V\u100f
p2756
V\u1039
p2757
V\u100d
p2758
tp2759
I1
s(V\u1019
p2760
V\u103a
p2761
V\u1038
p2762
tp2763
I16
s(V\u101a
p2764
V\u103a
p2765
V\u1014
p2766
tp2767
I1
s(V\u1010
p2768
V\u102e
p2769
g22
tp2770
I12
s(V\u1010
p2771
V\u103a
p2772
V\u101c
p2773
tp2774
I1
s(V\u1038
p2775
V\u101c
p2776
V\u102f
p2777
tp2778
I2
s(V\u1038
p2779
V\u1005
p2780
V\u102f
p2781
tp2782
I12
s(V\u101e
p2783
V\u103d
p2784
V\u1004
p2785
tp2786
I2
s(V\u102f
p2787
V\u104a
p2788
g22
tp2789
I2
s(V\u1038
p2790
g22
V\u1005
p2791
tp2792
I13
s(V\u1038
p2793
V\u101e
p2794
V\u1010
p2795
tp2796
I2
s(V\u101b
p2797
V\u102f
p2798
V\u101b
p2799
tp2800
I4
s(V\u1005
p2801
V\u102f
p2802
V\u1006
p2803
tp2804
I1
s(V\u1039
p2805
V\u1010
p2806
g22
tp2807
I1
s(V\u1009
p2808
V\u103a
p2809
V\u1014
p2810
tp2811
I3
s(V\u103a
p2812
V\u101b
p2813
V\u1001
p2814
tp2815
I1
s(V\u101b
p2816
V\u103e
p2817
V\u1005
p2818
tp2819
I1
s(V\u101b
p2820
V\u1006
p2821
V\u1032
p2822
tp2823
I1
s(V\u1015
p2824
V\u103c
p2825
V\u1001
p2826
tp2827
I1
s(V\u103a
p2828
V\u1005
p2829
V\u1010
p2830
tp2831
I2
s(V\u101c
p2832
V\u102f
p2833
V\u1015
p2834
tp2835
I14
s(V\u1021
p2836
V\u1000
p2837
V\u1030
p2838
tp2839
I2
s(V\u1042
p2840
V\u1045
p2841
g22
tp2842
I1
s(V\u1038
p2843
V\u1001
p2844
V\u1032
p2845
tp2846
I6
s(V\u102e
p2847
V\u1038
p2848
V\u1021
p2849
tp2850
I3
s(V\u101b
p2851
g22
V\u1010
p2852
tp2853
I4
s(V\u1004
p2854
V\u103a
p2855
V\u1019
p2856
tp2857
I4
s(V\u101b
p2858
V\u1015
p2859
V\u103a
p2860
tp2861
I14
s(V\u103a
p2862
V\u1038
p2863
V\u1016
p2864
tp2865
I6
s(V\u1032
p2866
V\u101b
p2867
V\u1005
p2868
tp2869
I2
s(g22
V\u1041
p2870
V\u1045
p2871
tp2872
I1
s(V\u1005
p2873
V\u102f
p2874
V\u101c
p2875
tp2876
I1
s(V\u100a
p2877
V\u103d
p2878
V\u103e
p2879
tp2880
I2
s(V\u1000
p2881
g22
V\u1006
p2882
tp2883
I5
s(V\u1015
p2884
V\u102f
p2885
V\u1002
p2886
tp2887
I3
s(V\u1036
p2888
V\u1019
p2889
V\u103e
p2890
tp2891
I3
s(V\u1031
p2892
V\u102c
p2893
V\u1037
p2894
tp2895
I13
s(V\u103a
p2896
V\u1018
p2897
V\u1014
p2898
tp2899
I1
s(V\u104b
p2900
g22
V\u1006
p2901
tp2902
I1
s(V\u1031
p2903
V\u1011
p2904
V\u103d
p2905
tp2906
I1
s(g22
V\u1005
p2907
V\u102f
p2908
tp2909
I1
s(V\u1015
p2910
V\u103c
p2911
V\u102e
p2912
tp2913
I24
s(V\u103a
p2914
V\u101b
p2915
V\u102f
p2916
tp2917
I3
s(V\u1018
p2918
V\u103d
p2919
V\u102c
p2920
tp2921
I5
s(V\u1038
p2922
V\u1019
p2923
V\u1031
p2924
tp2925
I2
s(V\u1000
p2926
V\u103c
p2927
V\u1032
p2928
tp2929
I1
s(V\u1021
p2930
V\u1010
p2931
V\u102d
p2932
tp2933
I7
s(V\u1000
p2934
V\u103c
p2935
V\u102d
p2936
tp2937
I6
s(V\u101c
p2938
V\u1005
p2939
V\u103a
p2940
tp2941
I1
s(V\u1036
p2942
g22
V\u1015
p2943
tp2944
I4
s(g22
V\u1001
p2945
V\u103d
p2946
tp2947
I5
s(V\u100a
p2948
V\u103a
p2949
V\u101b
p2950
tp2951
I3
s(V\u1016
p2952
V\u103d
p2953
V\u1031
p2954
tp2955
I1
s(V\u101d
p2956
V\u1004
p2957
V\u103a
p2958
tp2959
I11
s(V\u102c
p2960
V\u1038
p2961
V\u101c
p2962
tp2963
I5
s(V\u1000
p2964
V\u103a
p2965
V\u1001
p2966
tp2967
I17
s(V\u1039
p2968
V\u1019
p2969
V\u1010
p2970
tp2971
I6
s(V\u1038
p2972
V\u1000
p2973
V\u103d
p2974
tp2975
I2
s(V\u102f
p2976
V\u1036
p2977
V\u1037
p2978
tp2979
I2
s(V\u1014
p2980
V\u1031
p2981
V\u1010
p2982
tp2983
I7
s(V\u103a
p2984
V\u1037
p2985
V\u1021
p2986
tp2987
I1
s(V\u1000
p2988
V\u103d
p2989
V\u1014
p2990
tp2991
I1
s(V\u1036
p2992
V\u1037
p2993
g22
tp2994
I1
s(V\u1021
p2995
V\u1010
p2996
V\u1014
p2997
tp2998
I1
s(V\u1041
p2999
V\u101d
p3000
g22
tp3001
I1
s(V\u103d
p3002
V\u1010
p3003
V\u103d
p3004
tp3005
I1
s(V\u103a
p3006
V\u101b
p3007
V\u1004
p3008
tp3009
I2
s(V\u101e
p3010
V\u102c
p3011
V\u1038
p3012
tp3013
I19
s(V\u101c
p3014
V\u102c
p3015
V\u1038
p3016
tp3017
I4
s(V\u1037
p3018
V\u1010
p3019
V\u103d
p3020
tp3021
I1
s(V\u101c
p3022
V\u103e
p3023
V\u1005
p3024
tp3025
I1
s(V\u1012
p3026
V\u1031
p3027
V\u102b
p3028
tp3029
I13
s(V\u100a
p3030
V\u103a
p3031
V\u1010
p3032
tp3033
I4
s(V\u1037
p3034
V\u101b
p3035
V\u1019
p3036
tp3037
I2
s(g22
V\u1021
p3038
V\u101e
p3039
tp3040
I3
s(V\u100a
p3041
V\u103a
p3042
V\u1011
p3043
tp3044
I2
s(V\u1000
p3045
V\u102f
p3046
V\u1014
p3047
tp3048
I4
s(V\u1012
p3049
V\u102e
p3050
V\u1021
p3051
tp3052
I6
s(V\u103a
p3053
V\u1010
p3054
V\u102d
p3055
tp3056
I7
s(g22
V\u1005
p3057
V\u101d
p3058
tp3059
I7
s(V\u101c
p3060
V\u102f
p3061
V\u1036
p3062
tp3063
I5
s(V\u1010
p3064
V\u1004
p3065
V\u103a
p3066
tp3067
I13
s(V\u1005
p3068
V\u103b
p3069
V\u1031
p3070
tp3071
I4
s(V\u1032
p3072
V\u101c
p3073
V\u103d
p3074
tp3075
I1
s(V\u102f
p3076
V\u1021
p3077
V\u1015
p3078
tp3079
I2
s(V\u1030
p3080
V\u1037
p3081
g22
tp3082
I4
s(V\u1005
p3083
V\u101c
p3084
V\u102c
p3085
tp3086
I1
s(V\u103d
p3087
V\u1032
p3088
V\u1015
p3089
tp3090
I1
s(g204
V\u1043
p3091
g206
tp3092
I1
s(V\u103d
p3093
V\u1031
p3094
V\u101c
p3095
tp3096
I3
s(V\u102c
p3097
V\u101e
p3098
V\u1015
p3099
tp3100
I1
s(V\u101e
p3101
V\u1030
p3102
V\u1000
p3103
tp3104
I1
s(V\u103d
p3105
V\u102c
p3106
V\u1038
p3107
tp3108
I18
s(V\u103a
p3109
g22
V\u1016
p3110
tp3111
I5
s(V\u1000
p3112
g22
V\u101d
p3113
tp3114
I1
s(V\u102f
p3115
V\u101a
p3116
V\u103a
p3117
tp3118
I2
s(g22
V\u1019
p3119
V\u101b
p3120
tp3121
I4
s(V\u103e
p3122
V\u102d
p3123
V\u1014
p3124
tp3125
I5
s(V\u102f
p3126
V\u1000
p3127
V\u102d
p3128
tp3129
I4
s(V\u1016
p3130
V\u103c
p3131
V\u1004
p3132
tp3133
I1
s(V\u1000
p3134
V\u103a
p3135
V\u101e
p3136
tp3137
I2
s(V\u1038
p3138
g22
V\u1043
p3139
tp3140
I4
s(V\u103a
p3141
V\u1004
p3142
V\u1014
p3143
tp3144
I2
s(V\u103a
p3145
V\u1017
p3146
V\u101b
p3147
tp3148
I1
s(V\u1037
p3149
V\u1001
p3150
V\u103b
p3151
tp3152
I6
s(V\u102c
p3153
V\u1010
p3154
V\u1031
p3155
tp3156
I2
s(V\u102d
p3157
V\u102f
p3158
V\u1004
p3159
tp3160
I72
s(V\u102c
p3161
g22
g1567
tp3162
I1
s(g22
V\u101b
p3163
V\u1032
p3164
tp3165
I6
s(g22
V\u100a
p3166
V\u1005
p3167
tp3168
I5
s(V\u1000
p3169
V\u1010
p3170
V\u100a
p3171
tp3172
I1
s(V\u101c
p3173
V\u1030
p3174
V\u1019
p3175
tp3176
I3
s(V\u1010
p3177
V\u103a
p3178
V\u1014
p3179
tp3180
I1
s(V\u103a
p3181
V\u1038
p3182
V\u1005
p3183
tp3184
I11
s(V\u1031
p3185
V\u1021
p3186
V\u1014
p3187
tp3188
I2
s(V\u1030
p3189
V\u1010
p3190
V\u103d
p3191
tp3192
I15
s(V\u101e
p3193
V\u102c
p3194
V\u1021
p3195
tp3196
I1
s(V\u1014
p3197
V\u103a
p3198
V\u1014
p3199
tp3200
I5
s(V\u101b
p3201
V\u103e
p3202
V\u1010
p3203
tp3204
I1
s(V\u1019
p3205
V\u103b
p3206
V\u103e
p3207
tp3208
I2
s(g22
V\u1010
p3209
V\u1005
p3210
tp3211
I14
s(g22
V\u1012
p3212
V\u1031
p3213
tp3214
I13
s(V\u1004
p3215
V\u103a
p3216
V\u1006
p3217
tp3218
I10
s(V\u1006
p3219
V\u102e
p3220
V\u1038
p3221
tp3222
I13
s(V\u103e
p3223
V\u1032
p3224
V\u1021
p3225
tp3226
I1
s(V\u1021
p3227
V\u1015
p3228
V\u103a
p3229
tp3230
I3
s(g2170
g20
g21
tp3231
I3
s(V\u103a
p3232
V\u1006
p3233
V\u1031
p3234
tp3235
I2
s(V\u102c
p3236
V\u101b
p3237
V\u1031
p3238
tp3239
I3
s(V\u103b
p3240
V\u103e
p3241
V\u1000
p3242
tp3243
I1
s(V\u101b
p3244
V\u102e
p3245
V\u1005
p3246
tp3247
I2
s(V\u1037
p3248
V\u103a
p3249
g22
tp3250
I17
s(g22
V\u101c
p3251
V\u1030
p3252
tp3253
I9
s(V\u103a
p3254
V\u1021
p3255
V\u101b
p3256
tp3257
I4
s(V\u1031
p3258
g22
V\u1010
p3259
tp3260
I1
s(V\u1032
p3261
V\u1042
p3262
g22
tp3263
I1
s(V\u1014
p3264
V\u1010
p3265
V\u103a
p3266
tp3267
I1
s(V\u1038
p3268
V\u1010
p3269
V\u101a
p3270
tp3271
I5
s(g22
V\u1011
p3272
V\u100a
p3273
tp3274
I1
s(V\u1021
p3275
V\u1001
p3276
V\u103c
p3277
tp3278
I3
s(V\u102d
p3279
V\u1010
p3280
V\u103a
p3281
tp3282
I6
s(V\u1011
p3283
V\u1032
p3284
V\u1011
p3285
tp3286
I1
s(V\u1031
p3287
V\u1038
p3288
V\u1021
p3289
tp3290
I1
s(V\u1031
p3291
V\u102c
p3292
V\u101b
p3293
tp3294
I1
s(V\u101e
p3295
V\u1019
p3296
V\u102c
p3297
tp3298
I3
s(V\u103a
p3299
V\u101c
p3300
V\u100a
p3301
tp3302
I4
s(V\u1014
p3303
V\u1039
p3304
V\u1010
p3305
tp3306
I1
s(V\u103a
p3307
g22
V\u101b
p3308
tp3309
I10
s(g22
V\u1019
p3310
V\u1011
p3311
tp3312
I1
s(V\u1014
p3313
V\u1005
p3314
V\u103a
p3315
tp3316
I2
s(V\u1019
p3317
V\u103c
p3318
V\u102d
p3319
tp3320
I10
s(V\u1038
p3321
V\u1019
p3322
V\u103c
p3323
tp3324
I2
s(g22
V\u101e
p3325
V\u1031
p3326
tp3327
I4
s(V\u100a
p3328
g22
V\u101b
p3329
tp3330
I1
s(V\u103e
p3331
V\u102e
p3332
V\u1038
p3333
tp3334
I2
s(V\u102e
p3335
g22
V\u1015
p3336
tp3337
I4
s(V\u1012
p3338
V\u103a
p3339
V\u1000
p3340
tp3341
I1
s(V\u1016
p3342
V\u101b
p3343
V\u1014
p3344
tp3345
I3
s(V\u1038
p3346
V\u1014
p3347
V\u102d
p3348
tp3349
I4
s(V\u1037
p3350
V\u1000
p3351
V\u103b
p3352
tp3353
I1
s(V\u1031
p3354
V\u1021
p3355
V\u1011
p3356
tp3357
I2
s(V\u101b
p3358
V\u103e
p3359
V\u102f
p3360
tp3361
I1
s(V\u102f
p3362
V\u1001
p3363
V\u103b
p3364
tp3365
I1
s(V\u103a
p3366
V\u1005
p3367
V\u103a
p3368
tp3369
I4
s(V\u103a
p3370
V\u1001
p3371
V\u1031
p3372
tp3373
I1
s(V\u103c
p3374
V\u1031
p3375
V\u1021
p3376
tp3377
I1
s(V\u103a
p3378
g22
V\u1005
p3379
tp3380
I6
s(V\u1038
p3381
V\u101b
p3382
V\u1031
p3383
tp3384
I21
s(g22
V\u1000
p3385
V\u102c
p3386
tp3387
I1
s(V\u1000
p3388
V\u103a
p3389
V\u101c
p3390
tp3391
I9
s(V\u103a
p3392
V\u1004
p3393
V\u103d
p3394
tp3395
I1
s(V\u1004
p3396
V\u1036
p3397
V\u1010
p3398
tp3399
I6
s(V\u1021
p3400
V\u102e
p3401
V\u101b
p3402
tp3403
I1
s(V\u1010
p3404
V\u1030
p3405
V\u101b
p3406
tp3407
I2
s(V\u103c
p3408
V\u103d
p3409
V\u1010
p3410
tp3411
I1
s(V\u1010
p3412
V\u1036
p3413
V\u1001
p3414
tp3415
I2
s(V\u1021
p3416
V\u102f
p3417
V\u1014
p3418
tp3419
I1
s(g22
V\u1014
p3420
V\u102d
p3421
tp3422
I20
s(V\u1030
p3423
g22
V\u1042
p3424
tp3425
I1
s(g22
V\u1010
p3426
V\u1030
p3427
tp3428
I1
s(V\u102d
p3429
V\u102f
p3430
V\u1006
p3431
tp3432
I1
s(V\u101b
p3433
g22
V\u101c
p3434
tp3435
I1
s(V\u1037
p3436
g22
V\u1019
p3437
tp3438
I9
s(V\u102f
p3439
V\u1006
p3440
V\u102d
p3441
tp3442
I1
s(V\u102c
p3443
g22
V\u1012
p3444
tp3445
I1
s(g22
V\u101d
p3446
V\u1004
p3447
tp3448
I4
s(V\u102e
p3449
V\u1001
p3450
V\u103d
p3451
tp3452
I1
s(V\u102d
p3453
V\u1005
p3454
V\u1039
p3455
tp3456
I2
s(V\u1000
p3457
V\u103c
p3458
V\u1036
p3459
tp3460
I2
s(V\u103a
p3461
g22
V\u1018
p3462
tp3463
I2
s(V\u1000
p3464
V\u103b
p3465
V\u1004
p3466
tp3467
I4
s(g22
V\u101f
p3468
V\u102e
p3469
tp3470
I3
s(V\u1039
p3471
V\u1002
p3472
V\u1014
p3473
tp3474
I2
s(V\u1037
p3475
V\u1014
p3476
V\u1031
p3477
tp3478
I8
s(V\u1031
p3479
V\u101b
p3480
V\u102c
p3481
tp3482
I3
s(V\u1031
p3483
V\u102c
p3484
V\u1006
p3485
tp3486
I2
s(V\u101c
p3487
V\u103d
p3488
V\u1032
p3489
tp3490
I1
s(V\u100a
p3491
V\u102e
p3492
g22
tp3493
I2
s(g22
V\u101e
p3494
V\u1010
p3495
tp3496
I2
s(V\u1038
p3497
g22
V\u1019
p3498
tp3499
I8
s(V\u1019
p3500
V\u102c
p3501
V\u1038
p3502
tp3503
I6
s(V\u1037
p3504
V\u103a
p3505
V\u1000
p3506
tp3507
I4
s(g2185
g382
g383
tp3508
I1
s(V\u1005
p3509
V\u103a
p3510
V\u1014
p3511
tp3512
I2
s(V\u1011
p3513
V\u103d
p3514
V\u1031
p3515
tp3516
I2
s(V\u1012
p3517
V\u102b
p3518
V\u1015
p3519
tp3520
I3
s(V\u103a
p3521
V\u1038
p3522
V\u101b
p3523
tp3524
I9
s(V\u1014
p3525
V\u103a
p3526
V\u1019
p3527
tp3528
I7
s(g22
V\u1001
p3529
V\u1031
p3530
tp3531
I5
s(V\u102e
p3532
V\u1001
p3533
V\u101b
p3534
tp3535
I1
s(g22
V\u1010
p3536
V\u100a
p3537
tp3538
I2
s(V\u1005
p3539
V\u101b
p3540
V\u102c
p3541
tp3542
I2
s(V\u103a
p3543
V\u1005
p3544
V\u102f
p3545
tp3546
I2
s(g22
V\u1019
p3547
V\u102f
p3548
tp3549
I3
s(V\u1038
p3550
V\u101e
p3551
V\u1019
p3552
tp3553
I7
s(V\u1012
p3554
V\u102b
p3555
V\u1000
p3556
tp3557
I2
s(V\u1015
p3558
V\u102b
p3559
V\u1015
p3560
tp3561
I2
s(V\u1031
p3562
V\u1038
p3563
V\u101f
p3564
tp3565
I1
s(V\u1038
p3566
V\u101a
p3567
V\u102c
p3568
tp3569
I10
s(V\u1014
p3570
V\u1031
p3571
V\u1026
p3572
tp3573
I1
s(V\u1005
p3574
V\u102e
p3575
V\u101b
p3576
tp3577
I1
s(V\u101e
p3578
V\u103d
p3579
V\u1015
p3580
tp3581
I1
s(V\u1032
p3582
V\u1006
p3583
V\u103d
p3584
tp3585
I1
s(V\u1038
p3586
V\u1001
p3587
V\u103b
p3588
tp3589
I12
s(V\u1005
p3590
V\u102c
p3591
g22
tp3592
I4
s(V\u103a
p3593
V\u101e
p3594
V\u1004
p3595
tp3596
I1
s(g22
V\u1018
p3597
V\u102e
p3598
tp3599
I1
s(V\u101e
p3600
V\u1030
p3601
V\u1037
p3602
tp3603
I5
s(V\u1006
p3604
V\u101c
p3605
V\u1004
p3606
tp3607
I1
s(V\u1036
p3608
V\u1014
p3609
V\u102d
p3610
tp3611
I1
s(V\u103a
p3612
V\u1001
p3613
V\u103b
p3614
tp3615
I7
s(V\u101c
p3616
V\u1036
p3617
V\u1016
p3618
tp3619
I1
s(V\u100c
p3620
V\u1031
p3621
V\u1038
p3622
tp3623
I1
s(V\u101b
p3624
V\u1031
p3625
V\u102c
p3626
tp3627
I14
s(V\u1031
p3628
V\u101e
p3629
V\u1001
p3630
tp3631
I1
s(V\u103c
p3632
V\u1001
p3633
V\u1032
p3634
tp3635
I1
s(g22
V\u1004
p3636
V\u103c
p3637
tp3638
I1
s(V\u1015
p3639
V\u102b
p3640
V\u104b
p3641
tp3642
I6
s(V\u1004
p3643
V\u103a
p3644
V\u1014
p3645
tp3646
I3
s(V\u1031
p3647
V\u102c
p3648
V\u104a
p3649
tp3650
I1
s(V\u102f
p3651
g22
V\u1015
p3652
tp3653
I8
s(V\u102e
p3654
V\u101b
p3655
V\u1004
p3656
tp3657
I1
s(V\u102b
p3658
V\u1014
p3659
V\u1031
p3660
tp3661
I1
s(V\u102d
p3662
V\u101e
p3663
V\u1030
p3664
tp3665
I2
s(g22
V\u1041
p3666
V\u1041
p3667
tp3668
I1
s(V\u1015
p3669
V\u103a
p3670
V\u1010
p3671
tp3672
I4
s(V\u1015
p3673
V\u1011
p3674
V\u1019
p3675
tp3676
I2
s(V\u1021
p3677
V\u1014
p3678
V\u103a
p3679
tp3680
I1
s(V\u1021
p3681
V\u102d
p3682
V\u1010
p3683
tp3684
I1
s(V\u1013
p3685
V\u102c
p3686
V\u1010
p3687
tp3688
I1
s(V\u1037
p3689
V\u1000
p3690
V\u103d
p3691
tp3692
I1
s(V\u103a
p3693
V\u1014
p3694
V\u103e
p3695
tp3696
I2
s(V\u1004
p3697
V\u1036
p3698
V\u1037
p3699
tp3700
I1
s(g22
V\u100a
p3701
V\u103e
p3702
tp3703
I2
s(V\u1015
p3704
V\u1032
p3705
g22
tp3706
I1
s(V\u103c
p3707
V\u1004
p3708
V\u1037
p3709
tp3710
I2
s(g22
V\u1015
p3711
V\u1005
p3712
tp3713
I2
s(V\u1010
p3714
V\u1014
p3715
V\u103a
p3716
tp3717
I10
s(V\u1030
p3718
V\u1011
p3719
V\u102f
p3720
tp3721
I1
s(V\u102f
p3722
V\u1010
p3723
V\u101a
p3724
tp3725
I4
s(V\u102f
p3726
V\u101e
p3727
V\u101c
p3728
tp3729
I1
s(V\u103a
p3730
V\u1018
p3731
V\u1030
p3732
tp3733
I1
s(V\u1019
p3734
V\u103b
p3735
V\u102d
p3736
tp3737
I23
s(V\u102b
p3738
V\u103a
p3739
V\u1001
p3740
tp3741
I2
s(V\u1000
p3742
V\u102d
p3743
V\u102f
p3744
tp3745
I59
s(g22
V\u101b
p3746
V\u101c
p3747
tp3748
I1
s(V\u1014
p3749
V\u103e
p3750
V\u1036
p3751
tp3752
I1
s(V\u103a
p3753
V\u1001
p3754
V\u103a
p3755
tp3756
I1
s(V\u1038
p3757
V\u1005
p3758
V\u102c
p3759
tp3760
I3
s(V\u1019
p3761
V\u103c
p3762
V\u1004
p3763
tp3764
I3
s(g22
V\u1021
p3765
V\u1015
p3766
tp3767
I7
s(g22
V\u1010
p3768
V\u1014
p3769
tp3770
I7
s(V\u103a
p3771
V\u1001
p3772
V\u102d
p3773
tp3774
I10
s(V\u1038
p3775
V\u1000
p3776
V\u103b
p3777
tp3778
I3
s(V\u103a
p3779
V\u101a
p3780
V\u102c
p3781
tp3782
I1
s(V\u1010
p3783
V\u102f
p3784
V\u1014
p3785
tp3786
I6
s(V\u101c
p3787
V\u102c
p3788
V\u1010
p3789
tp3790
I2
s(V\u1039
p3791
V\u1005
p3792
V\u1005
p3793
tp3794
I2
s(V\u102e
p3795
V\u1038
p3796
V\u1004
p3797
tp3798
I1
s(V\u101f
p3799
V\u102c
p3800
V\u101c
p3801
tp3802
I2
s(V\u1038
p3803
V\u1001
p3804
V\u1031
p3805
tp3806
I2
s(V\u1040
p3807
g22
V\u101b
p3808
tp3809
I3
s(V\u101a
p3810
g22
V\u100a
p3811
tp3812
I1
s(V\u1010
p3813
g22
V\u101b
p3814
tp3815
I1
s(V\u102f
p3816
V\u1037
p3817
V\u101b
p3818
tp3819
I3
s(V\u101e
p3820
V\u103d
p3821
V\u1031
p3822
tp3823
I1
s(V\u1014
p3824
V\u102e
p3825
g22
tp3826
I1
s(V\u1038
p3827
V\u101c
p3828
V\u103e
p3829
tp3830
I1
s(V\u103c
p3831
V\u102f
p3832
V\u1018
p3833
tp3834
I1
s(V\u102e
p3835
V\u1006
p3836
V\u102c
p3837
tp3838
I1
s(V\u1018
p3839
V\u1000
p3840
V\u103a
p3841
tp3842
I7
s(V\u1043
p3843
g22
V\u1014
p3844
tp3845
I1
s(V\u1015
p3846
V\u103c
p3847
V\u102f
p3848
tp3849
I3
s(V\u1018
p3850
V\u103d
p3851
V\u102d
p3852
tp3853
I1
s(V\u103e
p3854
V\u102d
p3855
V\u1005
p3856
tp3857
I1
s(V\u1006
p3858
V\u1031
p3859
V\u102c
p3860
tp3861
I14
s(V\u103e
p3862
V\u1010
p3863
V\u102d
p3864
tp3865
I1
s(V\u1036
p3866
V\u101b
p3867
V\u1031
p3868
tp3869
I5
s(V\u102c
p3870
V\u1016
p3871
V\u102d
p3872
tp3873
I1
s(V\u1021
p3874
V\u1005
p3875
V\u103a
p3876
tp3877
I1
s(g22
V\u1005
p3878
V\u102c
p3879
tp3880
I2
s(V\u101e
p3881
V\u1015
p3882
V\u103a
p3883
tp3884
I1
s(g22
V\u1001
p3885
V\u103c
p3886
tp3887
I2
s(V\u1000
p3888
V\u103a
p3889
V\u1000
p3890
tp3891
I15
s(V\u103a
p3892
V\u1018
p3893
V\u102f
p3894
tp3895
I1
s(V\u1031
p3896
V\u1037
p3897
V\u101c
p3898
tp3899
I1
s(V\u1014
p3900
V\u1000
p3901
V\u103a
p3902
tp3903
I1
s(V\u1002
p3904
V\u1010
p3905
V\u103a
p3906
tp3907
I1
s(V\u103d
p3908
V\u1031
p3909
V\u1016
p3910
tp3911
I1
s(V\u1021
p3912
V\u1006
p3913
V\u1031
p3914
tp3915
I1
s(g1929
g2563
g1928
tp3916
I1
s(V\u103a
p3917
V\u1018
p3918
V\u101c
p3919
tp3920
I1
s(V\u1015
p3921
V\u103c
p3922
V\u1010
p3923
tp3924
I1
s(V\u103a
p3925
V\u1039
p3926
V\u1002
p3927
tp3928
I5
s(g22
V\u1011
p3929
V\u1031
p3930
tp3931
I3
s(V\u103b
p3932
V\u1014
p3933
V\u102e
p3934
tp3935
I1
s(V\u101a
p3936
V\u103a
p3937
V\u1037
p3938
tp3939
I8
s(V\u103a
p3940
V\u1000
p3941
V\u103c
p3942
tp3943
I21
s(V\u101d
p3944
g22
V\u101c
p3945
tp3946
I1
s(V\u101b
p3947
V\u102f
p3948
V\u1010
p3949
tp3950
I1
s(V\u1000
p3951
V\u1014
p3952
V\u1031
p3953
tp3954
I1
s(V\u1015
p3955
V\u103b
p3956
V\u1000
p3957
tp3958
I1
s(V\u1031
p3959
V\u1015
p3960
V\u102b
p3961
tp3962
I3
s(V\u103a
p3963
V\u101c
p3964
V\u102f
p3965
tp3966
I2
s(V\u1010
p3967
V\u1026
p3968
V\u1038
p3969
tp3970
I1
s(V\u103a
p3971
V\u1021
p3972
V\u1010
p3973
tp3974
I1
s(V\u1005
p3975
V\u1014
p3976
V\u1005
p3977
tp3978
I1
s(V\u102f
p3979
V\u1019
p3980
V\u103b
p3981
tp3982
I1
s(V\u103a
p3983
g22
V\u1042
p3984
tp3985
I3
s(V\u1019
p3986
V\u103a
p3987
g22
tp3988
I1
s(V\u1031
p3989
V\u1002
p3990
V\u103b
p3991
tp3992
I1
s(V\u1021
p3993
V\u1026
p3994
g22
tp3995
I1
s(V\u1026
p3996
V\u1038
p3997
V\u1007
p3998
tp3999
I1
s(V\u1011
p4000
V\u102f
p4001
V\u1015
p4002
tp4003
I1
s(V\u103a
p4004
g22
V\u1006
p4005
tp4006
I5
s(V\u103d
p4007
V\u1031
p4008
V\u104a
p4009
tp4010
I4
s(V\u1026
p4011
V\u1038
p4012
V\u1021
p4013
tp4014
I2
s(V\u1038
p4015
V\u1006
p4016
V\u1031
p4017
tp4018
I8
s(g22
V\u1018
p4019
V\u1031
p4020
tp4021
I2
s(V\u1019
p4022
V\u103e
p4023
V\u1030
p4024
tp4025
I3
s(V\u1038
p4026
g22
V\u101d
p4027
tp4028
I10
s(g22
V\u104b
p4029
V\u000a
p4030
tp4031
I1
s(V\u102f
p4032
V\u101c
p4033
V\u102f
p4034
tp4035
I2
s(V\u102f
p4036
V\u1037
p4037
V\u1011
p4038
tp4039
I1
s(V\u102e
p4040
V\u101f
p4041
V\u102c
p4042
tp4043
I1
s(V\u1037
p4044
g22
V\u1006
p4045
tp4046
I9
s(V\u102c
p4047
g22
V\u1015
p4048
tp4049
I6
s(V\u1021
p4050
V\u101b
p4051
V\u103e
p4052
tp4053
I1
s(g22
V\u1044
p4054
V\u1045
p4055
tp4056
I1
s(g22
V\u101d
p4057
V\u1031
p4058
tp4059
I2
s(V\u1031
p4060
V\u1037
p4061
V\u1014
p4062
tp4063
I7
s(V\u1045
p4064
g22
V\u101a
p4065
tp4066
I2
s(V\u103d
p4067
V\u1032
p4068
V\u101d
p4069
tp4070
I1
s(V\u1012
p4071
V\u100f
p4072
V\u103a
p4073
tp4074
I2
s(V\u103e
p4075
V\u103a
p4076
g22
tp4077
I2
s(V\u1014
p4078
V\u102c
p4079
V\u1019
p4080
tp4081
I2
s(V\u102e
p4082
V\u1038
p4083
V\u1011
p4084
tp4085
I1
s(V\u1000
p4086
g22
V\u1005
p4087
tp4088
I4
s(V\u1038
p4089
g22
V\u1012
p4090
tp4091
I3
s(V\u1000
p4092
V\u103a
p4093
V\u1019
p4094
tp4095
I13
s(g22
V\u1010
p4096
V\u101d
p4097
tp4098
I1
s(V\u1014
p4099
V\u103a
p4100
V\u1006
p4101
tp4102
I4
s(V\u103d
p4103
V\u1031
p4104
V\u1021
p4105
tp4106
I1
s(V\u1004
p4107
V\u1036
p4108
V\u1019
p4109
tp4110
I1
s(V\u1010
p4111
V\u103a
p4112
V\u1015
p4113
tp4114
I3
s(V\u102f
p4115
V\u1000
p4116
V\u103a
p4117
tp4118
I43
s(g22
V\u101f
p4119
V\u1031
p4120
tp4121
I8
s(V\u1017
p4122
V\u103a
p4123
V\u1000
p4124
tp4125
I1
s(V\u1000
p4126
V\u103a
p4127
g22
tp4128
I48
s(g22
V\u1021
p4129
V\u1001
p4130
tp4131
I9
s(V\u1030
p4132
V\u1000
p4133
g22
tp4134
I1
s(V\u1014
p4135
V\u103a
p4136
V\u1015
p4137
tp4138
I2
s(V\u102b
p4139
V\u1015
p4140
V\u102b
p4141
tp4142
I1
s(V\u102c
p4143
V\u1015
p4144
V\u1032
p4145
tp4146
I1
s(V\u1021
p4147
V\u1019
p4148
V\u1010
p4149
tp4150
I1
s(V\u101e
p4151
V\u1010
p4152
V\u103a
p4153
tp4154
I3
s(V\u1019
p4155
V\u101c
p4156
V\u102c
p4157
tp4158
I1
s(g22
V\u1043
p4159
V\u1049
p4160
tp4161
I1
s(V\u103a
p4162
V\u101b
p4163
V\u103d
p4164
tp4165
I18
s(V\u102e
p4166
V\u1014
p4167
V\u1032
p4168
tp4169
I2
s(V\u103a
p4170
V\u100c
p4171
V\u1031
p4172
tp4173
I1
s(V\u1038
p4174
V\u101b
p4175
V\u1004
p4176
tp4177
I2
s(V\u1015
p4178
V\u102b
p4179
g22
tp4180
I2
s(V\u1006
p4181
V\u1032
p4182
g22
tp4183
I1
s(V\u103a
p4184
V\u1010
p4185
V\u1004
p4186
tp4187
I6
s(V\u101b
p4188
V\u1032
p4189
V\u1042
p4190
tp4191
I1
s(V\u103e
p4192
V\u1031
p4193
g22
tp4194
I8
s(V\u1036
p4195
V\u1038
p4196
V\u1001
p4197
tp4198
I1
s(V\u1014
p4199
V\u103a
p4200
V\u101c
p4201
tp4202
I7
s(V\u1010
p4203
V\u102c
p4204
V\u1000
p4205
tp4206
I3
s(V\u1021
p4207
V\u1001
p4208
V\u1004
p4209
tp4210
I1
s(V\u1037
p4211
g22
V\u101b
p4212
tp4213
I22
s(V\u102d
p4214
V\u102f
p4215
V\u1037
p4216
tp4217
I94
s(V\u1019
p4218
V\u1014
p4219
V\u1000
p4220
tp4221
I1
s(V\u102e
p4222
V\u1005
p4223
V\u1009
p4224
tp4225
I2
s(V\u102c
p4226
V\u1038
p4227
V\u101b
p4228
tp4229
I12
s(V\u101c
p4230
g22
V\u1041
p4231
tp4232
I3
s(V\u103a
p4233
g22
V\u1017
p4234
tp4235
I1
s(V\u1019
p4236
V\u103a
p4237
V\u1000
p4238
tp4239
I2
s(V\u1038
p4240
V\u1010
p4241
V\u1030
p4242
tp4243
I2
s(g2185
g22
V\u1021
p4244
tp4245
I1
s(V\u103d
p4246
V\u102c
p4247
V\u1019
p4248
tp4249
I2
s(V\u1000
p4250
V\u103a
p4251
V\u1016
p4252
tp4253
I4
s(V\u103b
p4254
g22
V\u1001
p4255
tp4256
I1
s(V\u103a
p4257
V\u1011
p4258
V\u101b
p4259
tp4260
I2
s(V\u101c
p4261
V\u102c
p4262
V\u1019
p4263
tp4264
I2
s(V\u1000
p4265
g22
V\u1018
p4266
tp4267
I1
s(g22
V\u1021
p4268
V\u1026
p4269
tp4270
I1
s(V\u103a
p4271
V\u101e
p4272
V\u1030
p4273
tp4274
I9
s(V\u1031
p4275
V\u1019
p4276
V\u103e
p4277
tp4278
I4
s(V\u1014
p4279
V\u102c
p4280
V\u1010
p4281
tp4282
I1
s(V\u1010
p4283
V\u102d
p4284
V\u1011
p4285
tp4286
I1
s(V\u102c
p4287
g22
V\u1041
p4288
tp4289
I2
s(V\u1042
p4290
g22
V\u101a
p4291
tp4292
I1
s(V\u1009
p4293
V\u103a
p4294
V\u1000
p4295
tp4296
I2
s(V\u1038
p4297
V\u1015
p4298
V\u102d
p4299
tp4300
I3
s(V\u102c
p4301
g22
V\u101f
p4302
tp4303
I3
s(V\u103a
p4304
V\u1038
p4305
g22
tp4306
I66
s(V\u102e
p4307
V\u1010
p4308
V\u1004
p4309
tp4310
I1
s(V\u103c
p4311
V\u1019
p4312
V\u103a
p4313
tp4314
I6
s(V\u1011
p4315
V\u1032
p4316
V\u1019
p4317
tp4318
I5
s(V\u1021
p4319
V\u1004
p4320
V\u103a
p4321
tp4322
I5
s(V\u1038
p4323
g22
V\u1026
p4324
tp4325
I2
s(V\u1031
p4326
V\u101e
p4327
g22
tp4328
I1
s(V\u102d
p4329
V\u1014
p4330
V\u1037
p4331
tp4332
I1
s(V\u103a
p4333
g22
V\u1013
p4334
tp4335
I2
s(V\u103a
p4336
V\u1006
p4337
V\u1004
p4338
tp4339
I1
s(V\u1007
p4340
V\u1031
p4341
V\u102c
p4342
tp4343
I1
s(V\u1014
p4344
V\u1031
p4345
V\u101e
p4346
tp4347
I2
s(V\u103c
p4348
V\u102f
p4349
V\u1036
p4350
tp4351
I2
s(V\u102c
p4352
V\u1000
p4353
g22
tp4354
I1
s(V\u102d
p4355
V\u1011
p4356
V\u102c
p4357
tp4358
I1
s(V\u1001
p4359
V\u102b
p4360
V\u1038
p4361
tp4362
I2
s(g22
V\u1019
p4363
V\u101c
p4364
tp4365
I1
s(V\u1000
p4366
V\u103b
p4367
V\u102c
p4368
tp4369
I2
s(g22
V\u1025
p4370
V\u101b
p4371
tp4372
I1
s(V\u1030
p4373
V\u1038
p4374
V\u1010
p4375
tp4376
I1
s(V\u1038
p4377
V\u101f
p4378
V\u1031
p4379
tp4380
I1
s(V\u1021
p4381
V\u102c
p4382
V\u1006
p4383
tp4384
I1
s(V\u103a
p4385
V\u1001
p4386
V\u1036
p4387
tp4388
I8
s(V\u103a
p4389
V\u1000
p4390
V\u102e
p4391
tp4392
I1
s(V\u1037
p4393
V\u101c
p4394
V\u103e
p4395
tp4396
I1
s(V\u1037
p4397
V\u1014
p4398
V\u101a
p4399
tp4400
I1
s(V\u1000
p4401
V\u103a
p4402
V\u1017
p4403
tp4404
I1
s(V\u103a
p4405
V\u1006
p4406
V\u102f
p4407
tp4408
I1
s(V\u1005
p4409
V\u103a
p4410
V\u1019
p4411
tp4412
I4
s(V\u101e
p4413
V\u102d
p4414
V\u1014
p4415
tp4416
I1
s(g22
V\u1015
p4417
V\u102d
p4418
tp4419
I4
s(V\u1001
p4420
V\u1004
p4421
V\u103a
p4422
tp4423
I1
s(V\u1038
p4424
V\u1016
p4425
V\u103c
p4426
tp4427
I6
s(g22
V\u1000
p4428
V\u1014
p4429
tp4430
I2
s(V\u101b
p4431
V\u103d
p4432
V\u103e
p4433
tp4434
I15
s(V\u1010
p4435
V\u101b
p4436
V\u1015
p4437
tp4438
I1
s(V\u1005
p4439
V\u102d
p4440
V\u102f
p4441
tp4442
I14
s(V\u1015
p4443
V\u103a
p4444
V\u1001
p4445
tp4446
I2
s(V\u1037
p4447
V\u1021
p4448
V\u1019
p4449
tp4450
I4
s(V\u101c
p4451
V\u103e
p4452
V\u100a
p4453
tp4454
I1
s(V\u1014
p4455
V\u101a
p4456
V\u103a
p4457
tp4458
I8
s(V\u1019
p4459
V\u103d
p4460
V\u1014
p4461
tp4462
I1
s(V\u101b
p4463
g22
V\u1014
p4464
tp4465
I1
s(V\u1001
p4466
V\u1014
p4467
V\u1037
p4468
tp4469
I1
s(V\u1010
p4470
V\u102d
p4471
V\u102f
p4472
tp4473
I39
s(V\u1010
p4474
V\u102c
p4475
g22
tp4476
I8
s(V\u101a
p4477
V\u103a
p4478
V\u1000
p4479
tp4480
I1
s(V\u1001
p4481
V\u1014
p4482
V\u103a
p4483
tp4484
I2
s(V\u1038
p4485
V\u1015
p4486
V\u1014
p4487
tp4488
I1
s(V\u102b
p4489
V\u1000
p4490
V\u102c
p4491
tp4492
I1
s(V\u1006
p4493
V\u1014
p4494
V\u1037
p4495
tp4496
I3
s(V\u103a
p4497
V\u1037
p4498
g22
tp4499
I11
s(V\u103a
p4500
g22
V\u1010
p4501
tp4502
I15
s(V\u102d
p4503
g22
V\u1018
p4504
tp4505
I1
s(g22
V\u1014
p4506
V\u101a
p4507
tp4508
I2
s(V\u103c
p4509
V\u100a
p4510
V\u103a
p4511
tp4512
I21
s(V\u1014
p4513
V\u103e
p4514
V\u102e
p4515
tp4516
I1
s(V\u1019
p4517
V\u102c
p4518
g22
tp4519
I2
s(g22
V\u1018
p4520
V\u1014
p4521
tp4522
I1
s(V\u1037
p4523
V\u101c
p4524
V\u1000
p4525
tp4526
I1
s(V\u103a
p4527
V\u1016
p4528
V\u1000
p4529
tp4530
I1
s(V\u103c
p4531
V\u1031
p4532
V\u102c
p4533
tp4534
I41
s(V\u1037
p4535
g22
V\u100a
p4536
tp4537
I5
s(V\u1036
p4538
g22
V\u1019
p4539
tp4540
I2
s(V\u1021
p4541
V\u102c
p4542
V\u1038
p4543
tp4544
I5
s(V\u1009
p4545
V\u103a
p4546
g22
tp4547
I2
s(V\u102f
p4548
g22
V\u1012
p4549
tp4550
I3
s(g22
V\u1018
p4551
V\u102f
p4552
tp4553
I1
s(V\u1014
p4554
V\u102d
p4555
V\u102f
p4556
tp4557
I35
s(V\u1014
p4558
V\u103a
p4559
V\u1021
p4560
tp4561
I1
s(V\u1039
p4562
V\u1005
p4563
V\u1010
p4564
tp4565
I2
s(V\u101c
p4566
V\u103a
p4567
V\u1001
p4568
tp4569
I2
s(V\u1031
p4570
V\u1038
p4571
V\u1000
p4572
tp4573
I2
s(V\u1012
p4574
V\u102e
p4575
V\u1014
p4576
tp4577
I1
s(V\u1038
p4578
V\u1006
p4579
V\u102d
p4580
tp4581
I3
s(V\u102f
p4582
V\u1006
p4583
V\u1031
p4584
tp4585
I1
s(V\u1010
p4586
V\u102e
p4587
V\u1010
p4588
tp4589
I6
s(V\u1018
p4590
V\u1004
p4591
V\u103a
p4592
tp4593
I2
s(V\u103a
p4594
V\u1011
p4595
V\u102c
p4596
tp4597
I3
s(V\u1038
p4598
V\u1021
p4599
V\u1000
p4600
tp4601
I3
s(V\u1014
p4602
V\u102e
p4603
V\u1017
p4604
tp4605
I1
s(V\u1004
p4606
V\u103a
p4607
V\u1015
p4608
tp4609
I8
s(V\u1019
p4610
V\u1010
p4611
V\u101c
p4612
tp4613
I2
s(V\u1037
p4614
V\u1019
p4615
V\u103e
p4616
tp4617
I6
s(g22
VM
p4618
g1929
tp4619
I1
s(V\u1031
p4620
V\u1037
p4621
V\u1018
p4622
tp4623
I1
s(g22
V\u1041
p4624
V\u1040
p4625
tp4626
I3
s(g22
V\u1007
p4627
V\u103d
p4628
tp4629
I1
s(V\u100a
p4630
V\u102e
p4631
V\u100a
p4632
tp4633
I1
s(V\u1010
p4634
g22
V\u100a
p4635
tp4636
I1
s(V\u1037
p4637
V\u1015
p4638
V\u103c
p4639
tp4640
I7
s(V\u103a
p4641
V\u1021
p4642
V\u102c
p4643
tp4644
I2
s(V\u103c
p4645
V\u1031
p4646
V\u1019
p4647
tp4648
I1
s(V\u1004
p4649
V\u103a
p4650
V\u101c
p4651
tp4652
I3
s(V\u1019
p4653
V\u1001
p4654
V\u1036
p4655
tp4656
I2
s(g22
VO
p4657
g2185
tp4658
I1
s(V\u1039
p4659
V\u1002
p4660
V\u102d
p4661
tp4662
I3
s(V\u101b
p4663
V\u101e
p4664
V\u101c
p4665
tp4666
I1
s(V\u1005
p4667
V\u1036
p4668
V\u1010
p4669
tp4670
I1
s(V\u1037
p4671
V\u1010
p4672
V\u1031
p4673
tp4674
I1
s(V\u1019
p4675
V\u103b
p4676
V\u102c
p4677
tp4678
I9
s(V\u1032
p4679
g22
V\u101c
p4680
tp4681
I1
s(V\u1002
p4682
V\u103b
p4683
V\u102c
p4684
tp4685
I1
s(V\u100a
p4686
V\u102e
p4687
V\u1001
p4688
tp4689
I1
s(V\u102d
p4690
V\u102f
p4691
V\u1018
p4692
tp4693
I2
s(V\u102c
p4694
V\u1021
p4695
V\u1000
p4696
tp4697
I1
s(V\u1021
p4698
V\u1001
p4699
V\u102b
p4700
tp4701
I2
s(V\u1001
p4702
V\u103d
p4703
V\u1014
p4704
tp4705
I1
s(V\u1021
p4706
V\u101b
p4707
V\u1004
p4708
tp4709
I2
s(V\u1031
p4710
V\u1016
p4711
V\u102d
p4712
tp4713
I1
s(V\u101a
p4714
V\u103a
p4715
g22
tp4716
I21
s(V\u101c
p4717
V\u102c
p4718
V\u101e
p4719
tp4720
I1
s(V\u102f
p4721
g22
V\u1000
p4722
tp4723
I2
s(V\u1000
p4724
V\u103c
p4725
V\u102e
p4726
tp4727
I20
s(V\u102c
p4728
V\u101e
p4729
V\u102f
p4730
tp4731
I1
s(V\u1045
p4732
g22
V\u1014
p4733
tp4734
I1
s(V\u102f
p4735
V\u1010
p4736
V\u103d
p4737
tp4738
I10
s(g22
V\u1012
p4739
V\u102b
p4740
tp4741
I3
s(V\u1018
p4742
V\u102c
p4743
V\u1038
p4744
tp4745
I1
s(V\u1001
p4746
V\u1036
p4747
V\u1014
p4748
tp4749
I1
s(V\u1000
p4750
V\u102d
p4751
V\u1005
p4752
tp4753
I2
s(V\u1000
p4754
g22
V\u1011
p4755
tp4756
I2
s(V\u1001
p4757
V\u102f
p4758
V\u1014
p4759
tp4760
I2
s(V\u102e
p4761
V\u1038
p4762
V\u1005
p4763
tp4764
I3
s(V\u103c
p4765
V\u1010
p4766
V\u1032
p4767
tp4768
I2
s(V\u102c
p4769
g22
V\u1001
p4770
tp4771
I4
s(V\u1019
p4772
V\u102d
p4773
V\u101e
p4774
tp4775
I6
s(V\u1036
p4776
V\u1038
p4777
V\u1010
p4778
tp4779
I1
s(V\u101b
p4780
V\u100a
p4781
V\u103a
p4782
tp4783
I2
s(V\u102e
p4784
V\u1021
p4785
V\u101b
p4786
tp4787
I1
s(V\u101c
p4788
V\u102c
p4789
V\u1015
p4790
tp4791
I1
s(V\u1001
p4792
V\u1032
p4793
V\u1037
p4794
tp4795
I34
s(V\u1021
p4796
V\u1019
p4797
V\u100a
p4798
tp4799
I1
s(V\u102c
p4800
V\u1021
p4801
V\u1016
p4802
tp4803
I1
s(V\u1038
p4804
V\u101d
p4805
g22
tp4806
I1
s(V\u103a
p4807
V\u1037
p4808
V\u1011
p4809
tp4810
I1
s(V\u1014
p4811
V\u101a
p4812
V\u1030
p4813
tp4814
I2
s(V\u1031
p4815
V\u1038
p4816
g22
tp4817
I39
s(V\u1005
p4818
V\u103a
p4819
g22
tp4820
I22
s(V\u1031
p4821
V\u102c
p4822
V\u1004
p4823
tp4824
I80
s(V\u1021
p4825
V\u1026
p4826
V\u1038
p4827
tp4828
I1
s(V\u1006
p4829
V\u102c
p4830
g22
tp4831
I1
s(V\u1032
p4832
g22
V\u101b
p4833
tp4834
I1
s(V\u102c
p4835
V\u1038
p4836
V\u1005
p4837
tp4838
I6
s(V\u1014
p4839
V\u103a
p4840
V\u1011
p4841
tp4842
I2
s(V\u1017
p4843
V\u102f
p4844
V\u1036
p4845
tp4846
I1
s(V\u101b
p4847
V\u102c
p4848
g22
tp4849
I7
s(g22
V\u1005
p4850
V\u102d
p4851
tp4852
I2
s(V\u1038
p4853
V\u101b
p4854
V\u102e
p4855
tp4856
I10
s(V\u103d
p4857
V\u1032
p4858
V\u1001
p4859
tp4860
I3
s(V\u101a
p4861
V\u102c
p4862
V\u1038
p4863
tp4864
I10
s(V\u1038
p4865
g22
V\u101b
p4866
tp4867
I5
s(V\u1026
p4868
V\u1038
p4869
V\u101e
p4870
tp4871
I2
s(V\u103b
p4872
V\u102e
p4873
V\u1010
p4874
tp4875
I1
s(V\u1010
p4876
V\u1031
p4877
V\u102c
p4878
tp4879
I21
s(V\u102c
p4880
V\u1037
p4881
V\u1017
p4882
tp4883
I1
s(V\u1018
p4884
V\u102c
p4885
V\u1021
p4886
tp4887
I1
s(g22
V\u1005
p4888
V\u1010
p4889
tp4890
I4
s(V\u103e
p4891
V\u102d
p4892
V\u102f
p4893
tp4894
I2
s(V\u101a
p4895
V\u103a
p4896
V\u104b
p4897
tp4898
I64
s(V\u1019
p4899
V\u103c
p4900
V\u1031
p4901
tp4902
I2
s(V\u1000
p4903
g22
V\u1014
p4904
tp4905
I4
s(V\u1015
p4906
V\u1031
p4907
V\u1038
p4908
tp4909
I4
s(V\u100f
p4910
V\u103a
p4911
V\u1001
p4912
tp4913
I1
s(V\u1016
p4914
V\u103c
p4915
V\u102d
p4916
tp4917
I1
s(g22
V\u1011
p4918
V\u1030
p4919
tp4920
I2
s(V\u103a
p4921
g22
V\u101f
p4922
tp4923
I8
s(V\u1038
p4924
g22
V\u1010
p4925
tp4926
I21
s(g22
V\u1010
p4927
V\u101b
p4928
tp4929
I3
s(V\u103a
p4930
V\u1038
p4931
V\u1006
p4932
tp4933
I14
s(V\u1012
p4934
V\u102f
p4935
V\u1010
p4936
tp4937
I1
s(V\u101d
p4938
V\u103a
p4939
V\u101f
p4940
tp4941
I2
s(V\u1032
p4942
V\u1037
p4943
V\u101e
p4944
tp4945
I2
s(V\u102e
p4946
g22
V\u1011
p4947
tp4948
I1
s(V\u1009
p4949
V\u103a
p4950
V\u1021
p4951
tp4952
I1
s(V\u1001
p4953
V\u1036
p4954
V\u101e
p4955
tp4956
I1
s(V\u1031
p4957
V\u1014
p4958
V\u1010
p4959
tp4960
I1
s(V\u1005
p4961
V\u102e
p4962
V\u1019
p4963
tp4964
I1
s(V\u101a
p4965
V\u1030
p4966
V\u1006
p4967
tp4968
I1
s(V\u103b
p4969
V\u102d
p4970
V\u102f
p4971
tp4972
I23
s(V\u1016
p4973
V\u103c
p4974
V\u1010
p4975
tp4976
I4
s(V\u1010
p4977
V\u103d
p4978
V\u1004
p4979
tp4980
I14
s(g22
V\u101c
p4981
V\u102f
p4982
tp4983
I9
s(V\u103d
p4984
V\u1031
p4985
V\u101e
p4986
tp4987
I1
s(V\u1019
p4988
V\u1005
p4989
V\u1039
p4990
tp4991
I2
s(V\u101c
p4992
V\u101e
p4993
V\u1019
p4994
tp4995
I4
s(V\u1000
p4996
g22
V\u101b
p4997
tp4998
I2
s(V\u101b
p4999
V\u1019
p5000
V\u101a
p5001
tp5002
I2
s(V\u103a
p5003
V\u1010
p5004
V\u101a
p5005
tp5006
I7
s(V\u103a
p5007
V\u1037
p5008
V\u101c
p5009
tp5010
I2
s(V\u102f
p5011
V\u1000
p5012
V\u103c
p5013
tp5014
I7
s(V\u1038
p5015
V\u1010
p5016
V\u102c
p5017
tp5018
I1
s(V\u104a
p5019
g22
V\u101c
p5020
tp5021
I2
s(V\u102f
p5022
V\u101d
p5023
V\u1004
p5024
tp5025
I1
s(V\u101b
p5026
g22
V\u1005
p5027
tp5028
I1
s(V\u1021
p5029
V\u101c
p5030
V\u1032
p5031
tp5032
I1
s(V\u1021
p5033
V\u1019
p5034
V\u103b
p5035
tp5036
I19
s(V\u103a
p5037
V\u1014
p5038
V\u101a
p5039
tp5040
I6
s(V\u103a
p5041
V\u1021
p5042
V\u1005
p5043
tp5044
I1
s(V\u102c
p5045
g22
V\u1016
p5046
tp5047
I10
s(V\u1005
p5048
V\u103a
p5049
V\u1000
p5050
tp5051
I1
s(g22
V\u1042
p5052
g22
tp5053
I2
s(V\u103e
p5054
V\u102d
p5055
g22
tp5056
I3
s(V\u102f
p5057
V\u1038
p5058
V\u1005
p5059
tp5060
I2
s(V\u102e
p5061
V\u1019
p5062
V\u103e
p5063
tp5064
I3
s(V\u103a
p5065
g22
V\u101c
p5066
tp5067
I12
s(V\u1000
p5068
V\u103a
p5069
V\u1018
p5070
tp5071
I2
s(V\u1015
p5072
V\u1005
p5073
V\u103a
p5074
tp5075
I7
s(V\u1041
p5076
V\u1043
p5077
V\u1001
p5078
tp5079
I1
s(V\u103a
p5080
V\u1011
p5081
V\u1019
p5082
tp5083
I1
s(V\u101c
p5084
V\u1030
p5085
g22
tp5086
I3
s(V\u1031
p5087
V\u1006
p5088
V\u102f
p5089
tp5090
I4
s(V\u103d
p5091
V\u1010
p5092
V\u103a
p5093
tp5094
I2
s(V\u1038
p5095
g22
V\u1015
p5096
tp5097
I15
s(V\u1030
p5098
V\u1006
p5099
V\u101b
p5100
tp5101
I1
s(V\u103a
p5102
V\u1015
p5103
V\u102f
p5104
tp5105
I1
s(V\u1011
p5106
V\u100a
p5107
V\u103a
p5108
tp5109
I1
s(V\u1015
p5110
V\u1014
p5111
V\u103a
p5112
tp5113
I1
s(V\u102c
p5114
V\u1019
p5115
V\u103e
p5116
tp5117
I2
s(V\u1014
p5118
V\u100a
p5119
V\u103a
p5120
tp5121
I5
s(V\u1014
p5122
V\u102e
p5123
V\u1038
p5124
tp5125
I3
s(V\u1006
p5126
V\u1004
p5127
V\u103a
p5128
tp5129
I3
s(g22
V\u1042
p5130
V\u1045
p5131
tp5132
I1
s(V\u1000
p5133
V\u103a
p5134
V\u104a
p5135
tp5136
I1
s(V\u1005
p5137
V\u1010
p5138
V\u102c
p5139
tp5140
I2
s(V\u101e
p5141
V\u102e
p5142
V\u1038
p5143
tp5144
I1
s(V\u103b
p5145
V\u102c
p5146
V\u1038
p5147
tp5148
I11
s(V\u1038
p5149
g22
V\u100a
p5150
tp5151
I3
s(g22
V\u1010
p5152
V\u102c
p5153
tp5154
I1
s(V\u1037
p5155
g22
V\u1015
p5156
tp5157
I18
s(V\u102f
p5158
V\u1037
p5159
g22
tp5160
I71
s(V\u1037
p5161
V\u1001
p5162
V\u103c
p5163
tp5164
I2
s(V\u1032
p5165
V\u1037
p5166
V\u1010
p5167
tp5168
I18
s(V\u1038
p5169
V\u1004
p5170
V\u101a
p5171
tp5172
I1
s(V\u1021
p5173
V\u1011
p5174
V\u102c
p5175
tp5176
I2
s(V\u102f
p5177
V\u101b
p5178
V\u103e
p5179
tp5180
I5
s(V\u101c
p5181
V\u103d
p5182
V\u103e
p5183
tp5184
I3
s(V\u102d
p5185
V\u102f
p5186
V\u1014
p5187
tp5188
I1
s(V\u1004
p5189
V\u1036
p5190
V\u101e
p5191
tp5192
I1
s(V\u1005
p5193
V\u103a
p5194
V\u1021
p5195
tp5196
I5
s(V\u1031
p5197
g22
V\u1016
p5198
tp5199
I3
s(V\u102f
p5200
V\u1037
p5201
V\u1019
p5202
tp5203
I2
s(V\u1000
p5204
V\u1010
p5205
V\u101a
p5206
tp5207
I1
s(V\u1037
p5208
g22
V\u101e
p5209
tp5210
I10
s(V\u1004
p5211
V\u103a
p5212
V\u1010
p5213
tp5214
I20
s(V\u1019
p5215
V\u1010
p5216
V\u102e
p5217
tp5218
I1
s(V\u103a
p5219
V\u1021
p5220
V\u1026
p5221
tp5222
I1
s(V\u1021
p5223
V\u1000
p5224
V\u103a
p5225
tp5226
I6
s(V\u101b
p5227
V\u102c
p5228
V\u1021
p5229
tp5230
I1
s(V\u101c
p5231
V\u103b
p5232
V\u103e
p5233
tp5234
I1
s(V\u1000
p5235
V\u103a
p5236
V\u1011
p5237
tp5238
I6
s(V\u1011
p5239
V\u102f
p5240
V\u1010
p5241
tp5242
I3
s(V\u103a
p5243
V\u1038
p5244
V\u101c
p5245
tp5246
I5
s(V\u101e
p5247
V\u1030
p5248
V\u1015
p5249
tp5250
I2
s(V\u102f
p5251
V\u1038
p5252
V\u101e
p5253
tp5254
I13
s(g22
V\u1042
p5255
V\u1040
p5256
tp5257
I2
s(V\u102f
p5258
V\u1001
p5259
V\u103d
p5260
tp5261
I1
s(V\u101e
p5262
V\u102d
p5263
V\u101b
p5264
tp5265
I3
s(V\u1037
p5266
V\u1019
p5267
V\u101a
p5268
tp5269
I2
s(V\u101e
p5270
V\u1036
p5271
V\u1010
p5272
tp5273
I1
s(V\u1038
p5274
V\u1010
p5275
V\u102e
p5276
tp5277
I3
s(V\u1038
p5278
V\u104b
p5279
V\u000a
p5280
tp5281
I2
s(V\u1036
p5282
V\u1001
p5283
V\u103b
p5284
tp5285
I1
s(V\u1031
p5286
V\u1037
p5287
V\u101b
p5288
tp5289
I2
s(V\u1036
p5290
V\u1038
p5291
V\u1015
p5292
tp5293
I1
s(V\u102c
p5294
V\u1037
p5295
g22
tp5296
I11
s(g22
V\u1015
p5297
V\u1010
p5298
tp5299
I5
s(V\u1031
p5300
V\u1038
p5301
V\u101c
p5302
tp5303
I1
s(V\u102c
p5304
g22
V\u1010
p5305
tp5306
I6
s(V\u103a
p5307
V\u1019
p5308
V\u103c
p5309
tp5310
I8
s(V\u1032
p5311
V\u101c
p5312
V\u102d
p5313
tp5314
I1
s(V\u1030
p5315
g22
V\u1044
p5316
tp5317
I2
s(V\u1030
p5318
V\u101b
p5319
V\u1000
p5320
tp5321
I2
s(V\u102c
p5322
V\u103a
p5323
V\u1011
p5324
tp5325
I1
s(V\u1037
p5326
V\u1000
p5327
g22
tp5328
I6
s(V\u102f
p5329
g22
V\u1021
p5330
tp5331
I7
s(V\u1031
p5332
V\u1038
p5333
V\u1011
p5334
tp5335
I1
s(V\u101b
p5336
V\u1019
p5337
V\u102d
p5338
tp5339
I1
s(V\u103a
p5340
V\u1012
p5341
V\u102e
p5342
tp5343
I5
s(V\u1038
p5344
V\u1005
p5345
V\u100a
p5346
tp5347
I1
s(V\u1000
p5348
V\u102c
p5349
g22
tp5350
I2
s(V\u1015
p5351
V\u103a
p5352
V\u1004
p5353
tp5354
I2
s(V\u103b
p5355
V\u1000
p5356
V\u103a
p5357
tp5358
I9
s(V\u102c
p5359
V\u101c
p5360
g22
tp5361
I5
s(g22
V\u1010
p5362
V\u1036
p5363
tp5364
I2
s(V\u1039
p5365
V\u1019
p5366
V\u1005
p5367
tp5368
I1
s(V\u1038
p5369
V\u1015
p5370
V\u103c
p5371
tp5372
I4
s(V\u102c
p5373
V\u1004
p5374
V\u103a
p5375
tp5376
I76
s(V\u100a
p5377
V\u103a
p5378
V\u1019
p5379
tp5380
I1
s(V\u101b
p5381
V\u103e
p5382
V\u103a
p5383
tp5384
I2
s(V\u101b
p5385
V\u103e
p5386
V\u102c
p5387
tp5388
I6
s(V\u1006
p5389
V\u102c
p5390
V\u1002
p5391
tp5392
I1
s(V\u1041
p5393
V\u1046
p5394
V\u1001
p5395
tp5396
I1
s(V\u102f
p5397
V\u1037
p5398
V\u1000
p5399
tp5400
I8
s(V\u1039
p5401
V\u1001
p5402
V\u101e
p5403
tp5404
I1
s(V\u1021
p5405
V\u1019
p5406
V\u1031
p5407
tp5408
I15
s(V\u1038
p5409
V\u1001
p5410
V\u102d
p5411
tp5412
I2
s(V\u1014
p5413
V\u103e
p5414
V\u1005
p5415
tp5416
I9
s(g22
V\u1021
p5417
V\u1004
p5418
tp5419
I4
s(V\u102c
p5420
V\u1015
p5421
g22
tp5422
I1
s(V\u102c
p5423
V\u1014
p5424
V\u1031
p5425
tp5426
I3
s(V\u102d
p5427
V\u1010
p5428
V\u1032
p5429
tp5430
I3
s(V\u101a
p5431
V\u102c
p5432
V\u1014
p5433
tp5434
I1
s(V\u100a
p5435
V\u103e
p5436
V\u102d
p5437
tp5438
I2
s(g22
V\u1006
p5439
V\u1000
p5440
tp5441
I3
s(V\u102e
p5442
V\u1000
p5443
V\u102d
p5444
tp5445
I1
s(g22
V\u1000
p5446
V\u101c
p5447
tp5448
I6
s(V\u102f
p5449
V\u101e
p5450
V\u1036
p5451
tp5452
I1
s(V\u103a
p5453
V\u1019
p5454
V\u1001
p5455
tp5456
I2
s(V\u1015
p5457
g22
V\u1015
p5458
tp5459
I1
s(V\u1021
p5460
V\u1014
p5461
V\u1031
p5462
tp5463
I6
s(V\u1010
p5464
V\u102f
p5465
V\u1036
p5466
tp5467
I2
s(V\u1019
p5468
V\u100a
p5469
V\u103a
p5470
tp5471
I3
s(g22
V\u100c
p5472
V\u102c
p5473
tp5474
I1
s(V\u103d
p5475
V\u101a
p5476
V\u103a
p5477
tp5478
I10
s(V\u1041
p5479
g22
V\u101b
p5480
tp5481
I1
s(V\u104a
p5482
g22
V\u1005
p5483
tp5484
I1
s(V\u103a
p5485
V\u1038
p5486
g204
tp5487
I1
s(V\u103a
p5488
V\u1014
p5489
V\u1031
p5490
tp5491
I13
s(V\u102e
p5492
g22
V\u1000
p5493
tp5494
I3
s(V\u103a
p5495
V\u1006
p5496
V\u101c
p5497
tp5498
I1
s(V\u101d
p5499
V\u103a
p5500
V\u101b
p5501
tp5502
I5
s(g22
V\u101d
p5503
V\u1014
p5504
tp5505
I8
s(g22
V\u101b
p5506
V\u100a
p5507
tp5508
I2
s(V\u100c
p5509
V\u102c
p5510
V\u1014
p5511
tp5512
I1
s(g22
V\u1026
p5513
V\u1038
p5514
tp5515
I9
s(V\u1036
p5516
V\u1038
p5517
V\u101b
p5518
tp5519
I1
s(V\u1037
p5520
g22
V\u101c
p5521
tp5522
I8
s(V\u1016
p5523
V\u102d
p5524
V\u102f
p5525
tp5526
I19
s(V\u1000
p5527
V\u103b
p5528
V\u1014
p5529
tp5530
I1
s(V\u1015
p5531
V\u103b
p5532
V\u1036
p5533
tp5534
I1
s(V\u103a
p5535
V\u1011
p5536
V\u102d
p5537
tp5538
I1
s(V\u1016
p5539
V\u1000
p5540
V\u103a
p5541
tp5542
I8
s(g22
V\u1015
p5543
V\u103c
p5544
tp5545
I51
s(V\u103e
p5546
V\u1014
p5547
V\u103a
p5548
tp5549
I2
s(V\u1026
p5550
V\u1038
p5551
V\u1019
p5552
tp5553
I3
s(V\u1000
p5554
g22
V\u1001
p5555
tp5556
I2
s(V\u103c
p5557
V\u102c
p5558
V\u1038
p5559
tp5560
I19
s(g22
V\u100a
p5561
V\u1031
p5562
tp5563
I5
s(V\u1031
p5564
g22
V\u1000
p5565
tp5566
I8
s(V\u102b
p5567
V\u1015
p5568
V\u1031
p5569
tp5570
I4
s(V\u101b
p5571
V\u102d
p5572
V\u1000
p5573
tp5574
I15
s(V\u101e
p5575
V\u1018
p5576
V\u1031
p5577
tp5578
I8
s(V\u1001
p5579
V\u102f
p5580
V\u1016
p5581
tp5582
I1
s(V\u1015
p5583
V\u103a
p5584
V\u101f
p5585
tp5586
I1
s(V\u101b
p5587
V\u103d
p5588
V\u1036
p5589
tp5590
I2
s(V\u101a
p5591
V\u103a
p5592
V\u1011
p5593
tp5594
I5
s(V\u103a
p5595
g22
g1567
tp5596
I1
s(V\u1037
p5597
g22
g4618
tp5598
I1
s(V\u101b
p5599
V\u1019
p5600
V\u1037
p5601
tp5602
I3
s(V\u1012
p5603
V\u102e
p5604
V\u101c
p5605
tp5606
I1
s(V\u1014
p5607
V\u1031
p5608
V\u101b
p5609
tp5610
I6
s(V\u1000
p5611
g22
V\u1017
p5612
tp5613
I1
s(V\u1036
p5614
V\u1038
p5615
V\u1016
p5616
tp5617
I2
s(V\u1004
p5618
V\u103a
p5619
V\u101d
p5620
tp5621
I1
s(V\u1015
p5622
V\u102b
p5623
V\u1010
p5624
tp5625
I91
s(V\u102f
p5626
V\u1021
p5627
V\u1001
p5628
tp5629
I2
s(V\u102f
p5630
V\u1000
p5631
V\u103b
p5632
tp5633
I2
s(V\u1016
p5634
V\u1019
p5635
V\u103a
p5636
tp5637
I4
s(V\u103d
p5638
V\u1031
p5639
V\u1019
p5640
tp5641
I2
s(V\u1019
p5642
V\u102d
p5643
V\u1010
p5644
tp5645
I2
s(V\u102f
p5646
V\u101c
p5647
V\u1000
p5648
tp5649
I1
s(V\u104a
p5650
g22
V\u1000
p5651
tp5652
I2
s(V\u103e
p5653
V\u102c
p5654
V\u101b
p5655
tp5656
I1
s(V\u101c
p5657
V\u102c
p5658
V\u101b
p5659
tp5660
I5
s(V\u103a
p5661
V\u1000
p5662
V\u101a
p5663
tp5664
I1
s(V\u1030
p5665
V\u101c
p5666
V\u102d
p5667
tp5668
I2
s(V\u1000
p5669
V\u103a
p5670
V\u1005
p5671
tp5672
I9
s(V\u1011
p5673
V\u101b
p5674
V\u1019
p5675
tp5676
I3
s(V\u102e
p5677
V\u1005
p5678
V\u102d
p5679
tp5680
I1
s(V\u102d
p5681
V\u102f
p5682
V\u1021
p5683
tp5684
I3
s(V\u1019
p5685
V\u1011
p5686
V\u1031
p5687
tp5688
I1
s(V\u101b
p5689
V\u1000
p5690
V\u102e
p5691
tp5692
I2
s(V\u1005
p5693
V\u102c
p5694
V\u1019
p5695
tp5696
I1
s(V\u1004
p5697
V\u103a
p5698
V\u1004
p5699
tp5700
I23
s(V\u102c
p5701
g22
V\u1019
p5702
tp5703
I9
s(V\u102f
p5704
V\u1000
p5705
V\u1010
p5706
tp5707
I1
s(V\u103a
p5708
V\u101d
p5709
V\u102d
p5710
tp5711
I1
s(V\u103a
p5712
V\u1038
p5713
V\u1021
p5714
tp5715
I11
s(V\u102f
p5716
g22
V\u1005
p5717
tp5718
I4
s(V\u102e
p5719
V\u101b
p5720
V\u1014
p5721
tp5722
I1
s(V\u1001
p5723
V\u103b
p5724
V\u1000
p5725
tp5726
I7
s(V\u1000
p5727
g22
V\u1012
p5728
tp5729
I2
s(V\u1000
p5730
V\u103c
p5731
V\u100a
p5732
tp5733
I10
s(V\u102f
p5734
V\u1038
p5735
V\u1000
p5736
tp5737
I3
s(V\u1037
p5738
V\u101e
p5739
V\u101c
p5740
tp5741
I1
s(V\u102f
p5742
V\u1014
p5743
V\u103e
p5744
tp5745
I2
s(V\u103e
p5746
V\u102d
p5747
V\u1018
p5748
tp5749
I3
s(V\u1042
p5750
V\u1040
p5751
V\u1041
p5752
tp5753
I2
s(V\u1012
p5754
V\u1031
p5755
V\u1037
p5756
tp5757
I2
s(V\u102f
p5758
V\u101b
p5759
V\u102c
p5760
tp5761
I1
s(V\u1031
p5762
V\u101b
p5763
V\u1015
p5764
tp5765
I2
s(V\u102b
p5766
V\u1000
p5767
V\u102d
p5768
tp5769
I1
s(V\u103a
p5770
V\u101d
p5771
V\u1004
p5772
tp5773
I1
s(V\u101e
p5774
V\u102d
p5775
V\u102f
p5776
tp5777
I8
s(V\u101c
p5778
V\u103a
p5779
g22
tp5780
I2
s(V\u1049
p5781
g22
V\u1014
p5782
tp5783
I1
s(V\u103b
p5784
V\u102d
p5785
V\u1014
p5786
tp5787
I1
s(V\u101e
p5788
V\u1030
p5789
V\u1011
p5790
tp5791
I1
s(V\u1011
p5792
V\u102d
p5793
V\u1014
p5794
tp5795
I2
s(V\u1036
p5796
g22
V\u1021
p5797
tp5798
I1
s(V\u102f
p5799
V\u1014
p5800
V\u102d
p5801
tp5802
I1
s(V\u102c
p5803
V\u103a
p5804
V\u1019
p5805
tp5806
I1
s(V\u1006
p5807
V\u1014
p5808
V\u103a
p5809
tp5810
I10
s(V\u1000
p5811
V\u103c
p5812
V\u1015
p5813
tp5814
I3
s(V\u103c
p5815
V\u1010
p5816
V\u103a
p5817
tp5818
I4
s(g22
V\u101b
p5819
V\u102c
p5820
tp5821
I1
s(V\u1017
p5822
V\u102d
p5823
V\u102f
p5824
tp5825
I2
s(g22
V\u1019
p5826
V\u100a
p5827
tp5828
I1
s(g22
V\u1016
p5829
V\u103d
p5830
tp5831
I3
s(V\u103d
p5832
V\u1004
p5833
V\u1037
p5834
tp5835
I1
s(V\u102e
p5836
V\u101c
p5837
V\u102c
p5838
tp5839
I4
s(V\u1031
p5840
g22
V\u101b
p5841
tp5842
I6
s(V\u102f
p5843
V\u1015
p5844
V\u102b
p5845
tp5846
I10
s(V\u102f
p5847
V\u1002
p5848
V\u1039
p5849
tp5850
I3
s(V\u1036
p5851
V\u1038
p5852
V\u101d
p5853
tp5854
I1
s(V\u1014
p5855
V\u1031
p5856
V\u1011
p5857
tp5858
I3
s(V\u1019
p5859
V\u1000
p5860
V\u1031
p5861
tp5862
I1
s(V\u103e
p5863
V\u1004
p5864
V\u103a
p5865
tp5866
I1
s(V\u1011
p5867
V\u1015
p5868
V\u103a
p5869
tp5870
I3
s(V\u1038
p5871
g22
V\u101e
p5872
tp5873
I12
s(V\u1036
p5874
V\u1016
p5875
V\u1019
p5876
tp5877
I1
s(V\u101c
p5878
V\u1015
p5879
V\u102d
p5880
tp5881
I1
s(V\u1031
p5882
V\u1001
p5883
V\u103b
p5884
tp5885
I1
s(V\u102f
p5886
V\u101c
p5887
V\u102d
p5888
tp5889
I1
s(V\u1000
p5890
V\u103d
p5891
V\u1000
p5892
tp5893
I1
s(V\u102e
p5894
V\u1038
p5895
V\u1014
p5896
tp5897
I2
s(V\u1037
p5898
V\u1010
p5899
V\u101a
p5900
tp5901
I4
s(V\u1000
p5902
V\u101a
p5903
V\u103a
p5904
tp5905
I1
s(V\u1038
p5906
V\u101e
p5907
V\u103d
p5908
tp5909
I2
s(V\u103a
p5910
V\u1015
p5911
V\u1031
p5912
tp5913
I3
s(V\u103a
p5914
V\u1010
p5915
V\u1015
p5916
tp5917
I1
s(V\u1018
p5918
V\u1030
p5919
V\u1038
p5920
tp5921
I8
s(V\u1038
p5922
V\u1000
p5923
g22
tp5924
I4
s(V\u1031
p5925
V\u1000
p5926
g22
tp5927
I5
s(V\u1014
p5928
V\u103a
p5929
V\u1010
p5930
tp5931
I5
s(V\u103b
p5932
V\u1036
p5933
V\u101e
p5934
tp5935
I1
s(V\u102c
p5936
V\u103a
p5937
V\u100c
p5938
tp5939
I1
s(V\u1031
p5940
V\u1005
p5941
V\u102e
p5942
tp5943
I5
s(V\u1014
p5944
V\u103a
p5945
V\u1037
p5946
tp5947
I3
s(V\u1006
p5948
V\u103d
p5949
V\u1031
p5950
tp5951
I5
s(V\u103a
p5952
g22
V\u1021
p5953
tp5954
I29
s(V\u1004
p5955
V\u103d
p5956
V\u1031
p5957
tp5958
I3
s(V\u1000
p5959
V\u103b
p5960
g22
tp5961
I1
s(V\u1015
p5962
V\u102d
p5963
V\u1010
p5964
tp5965
I3
s(V\u101c
p5966
V\u1030
p5967
V\u1015
p5968
tp5969
I1
s(V\u1019
p5970
V\u1031
p5971
g22
tp5972
I1
s(V\u103a
p5973
V\u1000
p5974
g22
tp5975
I16
s(V\u1015
p5976
V\u103c
p5977
V\u103f
p5978
tp5979
I1
s(V\u1000
p5980
g22
V\u101c
p5981
tp5982
I5
s(V\u103b
p5983
V\u102c
p5984
V\u1000
p5985
tp5986
I1
s(V\u1001
p5987
V\u103b
p5988
g22
tp5989
I3
s(V\u104a
p5990
g22
V\u1021
p5991
tp5992
I2
s(g22
V\u101b
p5993
V\u102f
p5994
tp5995
I5
s(V\u103e
p5996
V\u102d
p5997
V\u1015
p5998
tp5999
I4
s(V\u102c
p6000
V\u1021
p6001
V\u1031
p6002
tp6003
I1
s(V\u103b
p6004
V\u103e
p6005
V\u1031
p6006
tp6007
I1
s(V\u102d
p6008
V\u102f
p6009
V\u101d
p6010
tp6011
I1
s(V\u102f
p6012
V\u1038
p6013
g22
tp6014
I4
s(V\u1037
p6015
V\u1005
p6016
V\u102e
p6017
tp6018
I1
s(V\u1001
p6019
V\u103b
p6020
V\u102f
p6021
tp6022
I16
s(V\u102f
p6023
V\u101c
p6024
V\u1031
p6025
tp6026
I1
s(V\u1037
p6027
g22
V\u1017
p6028
tp6029
I2
s(V\u1010
p6030
V\u102e
p6031
V\u1038
p6032
tp6033
I3
s(g22
V\u1019
p6034
V\u1005
p6035
tp6036
I1
s(V\u103a
p6037
V\u1014
p6038
V\u102e
p6039
tp6040
I1
s(g22
V\u1014
p6041
V\u103e
p6042
tp6043
I5
s(V\u1038
p6044
V\u1011
p6045
V\u1014
p6046
tp6047
I1
s(g22
V\u101a
p6048
V\u1030
p6049
tp6050
I1
s(V\u1005
p6051
V\u102e
p6052
V\u1021
p6053
tp6054
I5
s(V\u102d
p6055
V\u1005
p6056
V\u1009
p6057
tp6058
I1
s(g22
V\u101b
p6059
V\u1031
p6060
tp6061
I7
s(V\u1021
p6062
V\u1005
p6063
V\u103d
p6064
tp6065
I1
s(V\u1015
p6066
V\u1032
p6067
V\u101b
p6068
tp6069
I2
s(V\u1010
p6070
V\u1005
p6071
V\u103a
p6072
tp6073
I14
s(V\u102c
p6074
V\u1010
p6075
V\u1030
p6076
tp6077
I7
s(V\u1036
p6078
g22
V\u101e
p6079
tp6080
I1
s(V\u102f
p6081
V\u1010
p6082
V\u100a
p6083
tp6084
I1
s(g22
V\u1013
p6085
V\u102c
p6086
tp6087
I2
s(V\u103d
p6088
V\u1014
p6089
V\u103a
p6090
tp6091
I9
s(V\u1021
p6092
V\u1001
p6093
V\u1010
p6094
tp6095
I1
s(V\u102f
p6096
V\u101c
p6097
V\u103a
p6098
tp6099
I5
s(V\u103a
p6100
V\u1000
p6101
V\u102c
p6102
tp6103
I2
s(V\u1032
p6104
V\u1021
p6105
V\u1000
p6106
tp6107
I1
s(V\u102e
p6108
V\u1019
p6109
V\u102d
p6110
tp6111
I6
s(V\u104a
p6112
g22
V\u1014
p6113
tp6114
I2
s(V\u103a
p6115
V\u101c
p6116
V\u1015
p6117
tp6118
I1
s(V\u1021
p6119
V\u1031
p6120
V\u102c
p6121
tp6122
I13
s(V\u103c
p6123
V\u1032
p6124
V\u1014
p6125
tp6126
I1
s(g22
V\u1010
p6127
V\u1004
p6128
tp6129
I1
s(V\u1019
p6130
V\u103d
p6131
V\u1010
p6132
tp6133
I1
s(V\u102c
p6134
g22
V\u100a
p6135
tp6136
I3
s(V\u103a
p6137
V\u1038
p6138
V\u101e
p6139
tp6140
I6
s(V\u1037
p6141
V\u1021
p6142
V\u1016
p6143
tp6144
I1
s(V\u1007
p6145
V\u103d
p6146
V\u1014
p6147
tp6148
I1
s(g22
V\u1016
p6149
V\u1019
p6150
tp6151
I3
s(V\u101c
p6152
V\u1032
p6153
g22
tp6154
I1
s(V\u103a
p6155
V\u101b
p6156
V\u102c
p6157
tp6158
I3
s(V\u1037
p6159
g22
V\u1010
p6160
tp6161
I9
s(V\u103a
p6162
g22
V\u1014
p6163
tp6164
I16
s(V\u1041
p6165
V\u1041
p6166
g22
tp6167
I1
s(V\u102d
p6168
g22
V\u101c
p6169
tp6170
I2
s(V\u1042
p6171
V\u1043
p6172
g22
tp6173
I1
s(V\u1005
p6174
V\u103a
p6175
V\u1002
p6176
tp6177
I1
s(V\u103c
p6178
V\u102d
p6179
V\u102f
p6180
tp6181
I16
s(V\u1021
p6182
V\u101c
p6183
V\u102f
p6184
tp6185
I4
s(V\u103b
p6186
V\u1009
p6187
V\u103a
p6188
tp6189
I1
s(V\u1001
p6190
V\u102f
p6191
V\u1021
p6192
tp6193
I2
s(V\u102f
p6194
g22
V\u1042
p6195
tp6196
I2
s(g22
V\u101e
p6197
V\u103d
p6198
tp6199
I4
s(V\u103e
p6200
g22
V\u1014
p6201
tp6202
I3
s(V\u1031
p6203
g22
V\u1015
p6204
tp6205
I5
s(V\u101f
p6206
V\u102d
p6207
V\u102f
p6208
tp6209
I6
s(V\u1010
p6210
V\u1015
p6211
V\u102b
p6212
tp6213
I1
s(V\u102f
p6214
V\u1014
p6215
V\u1031
p6216
tp6217
I1
s(V\u1040
p6218
V\u1041
p6219
V\u1046
p6220
tp6221
I1
s(V\u102c
p6222
V\u1038
p6223
V\u1014
p6224
tp6225
I3
s(V\u101b
p6226
g22
V\u1018
p6227
tp6228
I1
s(V\u1038
p6229
V\u1021
p6230
V\u1001
p6231
tp6232
I1
s(V\u102f
p6233
V\u1036
p6234
V\u101b
p6235
tp6236
I2
s(V\u101e
p6237
V\u1031
p6238
V\u1014
p6239
tp6240
I1
s(V\u1038
p6241
V\u1019
p6242
g22
tp6243
I2
s(V\u1005
p6244
V\u103d
p6245
V\u1014
p6246
tp6247
I1
s(V\u1021
p6248
V\u1014
p6249
V\u100a
p6250
tp6251
I5
s(V\u1037
p6252
V\u101e
p6253
V\u1030
p6254
tp6255
I1
s(V\u1038
p6256
V\u1014
p6257
V\u102c
p6258
tp6259
I1
s(V\u102f
p6260
V\u1018
p6261
V\u1030
p6262
tp6263
I1
s(V\u101c
p6264
V\u103d
p6265
V\u1014
p6266
tp6267
I1
s(V\u1000
p6268
V\u103a
p6269
V\u1010
p6270
tp6271
I19
s(V\u1005
p6272
V\u102e
p6273
V\u1038
p6274
tp6275
I4
s(V\u102c
p6276
V\u1015
p6277
V\u1031
p6278
tp6279
I1
s(V\u1000
p6280
g22
V\u101e
p6281
tp6282
I2
s(V\u103a
p6283
V\u104a
p6284
g22
tp6285
I1
s(V\u102d
p6286
V\u1015
p6287
V\u1031
p6288
tp6289
I1
s(V\u101b
p6290
V\u103d
p6291
V\u1000
p6292
tp6293
I3
s(V\u101e
p6294
V\u1004
p6295
V\u1037
p6296
tp6297
I2
s(V\u103c
p6298
V\u100a
p6299
V\u1037
p6300
tp6301
I1
s(V\u102e
p6302
V\u1038
p6303
g22
tp6304
I38
s(V\u1039
p6305
V\u101c
p6306
V\u102c
p6307
tp6308
I3
s(V\u101c
p6309
V\u1031
p6310
V\u1000
p6311
tp6312
I6
s(V\u1000
p6313
V\u1010
p6314
V\u1031
p6315
tp6316
I4
s(g22
V\u1015
p6317
V\u1011
p6318
tp6319
I2
s(V\u1010
p6320
V\u103a
p6321
V\u1006
p6322
tp6323
I2
s(V\u1021
p6324
V\u1015
p6325
V\u103c
p6326
tp6327
I3
s(V\u103e
p6328
V\u102f
p6329
V\u1006
p6330
tp6331
I1
s(V\u1000
p6332
V\u103b
p6333
V\u1009
p6334
tp6335
I1
s(V\u102b
p6336
V\u1010
p6337
V\u102e
p6338
tp6339
I26
s(g383
g384
g472
tp6340
I1
s(V\u103e
p6341
V\u102d
p6342
V\u101c
p6343
tp6344
I2
s(V\u1002
p6345
V\u101c
p6346
V\u102c
p6347
tp6348
I2
s(V\u103a
p6349
V\u1021
p6350
V\u1019
p6351
tp6352
I6
s(V\u103a
p6353
V\u101e
p6354
V\u1019
p6355
tp6356
I3
s(V\u1038
p6357
V\u1010
p6358
V\u1000
p6359
tp6360
I2
s(V\u1001
p6361
V\u103b
p6362
V\u102e
p6363
tp6364
I1
s(V\u1030
p6365
V\u1011
p6366
V\u1031
p6367
tp6368
I3
s(V\u1038
p6369
V\u1016
p6370
V\u102d
p6371
tp6372
I3
s(V\u102c
p6373
V\u1019
p6374
V\u1031
p6375
tp6376
I2
s(V\u1006
p6377
V\u101b
p6378
V\u1015
p6379
tp6380
I1
s(V\u1000
p6381
g22
V\u1041
p6382
tp6383
I1
s(V\u1031
p6384
V\u102b
p6385
V\u103a
p6386
tp6387
I18
s(V\u1038
p6388
V\u1021
p6389
V\u102c
p6390
tp6391
I1
s(g21
g22
V\u1021
p6392
tp6393
I1
s(V\u103c
p6394
V\u1031
p6395
V\u101c
p6396
tp6397
I1
s(g22
V\u1019
p6398
V\u103d
p6399
tp6400
I1
s(V\u1019
p6401
V\u103e
p6402
g22
tp6403
I1
s(V\u101b
p6404
V\u1001
p6405
V\u1032
p6406
tp6407
I1
s(V\u1030
p6408
g22
V\u1011
p6409
tp6410
I2
s(V\u1021
p6411
V\u101b
p6412
V\u1015
p6413
tp6414
I2
s(V\u1031
p6415
g22
V\u101f
p6416
tp6417
I4
s(g22
V\u1002
p6418
V\u103b
p6419
tp6420
I2
s(V\u1010
p6421
V\u1001
p6422
V\u102f
p6423
tp6424
I1
s(V\u104a
p6425
g22
V\u101b
p6426
tp6427
I1
s(V\u1019
p6428
V\u1031
p6429
V\u102c
p6430
tp6431
I5
s(V\u102c
p6432
g22
V\u1005
p6433
tp6434
I2
s(V\u1001
p6435
V\u101b
p6436
V\u1005
p6437
tp6438
I1
s(V\u102f
p6439
g22
V\u1019
p6440
tp6441
I3
s(V\u1037
p6442
g22
g4657
tp6443
I1
s(V\u102d
p6444
V\u1000
p6445
V\u1014
p6446
tp6447
I15
s(V\u1021
p6448
V\u1032
p6449
V\u1012
p6450
tp6451
I2
s(V\u1037
p6452
g22
V\u1021
p6453
tp6454
I39
s(V\u1031
p6455
V\u102c
p6456
V\u103a
p6457
tp6458
I31
s(V\u103a
p6459
V\u1011
p6460
V\u1032
p6461
tp6462
I3
s(V\u102d
p6463
V\u101b
p6464
V\u1015
p6465
tp6466
I3
s(V\u1005
p6467
V\u103a
p6468
V\u101e
p6469
tp6470
I4
s(V\u103a
p6471
V\u1014
p6472
V\u1032
p6473
tp6474
I7
s(V\u1038
p6475
V\u1021
p6476
V\u101c
p6477
tp6478
I1
s(g22
V\u1015
p6479
V\u1032
p6480
tp6481
I1
s(V\u1037
p6482
V\u101c
p6483
V\u103d
p6484
tp6485
I1
s(V\u102c
p6486
V\u101a
p6487
V\u103a
p6488
tp6489
I1
s(V\u103e
p6490
V\u102f
p6491
V\u1014
p6492
tp6493
I1
s(V\u1001
p6494
V\u103b
p6495
V\u102d
p6496
tp6497
I1
s(V\u1012
p6498
V\u102d
p6499
V\u1014
p6500
tp6501
I1
s(V\u1013
p6502
V\u102d
p6503
V\u1000
p6504
tp6505
I1
s(g22
V\u1021
p6506
V\u1011
p6507
tp6508
I2
s(V\u1010
p6509
g22
V\u1010
p6510
tp6511
I1
s(V\u102f
p6512
V\u1037
p6513
V\u000a
p6514
tp6515
I1
s(V\u1005
p6516
V\u1009
p6517
V\u103a
p6518
tp6519
I11
s(V\u1038
p6520
g22
V\u1017
p6521
tp6522
I2
s(V\u1010
p6523
V\u102e
p6524
V\u1001
p6525
tp6526
I1
s(V\u1031
p6527
g22
V\u1018
p6528
tp6529
I1
s(V\u1021
p6530
V\u1006
p6531
V\u1000
p6532
tp6533
I2
s(V\u101a
p6534
V\u103a
p6535
V\u101b
p6536
tp6537
I3
s(g22
V\u1015
p6538
V\u103d
p6539
tp6540
I1
s(V\u1019
p6541
V\u102c
p6542
V\u1014
p6543
tp6544
I1
s(V\u102e
p6545
V\u1038
p6546
V\u1000
p6547
tp6548
I2
s(V\u103a
p6549
V\u1018
p6550
V\u1000
p6551
tp6552
I4
s(V\u103e
p6553
V\u102f
p6554
V\u101f
p6555
tp6556
I1
s(V\u1004
p6557
V\u103a
p6558
V\u1038
p6559
tp6560
I82
s(V\u102c
p6561
V\u1019
p6562
V\u103b
p6563
tp6564
I2
s(V\u1031
p6565
V\u1038
p6566
V\u1019
p6567
tp6568
I7
s(V\u1031
p6569
V\u101b
p6570
V\u102d
p6571
tp6572
I15
s(V\u101b
p6573
V\u1000
p6574
V\u102d
p6575
tp6576
I1
s(V\u102e
p6577
g22
g2170
tp6578
I2
s(V\u1032
p6579
V\u1037
p6580
V\u1001
p6581
tp6582
I7
s(V\u1001
p6583
V\u102f
p6584
g22
tp6585
I3
s(V\u1036
p6586
V\u101b
p6587
V\u101e
p6588
tp6589
I1
s(V\u101a
p6590
V\u103a
p6591
V\u1010
p6592
tp6593
I1
s(V\u1010
p6594
V\u103a
p6595
V\u101b
p6596
tp6597
I1
s(V\u103c
p6598
V\u1010
p6599
V\u101a
p6600
tp6601
I1
s(V\u102b
p6602
V\u103a
p6603
V\u1015
p6604
tp6605
I3
s(V\u103a
p6606
g22
V\u1000
p6607
tp6608
I23
s(V\u1004
p6609
V\u103a
p6610
V\u101e
p6611
tp6612
I9
s(V\u1030
p6613
V\u1015
p6614
V\u103a
p6615
tp6616
I1
s(V\u103c
p6617
V\u1010
p6618
V\u102d
p6619
tp6620
I1
s(V\u102f
p6621
g22
V\u101c
p6622
tp6623
I3
s(V\u1038
p6624
g22
V\u1001
p6625
tp6626
I10
s(V\u101e
p6627
V\u1019
p6628
V\u1039
p6629
tp6630
I6
s(V\u1002
p6631
V\u102d
p6632
V\u102f
p6633
tp6634
I3
s(V\u103c
p6635
V\u1004
p6636
V\u103a
p6637
tp6638
I13
s(V\u1010
p6639
V\u1031
p6640
V\u1038
p6641
tp6642
I1
s(V\u1002
p6643
g22
V\u1021
p6644
tp6645
I3
s(V\u102e
p6646
V\u1010
p6647
V\u1032
p6648
tp6649
I1
s(V\u101b
p6650
V\u102f
p6651
V\u1036
p6652
tp6653
I7
s(V\u1036
p6654
V\u1016
p6655
V\u102d
p6656
tp6657
I2
s(V\u102c
p6658
V\u1002
p6659
V\u1031
p6660
tp6661
I1
s(V\u102e
p6662
V\u1005
p6663
V\u102c
p6664
tp6665
I2
s(V\u1011
p6666
V\u102d
p6667
g22
tp6668
I2
s(V\u1031
p6669
V\u101e
p6670
V\u1030
p6671
tp6672
I2
s(V\u102c
p6673
V\u101e
p6674
V\u102d
p6675
tp6676
I2
s(V\u1004
p6677
V\u103a
p6678
V\u1005
p6679
tp6680
I3
s(V\u1038
p6681
V\u101b
p6682
g22
tp6683
I8
s(V\u1010
p6684
V\u1015
p6685
V\u103a
p6686
tp6687
I3
s(V\u103c
p6688
V\u1005
p6689
V\u103a
p6690
tp6691
I28
s(g22
V\u1011
p6692
V\u1000
p6693
tp6694
I2
s(V\u101b
p6695
V\u1015
p6696
V\u102b
p6697
tp6698
I8
s(V\u101b
p6699
V\u101c
p6700
V\u1012
p6701
tp6702
I1
s(V\u102c
p6703
V\u101b
p6704
V\u1005
p6705
tp6706
I1
s(V\u102f
p6707
g22
V\u100a
p6708
tp6709
I1
s(V\u1014
p6710
V\u103a
p6711
V\u1038
p6712
tp6713
I46
s(V\u1037
p6714
V\u1016
p6715
V\u102d
p6716
tp6717
I1
s(g384
g472
g22
tp6718
I1
s(V\u101b
p6719
V\u102c
p6720
V\u101a
p6721
tp6722
I1
s(V\u1017
p6723
V\u103c
p6724
V\u102d
p6725
tp6726
I8
s(V\u1014
p6727
V\u103a
p6728
V\u1012
p6729
tp6730
I2
s(V\u1004
p6731
V\u103a
p6732
V\u1021
p6733
tp6734
I13
s(V\u1032
p6735
V\u1015
p6736
V\u103c
p6737
tp6738
I2
s(V\u1036
p6739
V\u1010
p6740
V\u102d
p6741
tp6742
I1
s(V\u101c
p6743
V\u103e
p6744
V\u102f
p6745
tp6746
I2
s(V\u1019
p6747
V\u1005
p6748
V\u103a
p6749
tp6750
I1
s(V\u102c
p6751
V\u1004
p6752
V\u1037
p6753
tp6754
I4
s(V\u102c
p6755
V\u103a
p6756
V\u1018
p6757
tp6758
I5
s(V\u1004
p6759
V\u103c
p6760
V\u103e
p6761
tp6762
I1
s(V\u1038
p6763
V\u1006
p6764
V\u102e
p6765
tp6766
I3
s(g22
V\u1016
p6767
V\u103c
p6768
tp6769
I22
s(V\u102b
p6770
V\u1010
p6771
V\u101a
p6772
tp6773
I65
s(V\u1010
p6774
V\u102c
p6775
V\u101f
p6776
tp6777
I1
s(V\u1036
p6778
V\u1038
p6779
V\u101e
p6780
tp6781
I3
s(V\u102e
p6782
g22
V\u1021
p6783
tp6784
I7
s(V\u1015
p6785
V\u102b
p6786
V\u101d
p6787
tp6788
I2
s(V\u1014
p6789
V\u102c
p6790
V\u1002
p6791
tp6792
I1
s(V\u1010
p6793
V\u1000
p6794
V\u103a
p6795
tp6796
I3
s(g1567
g1568
g22
tp6797
I2
s(V\u103a
p6798
V\u101b
p6799
V\u1000
p6800
tp6801
I3
s(V\u1032
p6802
V\u101b
p6803
V\u1031
p6804
tp6805
I3
s(V\u102f
p6806
V\u101c
p6807
V\u101e
p6808
tp6809
I4
s(V\u1038
p6810
V\u101e
p6811
V\u1015
p6812
tp6813
I1
s(V\u101b
p6814
V\u103e
p6815
V\u1004
p6816
tp6817
I1
s(V\u1031
p6818
V\u1019
p6819
V\u102c
p6820
tp6821
I2
s(V\u1014
p6822
V\u103e
p6823
V\u102d
p6824
tp6825
I2
s(V\u1038
p6826
V\u101c
p6827
V\u1031
p6828
tp6829
I3
s(V\u1015
p6830
V\u102d
p6831
V\u102f
p6832
tp6833
I9
s(V\u1021
p6834
V\u1006
p6835
V\u102f
p6836
tp6837
I1
s(V\u102f
p6838
V\u1015
p6839
V\u103a
p6840
tp6841
I34
s(V\u1032
p6842
V\u1010
p6843
V\u103d
p6844
tp6845
I3
s(V\u102e
p6846
V\u1038
p6847
V\u1015
p6848
tp6849
I3
s(V\u103e
p6850
V\u102c
p6851
V\u1010
p6852
tp6853
I2
s(V\u1015
p6854
V\u103c
p6855
V\u1004
p6856
tp6857
I9
s(g22
V\u1018
p6858
V\u1004
p6859
tp6860
I1
s(V\u103c
p6861
V\u103e
p6862
V\u102d
p6863
tp6864
I1
s(V\u1010
p6865
V\u1014
p6866
V\u1004
p6867
tp6868
I5
s(V\u1019
p6869
V\u102e
p6870
V\u1038
p6871
tp6872
I14
s(V\u1037
p6873
V\u103a
p6874
V\u101b
p6875
tp6876
I1
s(V\u1015
p6877
V\u103c
p6878
V\u102d
p6879
tp6880
I2
s(V\u1032
p6881
V\u1037
p6882
V\u101c
p6883
tp6884
I4
s(V\u1032
p6885
V\u101d
p6886
V\u1004
p6887
tp6888
I1
s(V\u1015
p6889
V\u1010
p6890
V\u1031
p6891
tp6892
I1
s(V\u1036
p6893
g22
V\u1010
p6894
tp6895
I4
s(V\u1038
p6896
V\u1006
p6897
V\u103d
p6898
tp6899
I1
s(V\u103e
p6900
V\u102d
p6901
V\u1010
p6902
tp6903
I4
s(V\u102c
p6904
V\u1000
p6905
V\u103c
p6906
tp6907
I3
s(V\u102d
p6908
V\u101e
p6909
V\u102c
p6910
tp6911
I6
s(V\u103a
p6912
g22
V\u1043
p6913
tp6914
I1
s(V\u1031
p6915
g22
V\u100a
p6916
tp6917
I1
s(g22
V\u1016
p6918
V\u101b
p6919
tp6920
I3
s(V\u102e
p6921
V\u1038
p6922
V\u101c
p6923
tp6924
I3
s(V\u1038
p6925
V\u101b
p6926
V\u1000
p6927
tp6928
I1
s(V\u1037
p6929
V\u101d
p6930
V\u1004
p6931
tp6932
I1
s(g22
V\u100a
p6933
g22
tp6934
I1
s(V\u101c
p6935
V\u1030
p6936
V\u1010
p6937
tp6938
I1
s(V\u102f
p6939
V\u1036
p6940
V\u1004
p6941
tp6942
I1
s(V\u103a
p6943
V\u1039
p6944
V\u101c
p6945
tp6946
I3
s(V\u1015
p6947
V\u103d
p6948
V\u1032
p6949
tp6950
I4
s(V\u101e
p6951
g22
V\u1005
p6952
tp6953
I1
s(V\u103d
p6954
V\u1032
p6955
V\u1011
p6956
tp6957
I1
s(V\u1021
p6958
V\u1019
p6959
V\u103d
p6960
tp6961
I1
s(V\u1014
p6962
V\u1014
p6963
V\u103a
p6964
tp6965
I8
s(V\u102e
p6966
V\u1005
p6967
V\u102e
p6968
tp6969
I1
s(V\u1019
p6970
V\u103e
p6971
V\u102f
p6972
tp6973
I23
s(V\u102c
p6974
g22
V\u1014
p6975
tp6976
I7
s(g22
V\u101a
p6977
V\u1031
p6978
tp6979
I7
s(V\u1001
p6980
V\u102d
p6981
V\u102f
p6982
tp6983
I31
s(V\u1032
p6984
V\u1014
p6985
V\u1032
p6986
tp6987
I1
s(g22
V\u101b
p6988
V\u1014
p6989
tp6990
I3
s(V\u102d
p6991
V\u1015
p6992
V\u103a
p6993
tp6994
I2
s(V\u103a
p6995
V\u1037
p6996
V\u101b
p6997
tp6998
I3
s(V\u103a
p6999
V\u104b
p7000
g22
tp7001
I3
s(V\u1005
p7002
V\u102f
p7003
V\u1021
p7004
tp7005
I1
s(V\u1037
p7006
V\u1000
p7007
V\u103c
p7008
tp7009
I3
s(V\u101c
p7010
V\u102d
p7011
V\u102f
p7012
tp7013
I67
s(V\u1018
p7014
V\u1031
p7015
V\u102c
p7016
tp7017
I10
s(g206
V\u1015
p7018
V\u1010
p7019
tp7020
I1
s(V\u1012
p7021
V\u102f
p7022
V\u1000
p7023
tp7024
I1
s(V\u100a
p7025
V\u103a
p7026
V\u1015
p7027
tp7028
I3
s(V\u102f
p7029
V\u1000
p7030
V\u1039
p7031
tp7032
I1
s(g22
V\u1014
p7033
V\u1031
p7034
tp7035
I16
s(V\u102c
p7036
V\u101b
p7037
V\u101e
p7038
tp7039
I1
s(V\u102f
p7040
V\u1037
p7041
V\u101c
p7042
tp7043
I3
s(V\u103d
p7044
V\u1031
p7045
V\u101f
p7046
tp7047
I3
s(g22
V\u1011
p7048
V\u102f
p7049
tp7050
I3
s(V\u103d
p7051
V\u1032
p7052
V\u1014
p7053
tp7054
I1
s(V\u103a
p7055
V\u1001
p7056
V\u1010
p7057
tp7058
I1
s(V\u102f
p7059
V\u1010
p7060
V\u102d
p7061
tp7062
I1
s(V\u100d
p7063
V\u102c
p7064
V\u1004
p7065
tp7066
I1
s(V\u103a
p7067
V\u1005
p7068
V\u102e
p7069
tp7070
I2
s(V\u1019
p7071
V\u1015
p7072
V\u103c
p7073
tp7074
I1
s(V\u1010
p7075
V\u102c
p7076
V\u1019
p7077
tp7078
I1
s(g22
V\u1006
p7079
V\u1031
p7080
tp7081
I2
s(V\u102c
p7082
V\u1038
p7083
V\u104a
p7084
tp7085
I1
s(g22
V\u1042
p7086
V\u1043
p7087
tp7088
I1
s(V\u102b
p7089
V\u103a
p7090
V\u1019
p7091
tp7092
I1
s(V\u1015
p7093
V\u1031
p7094
V\u102b
p7095
tp7096
I8
s(V\u1004
p7097
V\u101a
p7098
V\u103a
p7099
tp7100
I3
s(V\u102c
p7101
V\u1038
p7102
V\u101e
p7103
tp7104
I6
s(V\u1000
p7105
V\u102e
p7106
V\u1019
p7107
tp7108
I1
s(V\u1036
p7109
V\u1038
p7110
V\u1000
p7111
tp7112
I1
s(g22
V\u1017
p7113
V\u103c
p7114
tp7115
I6
s(g22
V\u1021
p7116
V\u102d
p7117
tp7118
I5
s(V\u1021
p7119
V\u1019
p7120
V\u101a
p7121
tp7122
I1
s(g22
V\u1021
p7123
V\u1032
p7124
tp7125
I1
s(V\u1032
p7126
V\u1019
p7127
V\u103e
p7128
tp7129
I7
s(V\u103a
p7130
V\u1037
p7131
V\u1001
p7132
tp7133
I2
s(V\u103d
p7134
V\u103e
p7135
V\u1010
p7136
tp7137
I1
s(V\u1037
p7138
V\u103a
p7139
V\u1019
p7140
tp7141
I3
s(V\u1031
p7142
g22
V\u1014
p7143
tp7144
I2
s(V\u1048
p7145
V\u101b
p7146
V\u1000
p7147
tp7148
I1
s(g22
V\u1019
p7149
V\u1000
p7150
tp7151
I1
s(V\u103a
p7152
V\u1019
p7153
V\u1010
p7154
tp7155
I1
s(V\u1004
p7156
V\u103a
p7157
V\u1012
p7158
tp7159
I5
s(V\u1011
p7160
V\u102d
p7161
V\u102f
p7162
tp7163
I3
s(V\u103e
p7164
g22
V\u1019
p7165
tp7166
I1
s(V\u103e
p7167
V\u102d
p7168
V\u101e
p7169
tp7170
I3
s(V\u101e
p7171
V\u1001
p7172
V\u1036
p7173
tp7174
I1
s(V\u1015
p7175
g22
V\u1014
p7176
tp7177
I1
s(V\u1040
p7178
V\u1041
p7179
V\u1043
p7180
tp7181
I1
s(V\u1036
p7182
V\u1001
p7183
V\u1032
p7184
tp7185
I1
s(V\u103c
p7186
V\u1036
p7187
V\u101b
p7188
tp7189
I1
s(V\u103e
p7190
V\u1031
p7191
V\u101e
p7192
tp7193
I5
s(V\u1036
p7194
V\u1037
p7195
V\u1015
p7196
tp7197
I2
s(V\u102b
p7198
V\u104b
p7199
V\u000a
p7200
tp7201
I6
s(V\u1014
p7202
V\u1031
p7203
V\u102c
p7204
tp7205
I10
s(V\u1010
p7206
V\u103a
p7207
V\u101e
p7208
tp7209
I6
s(V\u1021
p7210
V\u101e
p7211
V\u103d
p7212
tp7213
I2
s(V\u1005
p7214
V\u1032
p7215
V\u101b
p7216
tp7217
I3
s(V\u101e
p7218
V\u1036
p7219
V\u1021
p7220
tp7221
I1
s(V\u102f
p7222
g22
V\u101b
p7223
tp7224
I7
s(V\u1043
p7225
g22
V\u101b
p7226
tp7227
I1
s(V\u100f
p7228
V\u103a
p7229
V\u101b
p7230
tp7231
I1
s(V\u1018
p7232
V\u102c
p7233
V\u101c
p7234
tp7235
I6
s(V\u100a
p7236
V\u1005
p7237
V\u103a
p7238
tp7239
I1
s(V\u103c
p7240
V\u102c
p7241
V\u101e
p7242
tp7243
I1
s(g22
V\u1000
p7244
V\u103d
p7245
tp7246
I1
s(V\u102c
p7247
V\u1037
p7248
V\u1005
p7249
tp7250
I1
s(V\u1021
p7251
V\u101b
p7252
V\u1031
p7253
tp7254
I5
s(V\u101e
p7255
V\u1000
p7256
V\u103a
p7257
tp7258
I5
s(V\u1004
p7259
V\u1036
p7260
V\u1001
p7261
tp7262
I6
s(g22
V\u1000
p7263
V\u1010
p7264
tp7265
I3
s(V\u1014
p7266
V\u103a
p7267
V\u101e
p7268
tp7269
I1
s(V\u1005
p7270
V\u103a
p7271
V\u1026
p7272
tp7273
I3
s(V\u103a
p7274
V\u1014
p7275
V\u102d
p7276
tp7277
I5
s(V\u1037
p7278
g22
V\u1005
p7279
tp7280
I5
s(g22
V\u101c
p7281
V\u1031
p7282
tp7283
I7
s(V\u1000
p7284
V\u103b
p7285
V\u101e
p7286
tp7287
I1
s(g22
V\u101c
p7288
V\u102c
p7289
tp7290
I3
s(g22
V\u1001
p7291
V\u101b
p7292
tp7293
I4
s(V\u1021
p7294
V\u1005
p7295
V\u1009
p7296
tp7297
I5
s(V\u1032
p7298
g22
V\u1021
p7299
tp7300
I2
s(V\u102c
p7301
V\u103a
p7302
V\u1014
p7303
tp7304
I8
s(V\u101e
p7305
V\u102f
p7306
V\u1036
p7307
tp7308
I1
s(V\u1001
p7309
V\u103d
p7310
V\u1032
p7311
tp7312
I5
s(V\u1032
p7313
V\u1037
p7314
g22
tp7315
I81
s(V\u103a
p7316
V\u1019
p7317
V\u103e
p7318
tp7319
I25
s(V\u1014
p7320
V\u102c
p7321
V\u1038
p7322
tp7323
I2
s(V\u101e
p7324
V\u102d
p7325
V\u1015
p7326
tp7327
I1
s(V\u1021
p7328
V\u1014
p7329
V\u102c
p7330
tp7331
I3
s(V\u103a
p7332
V\u101f
p7333
V\u102c
p7334
tp7335
I4
s(V\u1031
p7336
V\u102c
p7337
V\u1015
p7338
tp7339
I15
s(V\u1038
p7340
V\u1015
p7341
V\u102b
p7342
tp7343
I10
s(V\u1004
p7344
V\u103a
p7345
V\u1000
p7346
tp7347
I2
s(V\u1001
p7348
V\u101e
p7349
V\u100a
p7350
tp7351
I1
s(V\u1005
p7352
V\u1005
p7353
V\u103a
p7354
tp7355
I6
s(V\u102f
p7356
g22
V\u1016
p7357
tp7358
I6
s(V\u102c
p7359
V\u1038
p7360
V\u1015
p7361
tp7362
I11
s(V\u1030
p7363
g22
V\u1010
p7364
tp7365
I1
s(V\u1010
p7366
V\u1015
p7367
V\u1010
p7368
tp7369
I1
s(V\u1036
p7370
V\u1038
p7371
g22
tp7372
I14
s(V\u1009
p7373
V\u103a
p7374
V\u1038
p7375
tp7376
I1
s(g22
V\u101e
p7377
V\u1014
p7378
tp7379
I1
s(V\u1037
p7380
V\u1011
p7381
V\u102c
p7382
tp7383
I1
s(V\u103a
p7384
V\u1037
p7385
V\u1018
p7386
tp7387
I1
s(V\u101b
p7388
V\u1031
p7389
V\u1038
p7390
tp7391
I38
s(V\u102c
p7392
g22
V\u1006
p7393
tp7394
I3
s(g22
V\u101b
p7395
g22
tp7396
I1
s(V\u1005
p7397
V\u103a
p7398
V\u1010
p7399
tp7400
I10
s(V\u102f
p7401
V\u101f
p7402
V\u102c
p7403
tp7404
I1
s(V\u101c
p7405
V\u102c
p7406
V\u1001
p7407
tp7408
I1
s(V\u1036
p7409
V\u1001
p7410
V\u102b
p7411
tp7412
I2
s(V\u1002
p7413
V\u1000
p7414
V\u103a
p7415
tp7416
I1
s(V\u1006
p7417
V\u101a
p7418
V\u103a
p7419
tp7420
I1
s(V\u1021
p7421
V\u1011
p7422
V\u1015
p7423
tp7424
I1
s(g22
V\u101b
p7425
V\u1019
p7426
tp7427
I1
s(V\u1001
p7428
V\u1036
p7429
g22
tp7430
I8
s(V\u103a
p7431
V\u101c
p7432
V\u1004
p7433
tp7434
I4
s(V\u1030
p7435
V\u1015
p7436
V\u102b
p7437
tp7438
I1
s(V\u1005
p7439
g22
V\u101c
p7440
tp7441
I1
s(V\u103a
p7442
V\u1037
p7443
V\u1000
p7444
tp7445
I3
s(V\u1010
p7446
V\u102e
p7447
V\u101c
p7448
tp7449
I1
s(V\u103e
p7450
V\u102c
p7451
V\u101c
p7452
tp7453
I1
s(V\u1030
p7454
V\u1019
p7455
V\u103b
p7456
tp7457
I3
s(V\u103c
p7458
V\u1015
p7459
V\u102b
p7460
tp7461
I3
s(V\u1005
p7462
V\u103a
p7463
V\u101b
p7464
tp7465
I9
s(V\u1016
p7466
V\u103c
p7467
V\u1005
p7468
tp7469
I28
s(V\u102d
p7470
V\u102f
p7471
V\u101a
p7472
tp7473
I2
s(V\u101e
p7474
V\u1019
p7475
V\u102e
p7476
tp7477
I10
s(V\u1031
p7478
V\u101c
p7479
V\u102d
p7480
tp7481
I3
s(V\u103a
p7482
g22
V\u1019
p7483
tp7484
I8
s(V\u102f
p7485
g22
V\u1011
p7486
tp7487
I4
s(V\u1019
p7488
V\u1010
p7489
V\u101b
p7490
tp7491
I1
s(V\u1019
p7492
V\u1014
p7493
V\u103a
p7494
tp7495
I1
s(g22
V\u1015
p7496
V\u102b
p7497
tp7498
I23
s(V\u1015
p7499
V\u103a
p7500
V\u1014
p7501
tp7502
I3
s(g22
V\u1019
p7503
V\u1031
p7504
tp7505
I4
s(g22
V\u1014
p7506
V\u102c
p7507
tp7508
I1
s(V\u103b
p7509
V\u1031
p7510
V\u1038
p7511
tp7512
I4
s(V\u102e
p7513
V\u100a
p7514
V\u103d
p7515
tp7516
I1
s(V\u1001
p7517
V\u103d
p7518
V\u1004
p7519
tp7520
I3
s(V\u102e
p7521
V\u1038
p7522
V\u1001
p7523
tp7524
I7
s(V\u103e
p7525
V\u1019
p7526
V\u103a
p7527
tp7528
I2
s(V\u1004
p7529
V\u103a
p7530
V\u1039
p7531
tp7532
I8
s(g22
V\u1019
p7533
V\u102c
p7534
tp7535
I1
s(g22
V\u1002
p7536
V\u1000
p7537
tp7538
I1
s(V\u1031
p7539
V\u102b
p7540
V\u1004
p7541
tp7542
I8
s(g22
V\u1016
p7543
V\u1031
p7544
tp7545
I1
s(V\u1000
p7546
V\u101c
p7547
V\u100a
p7548
tp7549
I2
s(V\u103e
p7550
V\u102c
p7551
V\u1015
p7552
tp7553
I5
s(V\u1000
p7554
V\u101b
p7555
V\u1000
p7556
tp7557
I1
s(g22
V\u1001
p7558
V\u1014
p7559
tp7560
I1
s(V\u1005
p7561
V\u102e
p7562
g22
tp7563
I5
s(g22
V\u1021
p7564
V\u1019
p7565
tp7566
I23
s(V\u1032
p7567
V\u1037
p7568
V\u1000
p7569
tp7570
I3
s(V\u1019
p7571
V\u1037
p7572
V\u103a
p7573
tp7574
I3
s(V\u1041
p7575
V\u1045
p7576
g22
tp7577
I1
s(g22
V\u101c
p7578
V\u1014
p7579
tp7580
I2
s(V\u103e
p7581
V\u1005
p7582
V\u103a
p7583
tp7584
I11
s(V\u101c
p7585
V\u1014
p7586
V\u103a
p7587
tp7588
I2
s(V\u102b
p7589
V\u103a
p7590
V\u1014
p7591
tp7592
I4
s(V\u103c
p7593
V\u1031
p7594
V\u1001
p7595
tp7596
I1
s(V\u1006
p7597
V\u102c
p7598
V\u101b
p7599
tp7600
I1
s(V\u102f
p7601
V\u1000
p7602
g22
tp7603
I1
s(V\u103a
p7604
V\u1000
p7605
V\u1010
p7606
tp7607
I2
s(V\u1004
p7608
V\u103a
p7609
g22
tp7610
I24
s(V\u1015
p7611
V\u103a
p7612
V\u1019
p7613
tp7614
I3
s(V\u1016
p7615
V\u1014
p7616
V\u103a
p7617
tp7618
I2
s(V\u103a
p7619
V\u101e
p7620
V\u1005
p7621
tp7622
I6
s(V\u102b
p7623
V\u1018
p7624
V\u1030
p7625
tp7626
I1
s(V\u1038
p7627
g22
V\u1004
p7628
tp7629
I1
s(V\u1010
p7630
V\u102c
p7631
V\u101d
p7632
tp7633
I1
s(V\u1007
p7634
V\u1030
p7635
V\u101c
p7636
tp7637
I1
s(V\u1021
p7638
V\u1014
p7639
V\u102e
p7640
tp7641
I2
s(V\u1000
p7642
V\u103a
p7643
V\u1021
p7644
tp7645
I8
s(g22
V\u1019
p7646
V\u1014
p7647
tp7648
I2
s(V\u102e
p7649
V\u1001
p7650
V\u103b
p7651
tp7652
I1
s(V\u1014
p7653
V\u1004
p7654
V\u103a
p7655
tp7656
I5
s(g22
V\u101b
p7657
V\u1000
p7658
tp7659
I6
s(V\u101c
p7660
V\u1004
p7661
V\u1037
p7662
tp7663
I1
s(V\u1038
p7664
V\u101b
p7665
V\u102f
p7666
tp7667
I2
s(V\u102f
p7668
g22
V\u1014
p7669
tp7670
I3
s(V\u1030
p7671
V\u1038
p7672
V\u101c
p7673
tp7674
I5
s(V\u103a
p7675
V\u1018
p7676
V\u103d
p7677
tp7678
I5
s(V\u1038
p7679
V\u1019
p7680
V\u101a
p7681
tp7682
I2
s(V\u1000
p7683
g22
V\u1010
p7684
tp7685
I4
s(V\u101e
p7686
V\u1005
p7687
V\u103a
p7688
tp7689
I7
s(V\u1038
p7690
V\u1005
p7691
V\u1005
p7692
tp7693
I2
s(V\u1019
p7694
V\u103a
p7695
V\u101c
p7696
tp7697
I1
s(V\u101c
p7698
V\u1031
p7699
V\u1037
p7700
tp7701
I1
s(V\u103a
p7702
V\u1015
p7703
V\u1010
p7704
tp7705
I2
s(V\u1031
p7706
V\u1019
p7707
V\u101a
p7708
tp7709
I7
s(V\u1009
p7710
V\u103a
p7711
V\u101e
p7712
tp7713
I1
s(V\u102e
p7714
V\u1010
p7715
V\u101b
p7716
tp7717
I1
s(V\u101a
p7718
V\u1030
p7719
V\u1038
p7720
tp7721
I2
s(V\u102c
p7722
g22
V\u1000
p7723
tp7724
I3
s(V\u1031
p7725
V\u104a
p7726
g22
tp7727
I6
s(V\u103a
p7728
V\u1021
p7729
V\u1031
p7730
tp7731
I10
s(V\u1005
p7732
V\u1000
p7733
V\u103a
p7734
tp7735
I9
s(V\u102c
p7736
V\u1019
p7737
V\u101a
p7738
tp7739
I1
s(V\u101c
p7740
V\u102c
p7741
V\u1014
p7742
tp7743
I4
s(V\u103a
p7744
V\u1010
p7745
V\u102f
p7746
tp7747
I2
s(V\u1000
p7748
V\u101c
p7749
V\u1004
p7750
tp7751
I5
s(V\u1032
p7752
V\u1010
p7753
V\u101a
p7754
tp7755
I1
s(V\u1031
p7756
V\u1037
p7757
V\u1016
p7758
tp7759
I1
s(g22
V\u1011
p7760
V\u101b
p7761
tp7762
I5
s(V\u1006
p7763
V\u102f
p7764
V\u1036
p7765
tp7766
I21
s(V\u1038
p7767
g204
V\u1042
p7768
tp7769
I1
s(V\u1036
p7770
g22
V\u1012
p7771
tp7772
I1
s(V\u103e
p7773
V\u1031
p7774
V\u1038
p7775
tp7776
I1
s(g22
V\u1010
p7777
V\u1026
p7778
tp7779
I1
s(V\u1005
p7780
V\u101d
p7781
V\u103a
p7782
tp7783
I7
s(V\u1000
p7784
V\u103c
p7785
V\u1031
p7786
tp7787
I15
s(V\u1000
p7788
V\u103c
p7789
V\u102c
p7790
tp7791
I14
s(V\u101e
p7792
V\u1031
p7793
V\u1006
p7794
tp7795
I4
s(V\u1039
p7796
V\u100d
p7797
V\u102c
p7798
tp7799
I1
s(V\u1010
p7800
V\u102e
p7801
V\u1006
p7802
tp7803
I1
s(V\u1030
p7804
g22
V\u101f
p7805
tp7806
I1
s(V\u1038
p7807
V\u1001
p7808
V\u103d
p7809
tp7810
I1
s(g22
V\u1021
p7811
V\u1014
p7812
tp7813
I14
s(g22
V\u1019
p7814
V\u103b
p7815
tp7816
I1
s(V\u101e
p7817
V\u103d
p7818
V\u102c
p7819
tp7820
I11
s(V\u102c
p7821
V\u1014
p7822
V\u1001
p7823
tp7824
I1
s(V\u1030
p7825
V\u100a
p7826
V\u102e
p7827
tp7828
I6
s(V\u1038
p7829
V\u101e
p7830
V\u1014
p7831
tp7832
I2
s(V\u1038
p7833
V\u1000
p7834
V\u103c
p7835
tp7836
I13
s(V\u1037
p7837
V\u1001
p7838
V\u101b
p7839
tp7840
I1
s(V\u1037
p7841
V\u1010
p7842
V\u102f
p7843
tp7844
I2
s(g22
V\u1017
p7845
V\u101f
p7846
tp7847
I1
s(V\u100a
p7848
V\u103a
p7849
V\u101e
p7850
tp7851
I4
s(V\u1019
p7852
V\u101a
p7853
V\u1037
p7854
tp7855
I6
s(V\u1042
p7856
g22
V\u1015
p7857
tp7858
I2
s(V\u1021
p7859
V\u1001
p7860
V\u1031
p7861
tp7862
I1
s(V\u1000
p7863
g22
V\u1002
p7864
tp7865
I2
s(V\u102c
p7866
V\u1012
p7867
V\u102b
p7868
tp7869
I1
s(V\u102f
p7870
V\u1038
p7871
V\u1010
p7872
tp7873
I2
s(V\u1011
p7874
V\u1014
p7875
V\u103a
p7876
tp7877
I1
s(V\u103a
p7878
V\u1010
p7879
V\u102c
p7880
tp7881
I4
s(V\u102e
p7882
g22
V\u1010
p7883
tp7884
I5
s(g22
V\u1018
p7885
V\u100f
p7886
tp7887
I1
s(V\u103a
p7888
V\u1015
p7889
g22
tp7890
I1
s(V\u1019
p7891
V\u102c
p7892
V\u101e
p7893
tp7894
I2
s(V\u103a
p7895
V\u101d
p7896
V\u1014
p7897
tp7898
I1
s(V\u103a
p7899
V\u101f
p7900
V\u1031
p7901
tp7902
I3
s(V\u1004
p7903
V\u103a
p7904
V\u1037
p7905
tp7906
I12
s(V\u1019
p7907
V\u1010
p7908
V\u103a
p7909
tp7910
I1
s(V\u103c
p7911
V\u1014
p7912
V\u103a
p7913
tp7914
I15
s(V\u103a
p7915
V\u1021
p7916
V\u102d
p7917
tp7918
I1
s(V\u1032
p7919
V\u1037
p7920
V\u101b
p7921
tp7922
I4
s(V\u101b
p7923
V\u1031
p7924
V\u1005
p7925
tp7926
I5
s(V\u102e
p7927
V\u1006
p7928
V\u102d
p7929
tp7930
I1
s(V\u102f
p7931
V\u1010
p7932
V\u103a
p7933
tp7934
I3
s(V\u102f
p7935
V\u1038
p7936
V\u101b
p7937
tp7938
I16
s(V\u102b
p7939
V\u1038
p7940
V\u1000
p7941
tp7942
I1
s(V\u102d
p7943
V\u102f
p7944
V\u101b
p7945
tp7946
I1
s(V\u1021
p7947
V\u1019
p7948
V\u103e
p7949
tp7950
I1
s(g22
V\u101c
p7951
V\u100a
p7952
tp7953
I4
s(V\u102b
p7954
V\u103a
p7955
V\u1021
p7956
tp7957
I7
s(V\u1000
p7958
g22
V\u1019
p7959
tp7960
I2
s(V\u103a
p7961
V\u101b
p7962
V\u103e
p7963
tp7964
I12
s(V\u1000
p7965
V\u103c
p7966
V\u1010
p7967
tp7968
I4
s(V\u1005
p7969
V\u102e
p7970
V\u1005
p7971
tp7972
I3
s(V\u101b
p7973
V\u1005
p7974
V\u103a
p7975
tp7976
I4
s(V\u100a
p7977
V\u103a
p7978
V\u101f
p7979
tp7980
I3
s(g22
V\u101b
p7981
V\u1015
p7982
tp7983
I2
s(V\u102d
p7984
V\u102f
p7985
V\u1010
p7986
tp7987
I9
s(V\u1019
p7988
V\u103e
p7989
V\u102c
p7990
tp7991
I53
s(V\u102c
p7992
g22
V\u101c
p7993
tp7994
I4
s(V\u1016
p7995
V\u103d
p7996
V\u1004
p7997
tp7998
I6
s(V\u103b
p7999
V\u101e
p8000
V\u103d
p8001
tp8002
I1
s(V\u103a
p8003
V\u1000
p8004
V\u103d
p8005
tp8006
I1
s(V\u102c
p8007
V\u1015
p8008
V\u102b
p8009
tp8010
I21
s(V\u102f
p8011
V\u1018
p8012
V\u102c
p8013
tp8014
I2
s(V\u1031
p8015
V\u1037
p8016
V\u1010
p8017
tp8018
I3
s(V\u103a
p8019
V\u1002
p8020
V\u103b
p8021
tp8022
I1
s(V\u103d
p8023
V\u1032
p8024
V\u1019
p8025
tp8026
I2
s(V\u100a
p8027
V\u103a
p8028
V\u1014
p8029
tp8030
I4
s(V\u103a
p8031
V\u1012
p8032
V\u103a
p8033
tp8034
I1
s(V\u1018
p8035
V\u102c
p8036
g22
tp8037
I2
s(V\u1014
p8038
V\u103a
p8039
g22
tp8040
I28
s(V\u102c
p8041
V\u101b
p8042
V\u103e
p8043
tp8044
I1
s(V\u101d
p8045
g22
V\u101b
p8046
tp8047
I1
s(V\u1026
p8048
V\u1038
p8049
V\u1006
p8050
tp8051
I3
s(V\u1000
p8052
V\u103a
p8053
V\u1015
p8054
tp8055
I5
s(V\u102d
p8056
V\u1014
p8057
V\u103e
p8058
tp8059
I2
s(V\u1014
p8060
V\u1001
p8061
V\u103b
p8062
tp8063
I1
s(V\u103e
p8064
V\u1019
p8065
V\u103e
p8066
tp8067
I1
s(V\u103a
p8068
V\u101b
p8069
V\u102e
p8070
tp8071
I1
s(V\u102c
p8072
V\u1038
p8073
V\u1006
p8074
tp8075
I5
s(V\u1037
p8076
g22
V\u1012
p8077
tp8078
I8
s(V\u1010
p8079
V\u103a
p8080
g22
tp8081
I7
s(V\u1030
p8082
V\u1038
p8083
V\u101a
p8084
tp8085
I2
s(V\u1010
p8086
V\u103d
p8087
V\u1031
p8088
tp8089
I77
s(V\u1038
p8090
V\u1000
p8091
V\u1005
p8092
tp8093
I1
s(V\u101c
p8094
V\u100a
p8095
V\u103a
p8096
tp8097
I23
s(V\u1030
p8098
V\u1004
p8099
V\u101a
p8100
tp8101
I1
s(V\u103a
p8102
V\u1019
p8103
V\u101a
p8104
tp8105
I4
s(V\u1005
p8106
g22
V\u1000
p8107
tp8108
I1
s(V\u1037
p8109
g22
V\u1007
p8110
tp8111
I1
s(V\u101e
p8112
V\u1030
p8113
V\u1019
p8114
tp8115
I1
s(V\u1018
p8116
V\u102c
p8117
V\u101e
p8118
tp8119
I1
s(V\u1031
p8120
V\u102c
p8121
V\u101c
p8122
tp8123
I1
s(g22
V\u1010
p8124
V\u102f
p8125
tp8126
I2
s(V\u102e
p8127
V\u1017
p8128
V\u102c
p8129
tp8130
I1
s(V\u101b
p8131
V\u102e
p8132
V\u1006
p8133
tp8134
I1
s(V\u1011
p8135
V\u101b
p8136
V\u102c
p8137
tp8138
I1
s(V\u103e
p8139
V\u102f
p8140
V\u1010
p8141
tp8142
I10
s(V\u1021
p8143
V\u1005
p8144
V\u102d
p8145
tp8146
I13
s(V\u102c
p8147
V\u101c
p8148
V\u103e
p8149
tp8150
I1
s(V\u103d
p8151
V\u1032
p8152
V\u101c
p8153
tp8154
I1
s(V\u103e
p8155
V\u1000
p8156
V\u103a
p8157
tp8158
I1
s(V\u102d
p8159
V\u1015
p8160
V\u102b
p8161
tp8162
I4
s(V\u1046
p8163
V\u1001
p8164
V\u102f
p8165
tp8166
I1
s(V\u103a
p8167
V\u1000
p8168
V\u102f
p8169
tp8170
I3
s(V\u1039
p8171
V\u1010
p8172
V\u101b
p8173
tp8174
I1
s(V\u101e
p8175
V\u100a
p8176
V\u103a
p8177
tp8178
I2
s(g22
V\u101e
p8179
V\u1030
p8180
tp8181
I13
s(g22
V\u101f
p8182
V\u102c
p8183
tp8184
I9
s(V\u102c
p8185
V\u1012
p8186
V\u102d
p8187
tp8188
I1
s(V\u1032
p8189
V\u1000
p8190
g22
tp8191
I4
s(V\u103a
p8192
V\u1000
p8193
V\u101c
p8194
tp8195
I1
s(V\u1012
p8196
V\u103a
p8197
V\u101c
p8198
tp8199
I1
s(V\u102e
p8200
V\u1021
p8201
V\u1005
p8202
tp8203
I7
s(g22
V\u1016
p8204
V\u102d
p8205
tp8206
I2
s(V\u1037
p8207
V\u1011
p8208
V\u1032
p8209
tp8210
I1
s(g22
V\u1021
p8211
V\u1000
p8212
tp8213
I16
s(V\u102e
p8214
V\u1010
p8215
V\u1005
p8216
tp8217
I1
s(V\u1010
p8218
V\u1030
p8219
V\u101c
p8220
tp8221
I1
s(V\u102f
p8222
V\u1015
p8223
V\u103c
p8224
tp8225
I2
s(V\u1010
p8226
V\u1015
p8227
V\u103d
p8228
tp8229
I1
s(V\u102b
p8230
g22
V\u101d
p8231
tp8232
I1
s(g22
V\u101b
p8233
V\u103e
p8234
tp8235
I17
s(V\u1037
p8236
g22
V\u1000
p8237
tp8238
I10
s(V\u103a
p8239
V\u1011
p8240
V\u1031
p8241
tp8242
I3
s(V\u1038
p8243
V\u1010
p8244
V\u102f
p8245
tp8246
I1
s(V\u1037
p8247
V\u1000
p8248
V\u102f
p8249
tp8250
I1
s(V\u101c
p8251
V\u1004
p8252
V\u103a
p8253
tp8254
I9
s(V\u1038
p8255
V\u101e
p8256
V\u102d
p8257
tp8258
I3
s(V\u103a
p8259
V\u1010
p8260
V\u1005
p8261
tp8262
I1
s(V\u103a
p8263
V\u1019
p8264
V\u103b
p8265
tp8266
I2
s(V\u1036
p8267
V\u1005
p8268
V\u100a
p8269
tp8270
I1
s(V\u101b
p8271
V\u102c
p8272
V\u1012
p8273
tp8274
I1
s(V\u1032
p8275
V\u1012
p8276
V\u102e
p8277
tp8278
I2
s(g4618
g1929
g2563
tp8279
I1
s(V\u1014
p8280
V\u103a
p8281
V\u1000
p8282
tp8283
I18
s(V\u1012
p8284
V\u1014
p8285
V\u103a
p8286
tp8287
I2
s(V\u1037
p8288
g22
V\u1026
p8289
tp8290
I3
s(V\u1032
p8291
V\u1010
p8292
V\u1015
p8293
tp8294
I1
s(g22
V\u1018
p8295
V\u102c
p8296
tp8297
I1
s(V\u103b
p8298
V\u102f
p8299
V\u1015
p8300
tp8301
I16
s(V\u1038
p8302
V\u1010
p8303
V\u1031
p8304
tp8305
I1
s(V\u102e
p8306
V\u1019
p8307
V\u103b
p8308
tp8309
I1
s(V\u102d
p8310
V\u102f
p8311
V\u1000
p8312
tp8313
I51
s(V\u1038
p8314
V\u101b
p8315
V\u101b
p8316
tp8317
I3
s(V\u1010
p8318
V\u103a
p8319
V\u1000
p8320
tp8321
I5
s(V\u1042
p8322
g206
V\u1015
p8323
tp8324
I1
s(V\u1015
p8325
V\u103a
p8326
V\u1005
p8327
tp8328
I4
s(V\u101e
p8329
V\u102e
p8330
V\u1010
p8331
tp8332
I1
s(V\u103a
p8333
V\u1038
p8334
V\u1011
p8335
tp8336
I9
s(V\u1018
p8337
V\u102e
p8338
V\u1018
p8339
tp8340
I1
s(V\u1038
p8341
V\u1005
p8342
V\u1009
p8343
tp8344
I3
s(V\u102e
p8345
V\u101c
p8346
V\u1030
p8347
tp8348
I1
s(V\u1038
p8349
g22
V\u1018
p8350
tp8351
I2
s(V\u1038
p8352
V\u104a
p8353
g22
tp8354
I1
s(V\u1004
p8355
V\u103a
p8356
V\u1001
p8357
tp8358
I8
s(V\u102c
p8359
g22
V\u101e
p8360
tp8361
I4
s(V\u1037
p8362
V\u103a
p8363
V\u1001
p8364
tp8365
I1
s(V\u1005
p8366
V\u103a
p8367
V\u1015
p8368
tp8369
I16
s(V\u1031
p8370
V\u1014
p8371
V\u1032
p8372
tp8373
I6
s(V\u101e
p8374
V\u102c
p8375
V\u1000
p8376
tp8377
I1
s(V\u101b
p8378
V\u1014
p8379
V\u103a
p8380
tp8381
I7
s(V\u1000
p8382
V\u101b
p8383
V\u1031
p8384
tp8385
I5
s(V\u1031
p8386
V\u1038
p8387
V\u1016
p8388
tp8389
I3
s(V\u1018
p8390
V\u1014
p8391
V\u103a
p8392
tp8393
I1
s(V\u1021
p8394
V\u101b
p8395
V\u102c
p8396
tp8397
I1
s(V\u1005
p8398
V\u102d
p8399
V\u1010
p8400
tp8401
I1
s(V\u103a
p8402
g22
V\u104b
p8403
tp8404
I1
s(V\u103b
p8405
V\u1004
p8406
V\u103a
p8407
tp8408
I6
s(V\u103a
p8409
V\u101c
p8410
V\u1036
p8411
tp8412
I1
s(g22
V\u1019
p8413
V\u102e
p8414
tp8415
I3
s(V\u1017
p8416
V\u102c
p8417
g22
tp8418
I1
s(g22
V\u1006
p8419
V\u1014
p8420
tp8421
I4
s(V\u100a
p8422
V\u103d
p8423
V\u1010
p8424
tp8425
I1
s(V\u1010
p8426
V\u103a
p8427
V\u1016
p8428
tp8429
I1
s(V\u1021
p8430
V\u1011
p8431
V\u103d
p8432
tp8433
I1
s(V\u103a
p8434
V\u101c
p8435
V\u1005
p8436
tp8437
I1
s(V\u102d
p8438
g22
V\u1001
p8439
tp8440
I1
s(V\u103d
p8441
V\u102c
p8442
g22
tp8443
I2
s(V\u1032
p8444
V\u1001
p8445
V\u103c
p8446
tp8447
I3
s(V\u1015
p8448
V\u103a
p8449
V\u1006
p8450
tp8451
I2
s(V\u103c
p8452
V\u102e
p8453
V\u1016
p8454
tp8455
I1
s(V\u1002
p8456
V\u103b
p8457
V\u1014
p8458
tp8459
I1
s(V\u1014
p8460
V\u1031
p8461
V\u1021
p8462
tp8463
I3
s(V\u101c
p8464
g22
V\u1021
p8465
tp8466
I1
s(V\u101b
p8467
g22
V\u1015
p8468
tp8469
I1
s(V\u1000
p8470
V\u103b
p8471
V\u1031
p8472
tp8473
I4
s(V\u1005
p8474
V\u103a
p8475
V\u1018
p8476
tp8477
I1
s(V\u1004
p8478
V\u1036
p8479
V\u101b
p8480
tp8481
I4
s(V\u1038
p8482
V\u1016
p8483
V\u103d
p8484
tp8485
I1
s(V\u103e
p8486
V\u100a
p8487
V\u103a
p8488
tp8489
I1
s(V\u102f
p8490
V\u1036
p8491
V\u1001
p8492
tp8493
I2
s(g22
V\u1021
p8494
V\u1006
p8495
tp8496
I5
s(V\u103a
p8497
V\u101e
p8498
V\u1010
p8499
tp8500
I1
s(g22
V\u1005
p8501
V\u1005
p8502
tp8503
I2
s(V\u101b
p8504
V\u101e
p8505
V\u103d
p8506
tp8507
I1
s(V\u1031
p8508
g22
V\u101e
p8509
tp8510
I1
s(V\u103c
p8511
V\u102d
p8512
V\u1019
p8513
tp8514
I3
s(V\u103e
p8515
V\u102f
p8516
V\u104a
p8517
tp8518
I1
s(V\u1021
p8519
V\u101c
p8520
V\u103d
p8521
tp8522
I1
s(g22
V\u101e
p8523
V\u102d
p8524
tp8525
I3
s(g22
V\u1048
p8526
V\u101b
p8527
tp8528
I1
s(g4657
g2185
g382
tp8529
I1
s(V\u103a
p8530
g22
V\u1011
p8531
tp8532
I11
s(V\u1012
p8533
V\u102e
p8534
g22
tp8535
I3
s(V\u1031
p8536
g22
V\u1005
p8537
tp8538
I5
s(V\u1031
p8539
V\u1010
p8540
V\u103d
p8541
tp8542
I1
s(V\u102f
p8543
V\u1006
p8544
V\u102e
p8545
tp8546
I1
s(g22
V\u1000
p8547
V\u102f
p8548
tp8549
I4
s(V\u1039
p8550
V\u1005
p8551
V\u101c
p8552
tp8553
I1
s(V\u101a
p8554
V\u103a
p8555
V\u1005
p8556
tp8557
I1
s(V\u1014
p8558
V\u1031
p8559
V\u1037
p8560
tp8561
I11
s(V\u1000
p8562
V\u1031
p8563
V\u102c
p8564
tp8565
I4
s(V\u101b
p8566
V\u101e
p8567
V\u1005
p8568
tp8569
I1
s(V\u103a
p8570
V\u1016
p8571
V\u103d
p8572
tp8573
I1
s(g22
V\u1019
p8574
V\u103c
p8575
tp8576
I7
s(V\u1038
p8577
V\u101b
p8578
V\u103e
p8579
tp8580
I1
s(V\u1032
p8581
V\u101d
p8582
V\u1031
p8583
tp8584
I1
s(V\u1038
p8585
V\u1014
p8586
V\u1005
p8587
tp8588
I1
s(V\u101e
p8589
V\u102c
p8590
g22
tp8591
I1
s(V\u102f
p8592
V\u1021
p8593
V\u1004
p8594
tp8595
I1
s(V\u1036
p8596
V\u1004
p8597
V\u103d
p8598
tp8599
I1
s(V\u1038
p8600
V\u1005
p8601
V\u102d
p8602
tp8603
I1
s(V\u101e
p8604
V\u1031
p8605
V\u1038
p8606
tp8607
I1
s(V\u1000
p8608
V\u102f
p8609
V\u101c
p8610
tp8611
I4
s(g22
V\u101b
p8612
V\u1001
p8613
tp8614
I11
s(g22
V\u1006
p8615
V\u102d
p8616
tp8617
I12
s(V\u1031
p8618
V\u1038
p8619
V\u1014
p8620
tp8621
I8
s(V\u1010
p8622
V\u102e
p8623
V\u1011
p8624
tp8625
I2
s(V\u1016
p8626
V\u1031
p8627
V\u102c
p8628
tp8629
I1
s(V\u1021
p8630
V\u1015
p8631
V\u1005
p8632
tp8633
I5
s(V\u102b
p8634
g22
V\u1021
p8635
tp8636
I1
s(V\u102c
p8637
g22
V\u1018
p8638
tp8639
I1
s(V\u102c
p8640
V\u1004
p8641
V\u103d
p8642
tp8643
I1
s(V\u102e
p8644
V\u1038
p8645
V\u1010
p8646
tp8647
I4
s(V\u1018
p8648
V\u102f
p8649
V\u101b
p8650
tp8651
I1
s(V\u1019
p8652
V\u1039
p8653
V\u1019
p8654
tp8655
I7
s(V\u1015
p8656
V\u1031
p8657
V\u1019
p8658
tp8659
I7
s(V\u1032
p8660
V\u1037
p8661
V\u101d
p8662
tp8663
I1
s(V\u1001
p8664
V\u1036
p8665
V\u1001
p8666
tp8667
I1
s(V\u102f
p8668
V\u101c
p8669
V\u100a
p8670
tp8671
I2
s(g1929
g384
g2185
tp8672
I1
s(V\u102d
p8673
V\u1001
p8674
V\u1032
p8675
tp8676
I2
s(V\u103b
p8677
V\u1031
p8678
V\u102c
p8679
tp8680
I4
s(V\u103e
p8681
V\u102d
p8682
V\u1019
p8683
tp8684
I2
s(V\u1014
p8685
V\u103d
p8686
V\u1014
p8687
tp8688
I1
s(V\u103a
p8689
V\u1037
p8690
V\u1015
p8691
tp8692
I1
s(V\u1038
p8693
V\u101c
p8694
V\u102c
p8695
tp8696
I3
s(V\u1019
p8697
V\u1031
p8698
V\u101b
p8699
tp8700
I15
s(V\u1011
p8701
V\u102c
p8702
V\u1038
p8703
tp8704
I22
s(V\u103d
p8705
V\u1031
p8706
V\u101b
p8707
tp8708
I2
s(V\u101c
p8709
V\u1030
p8710
V\u1004
p8711
tp8712
I1
s(V\u102d
p8713
V\u1018
p8714
V\u1030
p8715
tp8716
I3
s(V\u1000
p8717
V\u1005
p8718
V\u102c
p8719
tp8720
I1
s(V\u101b
p8721
V\u101b
p8722
V\u1032
p8723
tp8724
I1
s(V\u102f
p8725
V\u1021
p8726
V\u101b
p8727
tp8728
I1
s(V\u103b
p8729
g22
V\u101c
p8730
tp8731
I1
s(V\u102d
p8732
V\u102f
p8733
V\u1019
p8734
tp8735
I3
s(V\u1015
p8736
V\u103c
p8737
V\u100a
p8738
tp8739
I12
s(V\u1010
p8740
V\u100a
p8741
V\u103a
p8742
tp8743
I4
s(V\u1005
p8744
V\u1015
p8745
V\u103c
p8746
tp8747
I1
s(V\u1031
p8748
V\u102c
p8749
V\u1000
p8750
tp8751
I45
s(V\u1019
p8752
V\u1010
p8753
g22
tp8754
I3
s(V\u101f
p8755
V\u102c
p8756
g22
tp8757
I18
s(V\u1038
p8758
V\u101c
p8759
V\u100a
p8760
tp8761
I1
s(V\u100a
p8762
V\u103a
p8763
V\u1037
p8764
tp8765
I4
s(V\u103a
p8766
V\u1014
p8767
V\u1014
p8768
tp8769
I8
s(V\u1000
p8770
V\u102c
p8771
V\u1038
p8772
tp8773
I2
s(V\u1000
p8774
V\u1019
p8775
V\u1039
p8776
tp8777
I1
s(V\u101d
p8778
V\u1031
p8779
V\u1038
p8780
tp8781
I5
s(V\u1036
p8782
V\u101b
p8783
V\u103d
p8784
tp8785
I1
s(V\u103d
p8786
V\u1015
p8787
V\u103a
p8788
tp8789
I1
s(V\u102c
p8790
V\u101e
p8791
V\u103d
p8792
tp8793
I1
s(V\u1021
p8794
V\u1005
p8795
V\u102e
p8796
tp8797
I5
s(g22
V\u1043
p8798
g22
tp8799
I4
s(V\u103e
p8800
V\u1031
p8801
V\u1005
p8802
tp8803
I1
s(V\u1037
p8804
V\u1010
p8805
V\u102c
p8806
tp8807
I6
s(g22
V\u1010
p8808
V\u103d
p8809
tp8810
I16
s(V\u102f
p8811
V\u1038
p8812
V\u1011
p8813
tp8814
I1
s(V\u103e
p8815
V\u1010
p8816
V\u103a
p8817
tp8818
I1
s(V\u1025
p8819
V\u101b
p8820
V\u1031
p8821
tp8822
I1
s(V\u1006
p8823
V\u102e
p8824
g22
tp8825
I3
s(V\u1037
p8826
V\u101c
p8827
V\u102d
p8828
tp8829
I1
s(V\u1019
p8830
g22
V\u1010
p8831
tp8832
I2
s(g22
V\u1021
p8833
V\u101c
p8834
tp8835
I5
s(V\u1031
p8836
V\u1000
p8837
V\u103c
p8838
tp8839
I9
s(V\u103a
p8840
V\u1004
p8841
V\u1036
p8842
tp8843
I23
s(V\u101f
p8844
V\u1031
p8845
V\u1019
p8846
tp8847
I2
s(V\u1014
p8848
V\u1037
p8849
V\u103a
p8850
tp8851
I6
s(V\u102e
p8852
V\u1000
p8853
g22
tp8854
I3
s(V\u1036
p8855
V\u1010
p8856
V\u103d
p8857
tp8858
I5
s(V\u103a
p8859
V\u101c
p8860
V\u102c
p8861
tp8862
I1
s(V\u102f
p8863
V\u1019
p8864
V\u102d
p8865
tp8866
I2
s(V\u1002
p8867
V\u1031
p8868
g22
tp8869
I1
s(V\u101e
p8870
V\u1015
p8871
V\u1010
p8872
tp8873
I1
s(V\u1021
p8874
V\u1014
p8875
V\u1039
p8876
tp8877
I1
s(V\u103d
p8878
V\u1031
p8879
V\u1038
p8880
tp8881
I12
s(V\u1015
p8882
V\u102f
p8883
V\u1036
p8884
tp8885
I1
s(g22
V\u101b
p8886
V\u103d
p8887
tp8888
I4
s(V\u1005
p8889
V\u1031
p8890
V\u1001
p8891
tp8892
I1
s(V\u102c
p8893
V\u1038
p8894
V\u1000
p8895
tp8896
I14
s(V\u1037
p8897
V\u101b
p8898
V\u1015
p8899
tp8900
I2
s(V\u103a
p8901
V\u101e
p8902
V\u103d
p8903
tp8904
I6
s(V\u1032
p8905
V\u1011
p8906
V\u1031
p8907
tp8908
I1
s(V\u104b
p8909
g22
V\u1012
p8910
tp8911
I1
s(V\u1038
p8912
g22
V\u101c
p8913
tp8914
I13
s(V\u1036
p8915
V\u1038
p8916
V\u1021
p8917
tp8918
I1
s(V\u1019
p8919
V\u1036
p8920
V\u1001
p8921
tp8922
I1
s(V\u103c
p8923
g22
V\u1011
p8924
tp8925
I1
s(V\u1015
p8926
V\u102b
p8927
V\u1018
p8928
tp8929
I1
s(V\u1038
p8930
V\u101e
p8931
V\u1030
p8932
tp8933
I6
s(V\u1005
p8934
V\u1032
p8935
g22
tp8936
I1
s(V\u102e
p8937
V\u1038
p8938
V\u1016
p8939
tp8940
I1
s(V\u1016
p8941
V\u103d
p8942
V\u1032
p8943
tp8944
I9
s(V\u1000
p8945
V\u1032
p8946
g22
tp8947
I1
ssS'font'
p8948
S'unicode'
p8949
sS'totalNGram'
p8950
I11121
sb.