ccopy_reg
_reconstructor
p0
(c__main__
ngramModel
p1
c__builtin__
object
p2
Ntp3
Rp4
(dp5
S'lang'
p6
S'mon'
p7
sS'logSum'
p8
F1905.5978995023559
sS'linesAdded'
p9
I136
sS'numSamples'
p10
I23451
sS'ngramLength'
p11
I2
sS'modelFileName'
p12
S'models/monUnicode_2_model.save'
p13
sS'detectorType'
p14
S'NGRAM'
p15
sS'fileName'
p16
S'testdata/monUnicode.txt'
p17
sS'model'
p18
(dp19
(V 
p20
VC
p21
tp22
I3
s(g20
V\u1043
p23
tp24
I13
s(V\u102b
p25
V\u1004
p26
tp27
I14
s(V\u102d
p28
g20
tp29
I11
s(V\u103f
p30
V\u1014
p31
tp32
I2
s(V\u101c
p33
V\u1012
p34
tp35
I1
s(V\u102d
p36
V\u101b
p37
tp38
I10
s(V\u1018
p39
V\u1032
p40
tp41
I22
s(V\u1021
p42
V\u1006
p43
tp44
I13
s(V\u1015
p45
V\u101c
p46
tp47
I1
s(V\u1015
p48
V\u1004
p49
tp50
I7
s(V\u1031
p51
V\u101a
p52
tp53
I1
s(V\u1015
p54
V\u1011
p55
tp56
I4
s(V\u102b
p57
V\u1015
p58
tp59
I9
s(V\u1031
p60
V\u1015
p61
tp62
I14
s(V\u100a
p63
V\u102e
p64
tp65
I17
s(V\u1019
p66
g20
tp67
I3
s(Vt
p68
Vy
p69
tp70
I1
s(V(
p71
V\u1046
p72
tp73
I5
s(V\u103b
p74
V\u103e
p75
tp76
I8
s(V\u1037
p77
V\u1016
p78
tp79
I6
s(V\u101b
p80
V\u1015
p81
tp82
I24
s(VA
p83
VN
p84
tp85
I1
s(V\u1021
p86
V\u1015
p87
tp88
I19
s(g20
V\u101b
p89
tp90
I86
s(g21
VT
p91
tp92
I1
s(V\u103e
p93
V\u102f
p94
tp95
I52
s(V\u100d
p96
V\u1021
p97
tp98
I1
s(g71
V\u1045
p99
tp100
I2
s(V\u1031
p101
g20
tp102
I41
s(V\u103c
p103
V\u100c
p104
tp105
I3
s(V\u103a
p106
V)
p107
tp108
I2
s(V\u1011
p109
V\u1032
p110
tp111
I10
s(g20
V\u100a
p112
tp113
I14
s(V\u1019
p114
V\u103a
p115
tp116
I92
s(g20
VG
p117
tp118
I2
s(V\u102d
p119
V\u1015
p120
tp121
I25
s(V\u1021
p122
V\u1014
p123
tp124
I24
s(V\u1001
p125
V\u103b
p126
tp127
I116
s(VE
p128
VD
p129
tp130
I1
s(V\u103e
p131
V\u1004
p132
tp133
I45
s(V\u103a
p134
V\u104d
p135
tp136
I1
s(V\u100d
p137
V\u102b
p138
tp139
I1
s(V\u102b
p140
V\u1019
p141
tp142
I6
s(V\u1016
p143
V\u102d
p144
tp145
I8
s(V\u104f
p146
g20
tp147
I15
s(V\u102c
p148
V\u1006
p149
tp150
I11
s(V\u102f
p151
V\u1006
p152
tp153
I6
s(g20
V\u101c
p154
tp155
I79
s(V\u1032
p156
V\u101d
p157
tp158
I7
s(V\u1013
p159
V\u1014
p160
tp161
I1
s(g117
V.
p162
tp163
I2
s(V\u1015
p164
V\u103a
p165
tp166
I85
s(V\u103e
p167
g20
tp168
I40
s(V\u101a
p169
V\u1001
p170
tp171
I4
s(g20
g91
tp172
I3
s(g20
V\u1019
p173
tp174
I107
s(V\u1032
p175
V\u1006
p176
tp177
I7
s(V\u1038
p178
V\u103a
p179
tp180
I7
s(V\u102b
p181
V\u1012
p182
tp183
I4
s(V\u102f
p184
V\u1019
p185
tp186
I20
s(V\u1015
p187
V\u102b
p188
tp189
I173
s(V\u101e
p190
V\u102c
p191
tp192
I65
s(V\u1006
p193
V\u1031
p194
tp195
I23
s(V\u103b
p196
V\u1005
p197
tp198
I1
s(V\u103b
p199
V\u1030
p200
tp201
I1
s(V\u1000
p202
V\u1006
p203
tp204
I2
s(V\u102d
p205
V\u101c
p206
tp207
I2
s(V\u201c
p208
V\u1025
p209
tp210
I1
s(Va
p211
Vn
p212
tp213
I3
s(V\u1042
p214
V\u1046
p215
tp216
I1
s(V\u1019
p217
V\u103e
p218
tp219
I156
s(Vr
p220
Vi
p221
tp222
I2
s(g84
VL
p223
tp224
I1
s(V\u1031
p225
V\u101e
p226
tp227
I26
s(VW
p228
g107
tp229
I1
s(V\u1012
p230
V\u1005
p231
tp232
I1
s(g211
Vs
p233
tp234
I1
s(V\u201c
p235
V\u1001
p236
tp237
I1
s(V\u1006
p238
V\u1032
p239
tp240
I2
s(g71
VJ
p241
tp242
I2
s(V\u101a
p243
V\u100a
p244
tp245
I1
s(V\u1005
p246
V\u1039
p247
tp248
I11
s(Vo
p249
Vu
p250
tp251
I2
s(V\u1041
p252
V\u1042
p253
tp254
I3
s(V\u1030
p255
V:
p256
tp257
I4
s(V\u1010
p258
V\u102f
p259
tp260
I2
s(V\u1000
p261
g20
tp262
I55
s(V\u101b
p263
V\u1018
p264
tp265
I2
s(V\u102f
p266
V\u1010
p267
tp268
I46
s(g71
VU
p269
tp270
I3
s(V\u103a
p271
V\u1014
p272
tp273
I119
s(V\u102c
p274
V\u1038
p275
tp276
I373
s(V\u1005
p277
V\u1005
p278
tp279
I17
s(V\u1000
p280
V\u100f
p281
tp282
I3
s(V\u1011
p283
V\u1036
p284
tp285
I2
s(g223
g221
tp286
I1
s(V\u102d
p287
V\u1011
p288
tp289
I6
s(V\u1030
p290
V\u101d
p291
tp292
I1
s(V\u101d
p293
g20
tp294
I6
s(V\u1002
p295
V\u101a
p296
tp297
I2
s(g221
g212
tp298
I1
s(g162
VP
p299
tp300
I4
s(g299
g129
tp301
I1
s(V\u1030
p302
V\u100a
p303
tp304
I5
s(V\u101c
p305
V\u1019
p306
tp307
I3
s(V\u1046
p308
V\u1040
p309
tp310
I4
s(V\u1019
p311
V\u1031
p312
tp313
I6
s(V\u1019
p314
V\u1039
p315
tp316
I2
s(V\u1007
p317
V\u101a
p318
tp319
I2
s(g20
V\u1041
p320
tp321
I16
s(V\u1030
p322
V\u1038
p323
tp324
I26
s(V\u1010
p325
V\u102d
p326
tp327
I75
s(V\u1011
p328
V\u102f
p329
tp330
I10
s(V\u102c
p331
V\u1015
p332
tp333
I22
s(VI
p334
g212
tp335
I4
s(V\u1019
p336
V\u1015
p337
tp338
I8
s(V\u1001
p339
V\u1000
p340
tp341
I1
s(V\u102f
p342
V\u101d
p343
tp344
I2
s(V\u103b
p345
V\u1015
p346
tp347
I3
s(V\u1019
p348
V\u1030
p349
tp350
I6
s(g68
g20
tp351
I3
s(V\u1010
p352
V\u1001
p353
tp354
I11
s(V\u1032
p355
V\u1010
p356
tp357
I13
s(V\u102d
p358
V\u1018
p359
tp360
I3
s(V\u1036
p361
g71
tp362
I1
s(VM
p363
g233
tp364
I1
s(g162
g334
tp365
I2
s(V\u1031
p366
V\u101b
p367
tp368
I39
s(V\u101b
p369
V\u1031
p370
tp371
I178
s(V\u1007
p372
V\u1030
p373
tp374
I4
s(g20
V\u104a
p375
tp376
I2
s(V\u1019
p377
V\u1014
p378
tp379
I2
s(V\u102b
p380
V\u101d
p381
tp382
I40
s(V\u1039
p383
V\u1015
p384
tp385
I1
s(V\u1036
p386
V\u1004
p387
tp388
I2
s(V\u1021
p389
V\u101b
p390
tp391
I31
s(g21
Vh
p392
tp393
I1
s(g71
g84
tp394
I2
s(g83
VO
p395
tp396
I3
s(g395
g233
tp397
I1
s(V\u1041
p398
V\u1046
p399
tp400
I3
s(V\u1021
p401
V\u102d
p402
tp403
I14
s(g20
V\u1013
p404
tp405
I1
s(V\u1032
p406
V\u1037
p407
tp408
I173
s(V\u1009
p409
V\u103a
p410
tp411
I20
s(V\u103c
p412
V\u1004
p413
tp414
I66
s(VF
p415
g21
tp416
I1
s(V\u1015
p417
V\u1031
p418
tp419
I50
s(V\u103a
p420
V\u1021
p421
tp422
I57
s(g20
V\u1002
p423
tp424
I2
s(g20
V\u1037
p425
tp426
I2
s(V\u1032
p427
V\u1012
p428
tp429
I7
s(V\u1046
p430
V-
p431
tp432
I1
s(V\u103a
p433
V\u101d
p434
tp435
I1
s(V\u1021
p436
V\u102c
p437
tp438
I36
s(V\u1039
p439
V\u1005
p440
tp441
I11
s(g220
g220
tp442
I1
s(V\u103c
p443
g20
tp444
I5
s(g20
V\u1048
p445
tp446
I6
s(g20
V\u1026
p447
tp448
I33
s(V\u100f
p449
V\u103a
p450
tp451
I1
s(V\u1049
p452
V\u1047
p453
tp454
I1
s(V\u103c
p455
V\u1005
p456
tp457
I74
s(V\u1014
p458
V\u102c
p459
tp460
I15
s(V\u1038
p461
V\u1016
p462
tp463
I33
s(V\u1038
p464
V\u104b
p465
tp466
I4
s(g212
V\u2019
p467
tp468
I2
s(g221
Vc
p469
tp470
I1
s(V\u201c
p471
V\u1000
p472
tp473
I1
s(g107
V\u1000
p474
tp475
I2
s(V\u1021
p476
V\u100a
p477
tp478
I3
s(g20
V\u1011
p479
tp480
I38
s(V\u1000
p481
V\u103a
p482
tp483
I306
s(g228
g249
tp484
I2
s(V\u1038
p485
V\u1001
p486
tp487
I85
s(V\u1006
p488
V\u1004
p489
tp490
I20
s(V\u1001
p491
V\u1004
p492
tp493
I3
s(V\u102f
p494
V\u1021
p495
tp496
I17
s(g211
g68
tp497
I2
s(V\u1047
p498
g20
tp499
I1
s(V\u101e
p500
V\u1014
p501
tp502
I1
s(g20
V\u1000
p503
tp504
I98
s(V\u102f
p505
V\u1037
p506
tp507
I106
s(V\u102d
p508
V\u1014
p509
tp510
I29
s(V\u101c
p511
V\u103d
p512
tp513
I25
s(V\u1032
p514
V\u1014
p515
tp516
I3
s(V\u102d
p517
V\u100f
p518
tp519
I1
s(V\u1019
p520
V\u1006
p521
tp522
I3
s(V\u103e
p523
V\u1005
p524
tp525
I17
s(V\u1031
p526
V\u101f
p527
tp528
I2
s(V\u1048
p529
g107
tp530
I5
s(g212
g211
tp531
I1
s(g299
g20
tp532
I2
s(V\u1031
p533
V\u1016
p534
tp535
I6
s(V\u1011
p536
V\u103d
p537
tp538
I25
s(V\u101b
p539
V\u1004
p540
tp541
I40
s(V\u1031
p542
V\u1001
p543
tp544
I19
s(V\u201d
p545
g20
tp546
I15
s(V\u201c
p547
V\u1019
p548
tp549
I2
s(V\u1036
p550
V\u1000
p551
tp552
I9
s(V\u1041
p553
V\u1048
p554
tp555
I1
s(V\u103e
p556
V\u1021
p557
tp558
I1
s(V\u1041
p559
V\u1043
p560
tp561
I1
s(V\u1002
p562
V\u102f
p563
tp564
I1
s(V\u1005
p565
V\u1021
p566
tp567
I1
s(V\u102f
p568
V\u1018
p569
tp570
I3
s(V\u1010
p571
V\u1036
p572
tp573
I3
s(V\u1038
p574
V\u1007
p575
tp576
I5
s(V\u101e
p577
V\u102d
p578
tp579
I35
s(V\u1005
p580
V\u1036
p581
tp582
I7
s(V\u104b
p583
V\u1000
p584
tp585
I1
s(V\u1000
p586
V\u101c
p587
tp588
I13
s(V\u1004
p589
V\u1037
p590
tp591
I14
s(V\u104b
p592
V\u000a
p593
tp594
I66
s(V\u102f
p595
g107
tp596
I1
s(V\u103c
p597
V\u102e
p598
tp599
I50
s(V\u1004
p600
V\u103c
p601
tp602
I41
s(g334
g162
tp603
I2
s(V\u1046
p604
V\u1046
p605
tp606
I1
s(Ve
p607
g212
tp608
I2
s(V\u1014
p609
V\u1015
p610
tp611
I1
s(V\u1012
p612
g20
tp613
I1
s(V\u1014
p614
V\u101a
p615
tp616
I40
s(V\u1030
p617
V\u101c
p618
tp619
I4
s(V\u1021
p620
V\u1032
p621
tp622
I8
s(V\u1010
p623
V\u100a
p624
tp625
I12
s(V\u1038
p626
V\u101a
p627
tp628
I4
s(V\u1038
p629
V\u104f
p630
tp631
I8
s(V\u101f
p632
V\u1031
p633
tp634
I1
s(Vg
p635
Vl
p636
tp637
I2
s(V\u101a
p638
V\u1004
p639
tp640
I13
s(V\u103c
p641
V\u102f
p642
tp643
I23
s(V\u1000
p644
V\u1021
p645
tp646
I1
s(g68
g607
tp647
I6
s(V\u102b
p648
g71
tp649
I1
s(V\u103d
p650
V\u1004
p651
tp652
I110
s(g20
V\u1047
p653
tp654
I3
s(V\u1048
p655
V\u1042
p656
tp657
I1
s(V\u1040
p658
V\u101d
p659
tp660
I5
s(V\u1038
p661
V\u1005
p662
tp663
I53
s(V\u1016
p664
V\u1030
p665
tp666
I1
s(g71
V\u1043
p667
tp668
I1
s(V\u1002
p669
V\u101c
p670
tp671
I1
s(V\u1015
p672
V\u1000
p673
tp674
I3
s(V\u1038
p675
V/
p676
tp677
I2
s(V\u102e
p678
g20
tp679
I9
s(V\u1019
p680
V\u1038
p681
tp682
I6
s(V\u102d
p683
V\u1010
p684
tp685
I17
s(V\u100a
p686
V\u103a
p687
tp688
I300
s(V\u1031
p689
V\u1018
p690
tp691
I3
s(g71
V\u1019
p692
tp693
I1
s(V\u1045
p694
g20
tp695
I13
s(V\u1001
p696
V\u103d
p697
tp698
I50
s(g162
g223
tp699
I1
s(V\u103b
p700
V\u1019
p701
tp702
I37
s(V\u1031
p703
V\u100a
p704
tp705
I1
s(V\u1011
p706
V\u1031
p707
tp708
I30
s(V\u1016
p709
V\u1031
p710
tp711
I12
s(V\u102b
p712
V\u1005
p713
tp714
I1
s(V\u1031
p715
V\u1005
p716
tp717
I12
s(V\u102f
p718
V\u1001
p719
tp720
I5
s(V\u1036
p721
V\u101c
p722
tp723
I5
s(V\u1021
p724
V\u1013
p725
tp726
I3
s(V\u1018
p727
V\u102d
p728
tp729
I9
s(V\u1043
p730
V\u1045
p731
tp732
I3
s(V\u101a
p733
V\u1039
p734
tp735
I2
s(g91
g220
tp736
I2
s(V\u103a
p737
V\u1005
p738
tp739
I73
s(Vd
p740
g211
tp741
I1
s(V\u1012
p742
V\u1000
p743
tp744
I2
s(V\u1002
p745
V\u1005
p746
tp747
I1
s(V\u1030
p748
V\u1021
p749
tp750
I3
s(V\u102f
p751
V\u101c
p752
tp753
I24
s(V\u1004
p754
V\u1014
p755
tp756
I3
s(V\u1011
p757
V\u1030
p758
tp759
I4
s(g71
V\u1041
p760
tp761
I8
s(V\u1001
p762
V\u1019
p763
tp764
I2
s(V\u102e
p765
V\u1019
p766
tp767
I26
s(V\u103c
p768
V\u101c
p769
tp770
I1
s(V\u1015
p771
V\u1030
p772
tp773
I5
s(V\u1049
p774
g20
tp775
I2
s(g241
g21
tp776
I1
s(V\u1016
p777
V\u1000
p778
tp779
I17
s(V\u1015
p780
V\u1036
p781
tp782
I1
s(V\u101d
p783
V\u103a
p784
tp785
I1
s(V\u102c
p786
V\u101a
p787
tp788
I10
s(V\u103e
p789
V\u101a
p790
tp791
I21
s(V\u1039
p792
V\u1002
p793
tp794
I1
s(V\u102d
p795
V\u1005
p796
tp797
I10
s(g249
g636
tp798
I1
s(V\u1039
p799
V\u100d
p800
tp801
I4
s(V\u1037
p802
V\u1000
p803
tp804
I28
s(V\u101a
p805
V\u103d
p806
tp807
I2
s(V\u1021
p808
V\u101a
p809
tp810
I1
s(g20
V>
p811
tp812
I2
s(V\u1036
p813
V\u1005
p814
tp815
I23
s(V\u1013
p816
V\u1019
p817
tp818
I1
s(g83
g162
tp819
I2
s(V\u1038
p820
V\u101e
p821
tp822
I187
s(V\u102f
p823
V\u1012
p824
tp825
I2
s(V\u102c
p826
V\u101b
p827
tp828
I24
s(V\u101e
p829
V\u1030
p830
tp831
I44
s(g249
g220
tp832
I3
s(V\u1000
p833
V\u1032
p834
tp835
I4
s(V\u103d
p836
V\u1000
p837
tp838
I31
s(V\u1037
p839
V\u1014
p840
tp841
I13
s(V\u1032
p842
V\u1001
p843
tp844
I2
s(g811
g20
tp845
I2
s(g71
V\u1047
p846
tp847
I6
s(V\u1037
p848
V\u000a
p849
tp850
I1
s(V\u1017
p851
V\u101f
p852
tp853
I2
s(V\u103a
p854
V\u000a
p855
tp856
I1
s(V\u201c
p857
V\u1010
p858
tp859
I3
s(V\u101e
p860
V\u101c
p861
tp862
I17
s(g20
V\u2018
p863
tp864
I4
s(V\u101b
p865
g20
tp866
I15
s(V\u1032
p867
V\u101c
p868
tp869
I3
s(g84
VB
p870
tp871
I1
s(V\u1031
p872
V\u101c
p873
tp874
I6
s(V\u103b
p875
V\u1014
p876
tp877
I1
s(g220
g69
tp878
I1
s(g69
g20
tp879
I2
s(g212
g221
tp880
I1
s(V\u103b
p881
V\u1031
p882
tp883
I21
s(V\u1040
p884
V\u1041
p885
tp886
I7
s(g21
g431
tp887
I1
s(V\u1036
p888
V\u1018
p889
tp890
I4
s(V\u102b
p891
g20
tp892
I9
s(V\u1018
p893
V\u1031
p894
tp895
I13
s(V\u103a
p896
V\u1000
p897
tp898
I71
s(V\u1045
p899
g107
tp900
I2
s(V\u1000
p901
V\u103b
p902
tp903
I42
s(V\u101c
p904
V\u1032
p905
tp906
I11
s(V\u1040
p907
V%
p908
tp909
I2
s(V\u103c
p910
V\u100a
p911
tp912
I69
s(V\u1037
p913
V\u1005
p914
tp915
I14
s(V\u102f
p916
g20
tp917
I107
s(V\u104b
p918
V\u101c
p919
tp920
I1
s(V\u1001
p921
V\u1036
p922
tp923
I58
s(g71
g128
tp924
I1
s(V\u101e
p925
V\u1015
p926
tp927
I2
s(V\u1004
p928
V\u1036
p929
tp930
I30
s(V\u102f
p931
V\u1036
p932
tp933
I94
s(g431
g20
tp934
I1
s(V\u1010
p935
V\u102e
p936
tp937
I31
s(V\u101b
p938
V\u102e
p939
tp940
I1
s(V\u1000
p941
V\u1014
p942
tp943
I5
s(V\u103d
p944
V\u103e
p945
tp946
I22
s(V\u1019
p947
V\u1011
p948
tp949
I2
s(V\u1013
p950
V\u102d
p951
tp952
I3
s(V\u102d
p953
V\u1001
p954
tp955
I11
s(V\u1036
p956
V\u1037
p957
tp958
I6
s(g107
V\u1021
p959
tp960
I1
s(V\u102c
p961
V\u1004
p962
tp963
I174
s(V\u1037
p964
V\u1004
p965
tp966
I1
s(V\u103a
p967
V\u1012
p968
tp969
I25
s(V\u1030
p970
V\u1014
p971
tp972
I2
s(V\u1036
p973
V\u1001
p974
tp975
I7
s(V\u102c
p976
g107
tp977
I1
s(V\u101f
p978
V\u102d
p979
tp980
I5
s(V\u1014
p981
V\u1030
p982
tp983
I3
s(V\u1032
p984
V\u104b
p985
tp986
I5
s(V\u1019
p987
V\u1001
p988
tp989
I6
s(g20
V\u1021
p990
tp991
I259
s(V\u102e
p992
V\u1016
p993
tp994
I4
s(V\u1000
p995
V\u1039
p996
tp997
I8
s(V\u102b
p998
V\u1010
p999
tp1000
I63
s(V\u101c
p1001
V\u1000
p1002
tp1003
I35
s(V\u103d
p1004
V\u101c
p1005
tp1006
I1
s(V\u101d
p1007
V\u102b
p1008
tp1009
I5
s(V\u102c
p1010
V\u1005
p1011
tp1012
I8
s(V\u1037
p1013
V\u101b
p1014
tp1015
I21
s(V\u1032
p1016
V\u1005
p1017
tp1018
I4
s(V\u102e
p1019
V\u101e
p1020
tp1021
I5
s(g21
g20
tp1022
I1
s(V\u104d
p1023
g20
tp1024
I2
s(V\u1001
p1025
V\u1010
p1026
tp1027
I4
s(g71
g21
tp1028
I1
s(g241
g334
tp1029
I1
s(g221
g211
tp1030
I3
s(g129
g83
tp1031
I3
s(V\u102e
p1032
g71
tp1033
I6
s(V\u1019
p1034
V\u1000
p1035
tp1036
I13
s(V\u1010
p1037
V\u102c
p1038
tp1039
I42
s(V\u102c
p1040
V\u104a
p1041
tp1042
I5
s(V\u1013
p1043
V\u102b
p1044
tp1045
I2
s(V\u1031
p1046
V\u1010
p1047
tp1048
I8
s(g431
V\u1003
p1049
tp1050
I1
s(g71
V\u1001
p1051
tp1052
I1
s(V\u103b
p1053
V\u102f
p1054
tp1055
I10
s(V\u1001
p1056
V\u101e
p1057
tp1058
I3
s(V\u102e
p1059
V\u101a
p1060
tp1061
I2
s(V\u1036
p1062
V\u100a
p1063
tp1064
I4
s(V\u1010
p1065
V\u1000
p1066
tp1067
I12
s(V\u103e
p1068
V\u103b
p1069
tp1070
I1
s(V\u1012
p1071
V\u1019
p1072
tp1073
I2
s(V\u101f
p1074
V\u1030
p1075
tp1076
I2
s(V\u1036
p1077
V\u1014
p1078
tp1079
I2
s(V\u1041
p1080
V\u1044
p1081
tp1082
I1
s(g71
V\u1010
p1083
tp1084
I1
s(g233
g221
tp1085
I1
s(V\u103a
p1086
V\u201d
p1087
tp1088
I11
s(V\u1040
p1089
g20
tp1090
I18
s(g740
g221
tp1091
I1
s(V\u103a
p1092
V\u103a
p1093
tp1094
I1
s(g20
VS
p1095
tp1096
I2
s(g363
g84
tp1097
I1
s(V\u1037
p1098
V\u1019
p1099
tp1100
I21
s(g20
V\u1004
p1101
tp1102
I36
s(g636
g249
tp1103
I1
s(g71
g334
tp1104
I4
s(V\u100a
p1105
V\u1004
p1106
tp1107
I1
s(V\u102e
p1108
V\u1021
p1109
tp1110
I11
s(V\u103c
p1111
V\u1014
p1112
tp1113
I23
s(V\u1015
p1114
V\u100a
p1115
tp1116
I4
s(V\u103e
p1117
V\u1010
p1118
tp1119
I22
s(g20
V\u1012
p1120
tp1121
I47
s(V\u1038
p1122
V\u101d
p1123
tp1124
I5
s(g20
V\u104b
p1125
tp1126
I1
s(V\u102c
p1127
V\u1012
p1128
tp1129
I1
s(V\u101b
p1130
V\u104a
p1131
tp1132
I1
s(V\u101a
p1133
V\u102f
p1134
tp1135
I1
s(V\u104c
p1136
V\u000a
p1137
tp1138
I1
s(V\u102c
p1139
V\u1037
p1140
tp1141
I22
s(V\u1037
p1142
V\u1018
p1143
tp1144
I2
s(V\u1014
p1145
V\u102e
p1146
tp1147
I4
s(V\u103b
p1148
V\u1000
p1149
tp1150
I32
s(V\u103c
p1151
V\u1015
p1152
tp1153
I8
s(V\u1038
p1154
V\u1026
p1155
tp1156
I1
s(V\u1042
p1157
g107
tp1158
I2
s(V\u103a
p1159
V\u1006
p1160
tp1161
I45
s(V\u1030
p1162
V\u104f
p1163
tp1164
I3
s(g220
g249
tp1165
I2
s(V\u103a
p1166
V\u101f
p1167
tp1168
I9
s(V\u1030
p1169
V\u101b
p1170
tp1171
I4
s(V\u103b
p1172
V\u102c
p1173
tp1174
I155
s(V\u1038
p1175
g107
tp1176
I1
s(V\u103c
p1177
V\u1031
p1178
tp1179
I120
s(V\u1037
p1180
V\u101f
p1181
tp1182
I3
s(V\u1019
p1183
V\u1032
p1184
tp1185
I31
s(V\u1001
p1186
V\u1014
p1187
tp1188
I5
s(V\u103a
p1189
V\u104f
p1190
tp1191
I1
s(V\u1019
p1192
V\u1021
p1193
tp1194
I3
s(V\u1037
p1195
V\u103a
p1196
tp1197
I21
s(V\u103a
p1198
V\u2019
p1199
tp1200
I1
s(V\u101e
p1201
V\u1004
p1202
tp1203
I8
s(g20
V\u1010
p1204
tp1205
I94
s(V\u1019
p1206
V\u1010
p1207
tp1208
I27
s(V\u1031
p1209
V\u1014
p1210
tp1211
I5
s(V\u1038
p1212
V\u1000
p1213
tp1214
I108
s(V\u1019
p1215
V\u1016
p1216
tp1217
I4
s(V\u102b
p1218
V\u101b
p1219
tp1220
I9
s(V\u101a
p1221
V\u103e
p1222
tp1223
I3
s(V\u1005
p1224
V\u1000
p1225
tp1226
I6
s(g249
g221
tp1227
I1
s(V\u1031
p1228
V\u1006
p1229
tp1230
I1
s(V\u1011
p1231
V\u102d
p1232
tp1233
I23
s(V\u101b
p1234
V\u1014
p1235
tp1236
I10
s(g392
g249
tp1237
I1
s(V\u1036
p1238
V\u1010
p1239
tp1240
I22
s(V\u1021
p1241
V\u102f
p1242
tp1243
I3
s(V\u103a
p1244
V\u1018
p1245
tp1246
I14
s(V\u101e
p1247
V\u1031
p1248
tp1249
I56
s(V\u1030
p1250
V\u1019
p1251
tp1252
I28
s(V\u1021
p1253
V\u1031
p1254
tp1255
I19
s(V\u1019
p1256
V\u101c
p1257
tp1258
I4
s(V\u1011
p1259
V\u102c
p1260
tp1261
I37
s(g299
g162
tp1262
I2
s(V\u102c
p1263
g20
tp1264
I159
s(V\u101b
p1265
V\u102f
p1266
tp1267
I6
s(V\u1018
p1268
V\u101a
p1269
tp1270
I7
s(V\u201c
p1271
V\u101b
p1272
tp1273
I2
s(V\u103d
p1274
V\u1036
p1275
tp1276
I3
s(V\u103c
p1277
V\u103e
p1278
tp1279
I3
s(V\u101d
p1280
V\u1048
p1281
tp1282
I3
s(g21
g249
tp1283
I1
s(V\u101a
p1284
V\u1030
p1285
tp1286
I12
s(g129
g107
tp1287
I2
s(V\u1037
p1288
V\u101c
p1289
tp1290
I21
s(V\u1010
p1291
V\u1031
p1292
tp1293
I63
s(V\u1032
p1294
g20
tp1295
I34
s(V\u1036
p1296
V\u1019
p1297
tp1298
I25
s(V\u1006
p1299
V\u103d
p1300
tp1301
I31
s(V\u102c
p1302
V\u1021
p1303
tp1304
I15
s(V\u101c
p1305
V\u103a
p1306
tp1307
I1
s(V\u1012
p1308
V\u103a
p1309
tp1310
I4
s(V\u103b
p1311
V\u101a
p1312
tp1313
I9
s(V\u1031
p1314
V\u104b
p1315
tp1316
I1
s(V\u101a
p1317
V\u1014
p1318
tp1319
I9
s(V\u103c
p1320
V\u103f
p1321
tp1322
I2
s(V\u1000
p1323
V\u1031
p1324
tp1325
I57
s(g20
V\u1018
p1326
tp1327
I13
s(V\u1030
p1328
g20
tp1329
I15
s(V\u102b
p1330
V\u1018
p1331
tp1332
I6
s(V\u103d
p1333
V\u1014
p1334
tp1335
I45
s(V\u201c
p1336
V\u1016
p1337
tp1338
I1
s(V\u100a
p1339
V\u1037
p1340
tp1341
I7
s(V\u1038
p1342
V\u1015
p1343
tp1344
I105
s(g233
g107
tp1345
I1
s(g269
g212
tp1346
I1
s(V\u102d
p1347
V\u103f
p1348
tp1349
I1
s(V\u101c
p1350
V\u103b
p1351
tp1352
I9
s(V\u101b
p1353
V\u102d
p1354
tp1355
I2
s(V\u1000
p1356
V\u1015
p1357
tp1358
I3
s(g128
g83
tp1359
I3
s(g1095
g250
tp1360
I2
s(g220
g233
tp1361
I1
s(V\u102d
p1362
V\u1000
p1363
tp1364
I10
s(V\u201c
p1365
g20
tp1366
I2
s(V\u1038
p1367
V\u1004
p1368
tp1369
I5
s(V\u104a
p1370
g71
tp1371
I1
s(g21
g107
tp1372
I3
s(V\u1015
p1373
V\u1001
p1374
tp1375
I3
s(V\u1015
p1376
V\u103c
p1377
tp1378
I193
s(V\u1040
p1379
V\u1044
p1380
tp1381
I1
s(g20
V\u1044
p1382
tp1383
I4
s(V\u104a
p1384
V\u1015
p1385
tp1386
I3
s(V\u1006
p1387
V\u101a
p1388
tp1389
I1
s(V\u1012
p1390
V\u1021
p1391
tp1392
I1
s(V\u1018
p1393
V\u103d
p1394
tp1395
I1
s(g83
g228
tp1396
I1
s(V\u1015
p1397
V\u102d
p1398
tp1399
I11
s(V\u103a
p1400
V\u1015
p1401
tp1402
I156
s(g20
g363
tp1403
I3
s(V\u101e
p1404
V\u102f
p1405
tp1406
I10
s(V\u1026
p1407
V\u1038
p1408
tp1409
I51
s(V\u1038
p1410
V\u101b
p1411
tp1412
I118
s(V\u1018
p1413
V\u102c
p1414
tp1415
I9
s(g636
g607
tp1416
I2
s(V\u103c
p1417
V\u102c
p1418
tp1419
I27
s(V\u1015
p1420
V\u1012
p1421
tp1422
I7
s(V\u1004
p1423
V\u103a
p1424
tp1425
I825
s(g20
g211
tp1426
I1
s(g84
g21
tp1427
I8
s(V\u103d
p1428
V\u1032
p1429
tp1430
I128
s(V\u102c
p1431
V\u100a
p1432
tp1433
I1
s(g211
g20
tp1434
I2
s(V\u103a
p1435
V\u1011
p1436
tp1437
I38
s(V\u1039
p1438
V\u1012
p1439
tp1440
I7
s(V\u101d
p1441
V\u102d
p1442
tp1443
I1
s(V\u102b
p1444
V\u201d
p1445
tp1446
I1
s(V\u1001
p1447
V\u101b
p1448
tp1449
I1
s(V\u1037
p1450
V\u1010
p1451
tp1452
I21
s(V\u1019
p1453
V\u103b
p1454
tp1455
I271
s(g20
V\u1005
p1456
tp1457
I41
s(V\u1037
p1458
V\u1001
p1459
tp1460
I19
s(V\u1036
p1461
V\u1015
p1462
tp1463
I4
s(V\u103c
p1464
V\u102d
p1465
tp1466
I70
s(V\u101e
p1467
V\u1036
p1468
tp1469
I8
s(V\u1015
p1470
V\u103b
p1471
tp1472
I2
s(V\u103b
p1473
V\u1018
p1474
tp1475
I1
s(V\u103a
p1476
V\u101e
p1477
tp1478
I63
s(V\u1025
p1479
V\u1015
p1480
tp1481
I10
s(V\u101c
p1482
V\u1004
p1483
tp1484
I8
s(V\u103a
p1485
V\u1017
p1486
tp1487
I1
s(V\u1019
p1488
V\u101f
p1489
tp1490
I9
s(g212
g68
tp1491
I4
s(V\u103d
p1492
V\u1010
p1493
tp1494
I4
s(V\u1047
p1495
g107
tp1496
I5
s(V\u1037
p1497
V\u1017
p1498
tp1499
I1
s(V\u1032
p1500
V\u1011
p1501
tp1502
I2
s(V\u103d
p1503
V\u102b
p1504
tp1505
I1
s(V\u1038
p1506
V\u1019
p1507
tp1508
I120
s(g220
g607
tp1509
I1
s(g91
g249
tp1510
I1
s(V\u1005
p1511
V\u102c
p1512
tp1513
I66
s(V\u103a
p1514
V\u104b
p1515
tp1516
I106
s(V\u103a
p1517
g20
tp1518
I244
s(V\u1030
p1519
V\u1037
p1520
tp1521
I2
s(g20
g71
tp1522
I28
s(V\u1037
p1523
V\u101d
p1524
tp1525
I5
s(V\u1015
p1526
V\u101b
p1527
tp1528
I2
s(V\u201c
p1529
V\u1005
p1530
tp1531
I1
s(V\u1038
p1532
V\u1011
p1533
tp1534
I19
s(g299
g228
tp1535
I1
s(V\u1006
p1536
V\u1036
p1537
tp1538
I1
s(V\u1019
p1539
V\u101e
p1540
tp1541
I3
s(V\u1044
p1542
V\u1048
p1543
tp1544
I1
s(V\u1031
p1545
V\u1007
p1546
tp1547
I1
s(V\u1005
p1548
V\u103d
p1549
tp1550
I12
s(g20
g83
tp1551
I2
s(V\u1036
p1552
V\u101e
p1553
tp1554
I6
s(V\u1000
p1555
V\u102c
p1556
tp1557
I10
s(V\u101b
p1558
V\u101c
p1559
tp1560
I5
s(V\u1015
p1561
V\u1039
p1562
tp1563
I1
s(g71
V\u101c
p1564
tp1565
I1
s(V\u1000
p1566
V\u101e
p1567
tp1568
I2
s(V\u103a
p1569
V\u1010
p1570
tp1571
I140
s(V\u1018
p1572
V\u101d
p1573
tp1574
I3
s(V\u1005
p1575
V\u1019
p1576
tp1577
I2
s(V\u1030
p1578
V\u1011
p1579
tp1580
I1
s(V\u1010
p1581
V\u103a
p1582
tp1583
I78
s(V\u102e
p1584
V\u101b
p1585
tp1586
I4
s(V\u1012
p1587
V\u1014
p1588
tp1589
I4
s(V\u1037
p1590
V\u1015
p1591
tp1592
I26
s(g20
V\u101a
p1593
tp1594
I13
s(V\u1038
p1595
V\u101f
p1596
tp1597
I9
s(V\u1018
p1598
V\u1030
p1599
tp1600
I8
s(V\u1004
p1601
V\u1031
p1602
tp1603
I1
s(V\u1012
p1604
V\u101e
p1605
tp1606
I1
s(V\u101e
p1607
V\u1005
p1608
tp1609
I1
s(V\u102c
p1610
V\u1018
p1611
tp1612
I3
s(V\u1005
p1613
V\u102e
p1614
tp1615
I26
s(V\u100b
p1616
V\u102d
p1617
tp1618
I3
s(V\u1010
p1619
V\u101e
p1620
tp1621
I1
s(V\u101b
p1622
V\u103e
p1623
tp1624
I96
s(V\u101b
p1625
V\u101f
p1626
tp1627
I2
s(V\u101d
p1628
V\u102e
p1629
tp1630
I3
s(V\u103c
p1631
V\u1036
p1632
tp1633
I6
s(V\u101e
p1634
V\u101b
p1635
tp1636
I1
s(V\u1019
p1637
V\u102d
p1638
tp1639
I40
s(V\u103b
p1640
V\u1006
p1641
tp1642
I1
s(g71
V\u1044
p1643
tp1644
I2
s(V\u1014
p1645
V\u102d
p1646
tp1647
I90
s(V\u1037
p1648
V\u104f
p1649
tp1650
I3
s(V\u103c
p1651
V\u101b
p1652
tp1653
I8
s(V\u1030
p1654
V\u1005
p1655
tp1656
I1
s(V\u1005
p1657
V\u100a
p1658
tp1659
I27
s(V\u1014
p1660
V\u1032
p1661
tp1662
I17
s(V\u1030
p1663
V\u1004
p1664
tp1665
I2
s(V\u101b
p1666
V\u101a
p1667
tp1668
I16
s(V\u1044
p1669
V\u1004
p1670
tp1671
I2
s(V\u102c
p1672
V\u1019
p1673
tp1674
I30
s(g415
g20
tp1675
I1
s(V\u1003
p1676
g107
tp1677
I1
s(g107
V\u000a
p1678
tp1679
I4
s(V\u1016
p1680
V\u103c
p1681
tp1682
I99
s(g223
g129
tp1683
I1
s(g20
V\u2013
p1684
tp1685
I2
s(V\u102c
p1686
V\u1014
p1687
tp1688
I19
s(V\u1005
p1689
V\u101b
p1690
tp1691
I7
s(V\u102e
p1692
V\u101c
p1693
tp1694
I10
s(V\u1019
p1695
V\u102c
p1696
tp1697
I22
s(V\u102b
p1698
V\u1000
p1699
tp1700
I25
s(V\u103d
p1701
V\u102c
p1702
tp1703
I31
s(V\u1010
p1704
V\u1010
p1705
tp1706
I2
s(V\u1032
p1707
V\u1015
p1708
tp1709
I8
s(V\u1038
p1710
V\u201d
p1711
tp1712
I7
s(V\u1043
p1713
g20
tp1714
I2
s(g1095
g83
tp1715
I1
s(V\u1036
p1716
V\u1011
p1717
tp1718
I3
s(V\u102e
p1719
V\u1038
p1720
tp1721
I154
s(V\u1016
p1722
V\u103d
p1723
tp1724
I52
s(V\u1010
p1725
V\u101c
p1726
tp1727
I2
s(V\u1031
p1728
V\u1000
p1729
tp1730
I37
s(V\u1038
p1731
V\u100c
p1732
tp1733
I1
s(V\u104a
p1734
g20
tp1735
I61
s(V\u102f
p1736
V\u1002
p1737
tp1738
I1
s(V\u1036
p1739
V\u101a
p1740
tp1741
I2
s(V\u1011
p1742
V\u1019
p1743
tp1744
I1
s(g20
V\u101f
p1745
tp1746
I6
s(V\u1015
p1747
V\u102e
p1748
tp1749
I15
s(g334
g21
tp1750
I1
s(V\u101d
p1751
V\u1004
p1752
tp1753
I63
s(V\u101f
p1754
g20
tp1755
I2
s(V\u1043
p1756
V\u1048
p1757
tp1758
I1
s(V\u102e
p1759
V\u1015
p1760
tp1761
I9
s(V\u103c
p1762
V\u1032
p1763
tp1764
I1
s(V\u103a
p1765
g431
tp1766
I1
s(g20
g128
tp1767
I2
s(V\u1001
p1768
V\u102d
p1769
tp1770
I26
s(V\u102d
p1771
V\u101e
p1772
tp1773
I14
s(V\u1049
p1774
V\u1049
p1775
tp1776
I1
s(V\u2018
p1777
V\u1014
p1778
tp1779
I1
s(g607
g68
tp1780
I4
s(V\u1004
p1781
V\u103d
p1782
tp1783
I6
s(V\u1039
p1784
V\u1001
p1785
tp1786
I9
s(V\u1045
p1787
V\u1040
p1788
tp1789
I1
s(Vp
p1790
g1790
tp1791
I2
s(g220
g68
tp1792
I2
s(V\u1014
p1793
V\u102f
p1794
tp1795
I2
s(V\u1011
p1796
V\u100a
p1797
tp1798
I7
s(V\u1038
p1799
V\u1012
p1800
tp1801
I5
s(V\u1017
p1802
V\u1019
p1803
tp1804
I6
s(V\u102c
p1805
V\u1002
p1806
tp1807
I1
s(V\u1019
p1808
V\u103d
p1809
tp1810
I25
s(g21
g128
tp1811
I1
s(V\u1001
p1812
V\u102c
p1813
tp1814
I1
s(g71
V\u1048
p1815
tp1816
I1
s(g269
g107
tp1817
I1
s(g20
V\u1045
p1818
tp1819
I3
s(V\u101c
p1820
g20
tp1821
I1
s(V\u103e
p1822
V\u102c
p1823
tp1824
I75
s(g20
V\u101d
p1825
tp1826
I13
s(V\u1041
p1827
g908
tp1828
I1
s(V\u100d
p1829
g20
tp1830
I1
s(V\u102d
p1831
V\u1037
p1832
tp1833
I1
s(V\u102b
p1834
V\u101e
p1835
tp1836
I9
s(V\u103a
p1837
V\u1016
p1838
tp1839
I24
s(V\u1041
p1840
g107
tp1841
I6
s(V\u201c
p1842
V\u101c
p1843
tp1844
I2
s(V\u103a
p1845
g676
tp1846
I1
s(V\u1015
p1847
V\u100b
p1848
tp1849
I3
s(V\u1006
p1850
V\u102d
p1851
tp1852
I83
s(V\u1036
p1853
V\u2019
p1854
tp1855
I1
s(V\u1000
p1856
V\u101a
p1857
tp1858
I2
s(g363
g211
tp1859
I1
s(V\u201c
p1860
V\u1021
p1861
tp1862
I5
s(g20
V\u1042
p1863
tp1864
I12
s(V\u1032
p1865
V\u1019
p1866
tp1867
I24
s(V\u101e
p1868
V\u101a
p1869
tp1870
I1
s(V\u1038
p1871
V\u1021
p1872
tp1873
I71
s(V\u1014
p1874
V\u103e
p1875
tp1876
I67
s(V\u103e
p1877
V\u1019
p1878
tp1879
I7
s(V\u103a
p1880
V\u104a
p1881
tp1882
I15
s(V\u1045
p1883
V\u1042
p1884
tp1885
I2
s(g212
g607
tp1886
I4
s(V\u1030
p1887
V\u101a
p1888
tp1889
I1
s(V\u103b
p1890
V\u102d
p1891
tp1892
I137
s(V\u1002
p1893
V\u1039
p1894
tp1895
I1
s(V\u1041
p1896
g20
tp1897
I5
s(V\u201c
p1898
V\u101d
p1899
tp1900
I1
s(V\u1031
p1901
V\u1004
p1902
tp1903
I1
s(V\u1038
p1904
V\u1010
p1905
tp1906
I88
s(V\u100a
p1907
V\u103d
p1908
tp1909
I5
s(V\u1012
p1910
V\u101b
p1911
tp1912
I16
s(V\u1000
p1913
V\u102f
p1914
tp1915
I1
s(V\u1036
p1916
V\u1016
p1917
tp1918
I1
s(g91
g107
tp1919
I1
s(V\u1011
p1920
V\u101d
p1921
tp1922
I3
s(V\u101a
p1923
V\u1009
p1924
tp1925
I1
s(V\u1040
p1926
g107
tp1927
I4
s(V\u1031
p1928
V\u1021
p1929
tp1930
I16
s(V\u101d
p1931
V\u1000
p1932
tp1933
I1
s(V\u103a
p1934
g71
tp1935
I11
s(g269
g299
tp1936
I3
s(g84
g395
tp1937
I1
s(V\u102f
p1938
V\u1011
p1939
tp1940
I2
s(V\u1006
p1941
V\u102f
p1942
tp1943
I22
s(V\u1010
p1944
V\u1032
p1945
tp1946
I39
s(V\u103b
p1947
V\u101d
p1948
tp1949
I1
s(V\u102d
p1950
V\u101a
p1951
tp1952
I1
s(V\u101d
p1953
V\u1031
p1954
tp1955
I6
s(V\u1014
p1956
V\u1000
p1957
tp1958
I16
s(V\u102f
p1959
V\u1038
p1960
tp1961
I159
s(V\u102b
p1962
V\u1014
p1963
tp1964
I5
s(V\u101a
p1965
V\u102c
p1966
tp1967
I5
s(g299
g21
tp1968
I1
s(V\u1012
p1969
V\u102e
p1970
tp1971
I35
s(V\u1039
p1972
V\u100c
p1973
tp1974
I2
s(V\u1030
p1975
V\u1018
p1976
tp1977
I1
s(V\u104b
p1978
g20
tp1979
I49
s(V\u1010
p1980
V\u1016
p1981
tp1982
I1
s(V\u1032
p1983
V\u101e
p1984
tp1985
I4
s(V\u1001
p1986
g20
tp1987
I1
s(V\u1036
p1988
V\u101f
p1989
tp1990
I1
s(V\u101a
p1991
V\u1000
p1992
tp1993
I2
s(V\u1000
p1994
V\u102d
p1995
tp1996
I120
s(V\u1014
p1997
V\u103a
p1998
tp1999
I156
s(V\u1001
p2000
V\u1032
p2001
tp2002
I36
s(g212
g740
tp2003
I1
s(V\u102c
p2004
V\u1011
p2005
tp2006
I5
s(V\u101c
p2007
V\u100a
p2008
tp2009
I45
s(V\u102e
p2010
V\u100a
p2011
tp2012
I1
s(V\u1019
p2013
V\u1019
p2014
tp2015
I2
s(V\u1010
p2016
V\u1015
p2017
tp2018
I11
s(V\u101c
p2019
V\u102f
p2020
tp2021
I43
s(V\u1000
p2022
V\u1001
p2023
tp2024
I3
s(g241
g363
tp2025
I1
s(V\u1010
p2026
V\u1030
p2027
tp2028
I14
s(V\u1010
p2029
V\u1005
p2030
tp2031
I12
s(V\u1038
p2032
V\u104c
p2033
tp2034
I1
s(V\u102b
p2035
V\u1037
p2036
tp2037
I4
s(V\u1032
p2038
V\u201d
p2039
tp2040
I2
s(V\u1048
p2041
g20
tp2042
I7
s(V\u1038
p2043
V\u1025
p2044
tp2045
I2
s(V\u101b
p2046
V\u103d
p2047
tp2048
I52
s(g20
g84
tp2049
I8
s(V\u1010
p2050
V\u1014
p2051
tp2052
I8
s(V\u1038
p2053
V\u1017
p2054
tp2055
I1
s(V\u1031
p2056
V\u1038
p2057
tp2058
I282
s(V\u1038
p2059
V\u1014
p2060
tp2061
I85
s(g84
g83
tp2062
I1
s(V\u103a
p2063
V\u1001
p2064
tp2065
I64
s(V\u101b
p2066
V\u1019
p2067
tp2068
I15
s(g20
V\u1017
p2069
tp2070
I4
s(V\u101c
p2071
V\u1010
p2072
tp2073
I2
s(V\u1012
p2074
V\u1031
p2075
tp2076
I31
s(g83
g107
tp2077
I1
s(V\u1044
p2078
V\u1045
p2079
tp2080
I2
s(V\u1043
p2081
V\u1040
p2082
tp2083
I9
s(V\u103c
p2084
V\u1000
p2085
tp2086
I1
s(V\u1037
p2087
g71
tp2088
I2
s(V\u1015
p2089
V\u103d
p2090
tp2091
I67
s(V\u103a
p2092
V\u1025
p2093
tp2094
I1
s(V\u1021
p2095
V\u101e
p2096
tp2097
I14
s(g20
V\u1006
p2098
tp2099
I54
s(g20
g228
tp2100
I2
s(V\u102d
p2101
V\u1016
p2102
tp2103
I1
s(V\u102c
p2104
V\u101e
p2105
tp2106
I11
s(g233
g20
tp2107
I6
s(V\u2019
p2108
g233
tp2109
I4
s(V\u1031
p2110
V\u1012
p2111
tp2112
I2
s(V\u100a
p2113
V\u1038
p2114
tp2115
I1
s(V\u1045
p2116
V\u1048
p2117
tp2118
I1
s(V\u100c
p2119
V\u1019
p2120
tp2121
I2
s(V\u1005
p2122
V\u1015
p2123
tp2124
I2
s(g107
g20
tp2125
I30
s(V\u1015
p2126
V\u1010
p2127
tp2128
I4
s(g221
g740
tp2129
I1
s(V\u103c
p2130
V\u1001
p2131
tp2132
I2
s(V\u100d
p2133
V\u1019
p2134
tp2135
I1
s(Vm
p2136
g607
tp2137
I2
s(V\u102b
p2138
V\u103a
p2139
tp2140
I9
s(V\u103a
p2141
V\u100a
p2142
tp2143
I1
s(V\u1036
p2144
V\u101b
p2145
tp2146
I22
s(V\u1037
p2147
V\u104a
p2148
tp2149
I4
s(g20
V\u1015
p2150
tp2151
I142
s(V\u103c
p2152
V\u103d
p2153
tp2154
I3
s(V\u102d
p2155
V\u102f
p2156
tp2157
I727
s(V\u102b
p2158
V\u104b
p2159
tp2160
I5
s(V\u102b
p2161
V\u1006
p2162
tp2163
I1
s(g1790
g20
tp2164
I2
s(V\u101e
p2165
V\u1010
p2166
tp2167
I10
s(V\u103b
p2168
V\u1009
p2169
tp2170
I1
s(g162
g117
tp2171
I2
s(g84
g415
tp2172
I1
s(V\u1036
p2173
g20
tp2174
I13
s(V\u1019
p2175
V\u100a
p2176
tp2177
I17
s(V\u100c
p2178
V\u102c
p2179
tp2180
I4
s(V\u100a
p2181
V\u102c
p2182
tp2183
I5
s(V\u1021
p2184
V\u1001
p2185
tp2186
I44
s(V\u101b
p2187
V\u1000
p2188
tp2189
I9
s(g71
V\u1042
p2190
tp2191
I6
s(V\u201c
p2192
V\u1015
p2193
tp2194
I1
s(V\u1038
p2195
V\u1018
p2196
tp2197
I7
s(g20
V\u1046
p2198
tp2199
I3
s(V\u1000
p2200
V\u101d
p2201
tp2202
I1
s(V\u103e
p2203
V\u102d
p2204
tp2205
I86
s(V\u1031
p2206
V\u1037
p2207
tp2208
I23
s(V\u1005
p2209
V\u102d
p2210
tp2211
I27
s(V\u101d
p2212
V\u101b
p2213
tp2214
I1
s(g676
g20
tp2215
I1
s(V\u1011
p2216
V\u1015
p2217
tp2218
I4
s(V\u1010
p2219
V\u101b
p2220
tp2221
I4
s(V\u1000
p2222
V\u103c
p2223
tp2224
I164
s(V\u101f
p2225
V\u102c
p2226
tp2227
I19
s(V\u1021
p2228
V\u1000
p2229
tp2230
I34
s(g256
g20
tp2231
I4
s(V\u1005
p2232
V\u1032
p2233
tp2234
I3
s(V\u1005
p2235
V\u1009
p2236
tp2237
I15
s(V\u1000
p2238
V\u101b
p2239
tp2240
I13
s(V\u1030
p2241
V\u1001
p2242
tp2243
I2
s(V\u1030
p2244
V\u104a
p2245
tp2246
I2
s(V\u1000
p2247
V\u1010
p2248
tp2249
I7
s(g220
g212
tp2250
I4
s(g431
g269
tp2251
I1
s(V\u1011
p2252
V\u1014
p2253
tp2254
I1
s(V\u1018
p2255
V\u1000
p2256
tp2257
I3
s(V\u1046
p2258
g20
tp2259
I7
s(V\u1005
p2260
V\u101e
p2261
tp2262
I3
s(V\u1030
p2263
V\u1010
p2264
tp2265
I13
s(g221
g68
tp2266
I1
s(V\u101d
p2267
V\u103e
p2268
tp2269
I1
s(g228
g21
tp2270
I1
s(g107
V\u1016
p2271
tp2272
I1
s(V\u1016
p2273
V\u1010
p2274
tp2275
I2
s(V\u102f
p2276
V\u1005
p2277
tp2278
I5
s(V\u1014
p2279
V\u103d
p2280
tp2281
I31
s(V\u1017
p2282
V\u103b
p2283
tp2284
I1
s(V\u1005
p2285
V\u102f
p2286
tp2287
I49
s(V\u102e
p2288
V\u1000
p2289
tp2290
I7
s(V\u1010
p2291
V\u1019
p2292
tp2293
I6
s(V\u102f
p2294
V\u101b
p2295
tp2296
I14
s(g395
V\u1021
p2297
tp2298
I1
s(g71
V\u1017
p2299
tp2300
I1
s(V\u102e
p2301
V\u1012
p2302
tp2303
I5
s(g363
g107
tp2304
I1
s(g607
g20
tp2305
I3
s(g469
g607
tp2306
I1
s(V\u101c
p2307
V\u1036
p2308
tp2309
I3
s(g117
g220
tp2310
I2
s(V\u1041
p2311
V\u1040
p2312
tp2313
I3
s(V\u1000
p2314
V\u1019
p2315
tp2316
I1
s(V\u1015
p2317
V\u1015
p2318
tp2319
I1
s(V\u1019
p2320
V\u103c
p2321
tp2322
I49
s(g129
g241
tp2323
I1
s(V\u100a
p2324
V\u103e
p2325
tp2326
I8
s(V\u1032
p2327
V\u104c
p2328
tp2329
I3
s(V\u102f
p2330
V\u104d
p2331
tp2332
I1
s(V\u1037
p2333
V\u1006
p2334
tp2335
I4
s(V\u101b
p2336
V\u1005
p2337
tp2338
I1
s(V\u1007
p2339
V\u102c
p2340
tp2341
I2
s(V\u1021
p2342
V\u1005
p2343
tp2344
I30
s(V\u104a
p2345
V\u1019
p2346
tp2347
I1
s(V\u1041
p2348
V\u1049
p2349
tp2350
I2
s(V\u1037
p2351
V\u1021
p2352
tp2353
I28
s(V\u103f
p2354
V\u102c
p2355
tp2356
I1
s(V\u1038
p2357
V\u101c
p2358
tp2359
I68
s(V\u1031
p2360
V\u102b
p2361
tp2362
I37
s(V\u1015
p2363
V\u1019
p2364
tp2365
I3
s(V\u103a
p2366
V\u1019
p2367
tp2368
I142
s(V\u1042
p2369
V\u1040
p2370
tp2371
I10
s(V\u102c
p2372
V\u103a
p2373
tp2374
I77
s(V\u101d
p2375
V\u1014
p2376
tp2377
I7
s(V\u1032
p2378
V\u1016
p2379
tp2380
I3
s(V\u104b
p2381
V\u1021
p2382
tp2383
I2
s(V\u1021
p2384
V\u1004
p2385
tp2386
I4
s(V\u1001
p2387
V\u102b
p2388
tp2389
I5
s(V\u1037
p2390
g20
tp2391
I224
s(V\u103e
p2392
V\u1014
p2393
tp2394
I5
s(g20
g269
tp2395
I4
s(g20
V\u101e
p2396
tp2397
I65
s(V\u1036
p2398
V\u1025
p2399
tp2400
I2
s(V\u102c
p2401
V\u1016
p2402
tp2403
I15
s(V\u102f
p2404
V\u1014
p2405
tp2406
I29
s(V\u103d
p2407
V\u1031
p2408
tp2409
I208
s(V\u1042
p2410
V\u1041
p2411
tp2412
I4
s(g395
V\u2019
p2413
tp2414
I2
s(V\u103e
p2415
V\u1030
p2416
tp2417
I3
s(V\u101a
p2418
V\u1031
p2419
tp2420
I1
s(V\u1019
p2421
V\u102f
p2422
tp2423
I1
s(V\u103b
p2424
V\u1004
p2425
tp2426
I26
s(V\u103c
p2427
V\u1019
p2428
tp2429
I3
s(V\u1032
p2430
V\u1021
p2431
tp2432
I3
s(g221
g607
tp2433
I1
s(V\u101d
p2434
g107
tp2435
I1
s(V\u1001
p2436
V\u103c
p2437
tp2438
I51
s(V\u103a
p2439
V\u1002
p2440
tp2441
I9
s(V\u1014
p2442
V\u1039
p2443
tp2444
I7
s(V\u100a
p2445
V\u1031
p2446
tp2447
I2
s(V\u101c
p2448
V\u1030
p2449
tp2450
I26
s(V\u103a
p2451
V\u101b
p2452
tp2453
I106
s(V\u101e
p2454
V\u103c
p2455
tp2456
I2
s(V\u1001
p2457
g107
tp2458
I1
s(V\u102f
p2459
V\u101f
p2460
tp2461
I1
s(g21
g363
tp2462
I1
s(V\u101e
p2463
V\u102e
p2464
tp2465
I14
s(V\u1019
p2466
V\u102e
p2467
tp2468
I71
s(Vb
p2469
g221
tp2470
I1
s(V\u103a
p2471
V\u1026
p2472
tp2473
I12
s(g20
V\u104e
p2474
tp2475
I3
s(V\u104b
p2476
V\u101e
p2477
tp2478
I1
s(V\u101e
p2479
V\u1018
p2480
tp2481
I15
s(g20
V\u201c
p2482
tp2483
I17
s(V\u101b
p2484
V\u102c
p2485
tp2486
I56
s(V\u1031
p2487
V\u1019
p2488
tp2489
I18
s(V\u101c
p2490
V\u1031
p2491
tp2492
I35
s(V\u1036
p2493
V\u1038
p2494
tp2495
I48
s(V\u1044
p2496
V\u1040
p2497
tp2498
I1
s(V\u101e
p2499
V\u100a
p2500
tp2501
I105
s(V\u103e
p2502
V\u1009
p2503
tp2504
I3
s(V\u101a
p2505
V\u103a
p2506
tp2507
I222
s(g908
g107
tp2508
I3
s(V\u1037
p2509
V\u101a
p2510
tp2511
I1
s(V\u1021
p2512
V\u1019
p2513
tp2514
I120
s(V\u103b
p2515
V\u103d
p2516
tp2517
I8
s(g676
V\u1019
p2518
tp2519
I2
s(V\u102f
p2520
V\u1000
p2521
tp2522
I68
s(V\u1030
p2523
V\u101e
p2524
tp2525
I4
s(V\u1038
p2526
g20
tp2527
I283
s(V\u103a
p2528
V\u1004
p2529
tp2530
I33
s(V\u104a
p2531
V\u1010
p2532
tp2533
I1
s(V\u1012
p2534
V\u102b
p2535
tp2536
I16
s(V\u104e
p2537
V\u1004
p2538
tp2539
I3
s(V\u102f
p2540
V\u1016
p2541
tp2542
I1
s(V\u103c
p2543
V\u1006
p2544
tp2545
I2
s(V\u101d
p2546
V\u1010
p2547
tp2548
I1
s(V\u1047
p2549
V\u1049
p2550
tp2551
I1
s(g1095
g84
tp2552
I1
s(V\u102d
p2553
V\u1021
p2554
tp2555
I3
s(V\u1001
p2556
V\u102f
p2557
tp2558
I20
s(V\u2018
p2559
V\u1019
p2560
tp2561
I1
s(V\u103a
p2562
V\u1038
p2563
tp2564
I470
s(V\u102e
p2565
V\u1014
p2566
tp2567
I4
s(V\u1005
p2568
V\u103a
p2569
tp2570
I128
s(g71
V\u1049
p2571
tp2572
I1
s(V\u100b
p2573
V\u1039
p2574
tp2575
I2
s(V\u101c
p2576
V\u1005
p2577
tp2578
I1
s(V\u1001
p2579
V\u1031
p2580
tp2581
I2
s(V\u1036
p2582
V\u1021
p2583
tp2584
I3
s(V\u1021
p2585
V\u1016
p2586
tp2587
I36
s(V\u102d
p2588
V\u000a
p2589
tp2590
I1
s(V\u1014
p2591
V\u1010
p2592
tp2593
I1
s(V\u1038
p2594
V\u1002
p2595
tp2596
I2
s(V\u1032
p2597
V\u101b
p2598
tp2599
I12
s(V\u2013
p2600
g20
tp2601
I2
s(V\u1049
p2602
V\u1045
p2603
tp2604
I3
s(V\u103c
p2605
V\u1007
p2606
tp2607
I2
s(V\u102c
p2608
V\u1000
p2609
tp2610
I102
s(V\u1010
p2611
V\u103d
p2612
tp2613
I167
s(V\u1010
p2614
V\u1006
p2615
tp2616
I2
s(V\u101b
p2617
V\u1016
p2618
tp2619
I1
s(V\u1007
p2620
V\u201d
p2621
tp2622
I1
s(V\u102c
p2623
V\u1025
p2624
tp2625
I1
s(V\u101c
p2626
V\u103e
p2627
tp2628
I31
s(V\u1019
p2629
V\u1005
p2630
tp2631
I2
s(g1095
g129
tp2632
I1
s(V\u1000
p2633
V\u103d
p2634
tp2635
I8
s(V\u2019
p2636
g20
tp2637
I4
s(g870
g415
tp2638
I1
s(V\u102b
p2639
V\u101c
p2640
tp2641
I3
s(V\u1032
p2642
V\u1000
p2643
tp2644
I11
s(V\u102c
p2645
V\u1001
p2646
tp2647
I34
s(V\u1048
p2648
V\u1040
p2649
tp2650
I1
s(g363
g21
tp2651
I1
s(V\u1038
p2652
V\u104a
p2653
tp2654
I29
s(V\u1014
p2655
V\u1031
p2656
tp2657
I89
s(V\u103a
p2658
V\u104c
p2659
tp2660
I1
s(V\u102c
p2661
V\u1010
p2662
tp2663
I21
s(V\u1015
p2664
V\u1014
p2665
tp2666
I3
s(V\u101b
p2667
V\u1021
p2668
tp2669
I2
s(V\u101b
p2670
V\u1001
p2671
tp2672
I6
s(V\u103d
p2673
V\u1019
p2674
tp2675
I1
s(V\u1019
p2676
V\u1004
p2677
tp2678
I4
s(V\u104a
p2679
V\u1001
p2680
tp2681
I1
s(V\u1031
p2682
V\u201d
p2683
tp2684
I1
s(g212
g635
tp2685
I2
s(V\u1021
p2686
V\u100b
p2687
tp2688
I1
s(V\u1042
p2689
V\u1047
p2690
tp2691
I2
s(V\u1002
p2692
V\u103b
p2693
tp2694
I11
s(V\u1015
p2695
V\u1005
p2696
tp2697
I4
s(V\u1037
p2698
V\u101e
p2699
tp2700
I23
s(V\u1044
p2701
g107
tp2702
I2
s(V\u1021
p2703
V\u101d
p2704
tp2705
I5
s(V\u1010
p2706
V\u1004
p2707
tp2708
I23
s(g83
g83
tp2709
I2
s(V\u1006
p2710
V\u100b
p2711
tp2712
I1
s(V\u102f
p2713
V\u1004
p2714
tp2715
I208
s(V\u103e
p2716
V\u100a
p2717
tp2718
I5
s(g607
g233
tp2719
I2
s(g21
g21
tp2720
I2
s(V\u102e
p2721
V\u1001
p2722
tp2723
I6
s(V\u1012
p2724
V\u102f
p2725
tp2726
I4
s(V\u1015
p2727
V\u1021
p2728
tp2729
I1
s(V\u102f
p2730
V\u101a
p2731
tp2732
I29
s(g20
V\u1049
p2733
tp2734
I3
s(V\u1038
p2735
V\u100a
p2736
tp2737
I2
s(V\u103d
p2738
V\u101a
p2739
tp2740
I7
s(V\u1021
p2741
V\u101c
p2742
tp2743
I13
s(V\u2018
p2744
V\u101d
p2745
tp2746
I2
s(V\u103c
p2747
V\u1010
p2748
tp2749
I10
s(g107
V\u104c
p2750
tp2751
I2
s(V\u1045
p2752
V\u1047
p2753
tp2754
I3
s(g607
g220
tp2755
I6
s(g20
V\u1016
p2756
tp2757
I52
s(V\u101e
p2758
V\u100f
p2759
tp2760
I1
s(V\u1014
p2761
V\u101c
p2762
tp2763
I1
s(V\u100f
p2764
V\u102c
p2765
tp2766
I3
s(V\u1038
p2767
V\u1006
p2768
tp2769
I47
s(V\u1011
p2770
V\u1000
p2771
tp2772
I6
s(g21
g83
tp2773
I7
s(V\u1039
p2774
V\u1019
p2775
tp2776
I2
s(V\u101c
p2777
V\u102c
p2778
tp2779
I55
s(V\u1015
p2780
V\u1032
p2781
tp2782
I4
s(V\u1004
p2783
V\u101a
p2784
tp2785
I5
s(g107
V\u1010
p2786
tp2787
I7
s(V\u101b
p2788
V\u100a
p2789
tp2790
I5
s(g20
V\u1001
p2791
tp2792
I40
s(V\u1032
p2793
V\u104a
p2794
tp2795
I6
s(V\u103c
p2796
V\u1011
p2797
tp2798
I4
s(g83
g20
tp2799
I10
s(V\u1006
p2800
V\u1014
p2801
tp2802
I12
s(g21
g211
tp2803
I1
s(V\u103a
p2804
V\u101a
p2805
tp2806
I11
s(V\u102c
p2807
V\u100f
p2808
tp2809
I3
s(V\u103a
p2810
V\u1013
p2811
tp2812
I3
s(V\u1019
p2813
V\u101b
p2814
tp2815
I21
s(g20
V\u1025
p2816
tp2817
I3
s(V\u101c
p2818
V\u102d
p2819
tp2820
I69
s(g107
V\u1019
p2821
tp2822
I4
s(g68
g107
tp2823
I4
s(V\u1018
p2824
V\u102e
p2825
tp2826
I2
s(g107
V\u104a
p2827
tp2828
I2
s(g84
g129
tp2829
I2
s(V\u1005
p2830
g20
tp2831
I1
s(g233
g68
tp2832
I1
s(V\u103a
p2833
V\u1037
p2834
tp2835
I154
s(V\u101e
p2836
V\u1000
p2837
tp2838
I15
s(V\u1006
p2839
V\u1015
p2840
tp2841
I1
s(g20
V\u1014
p2842
tp2843
I71
s(V\u1031
p2844
V\u1011
p2845
tp2846
I13
s(V\u201d
p2847
V\u101f
p2848
tp2849
I8
s(V\u1042
p2850
g20
tp2851
I6
s(g250
g1790
tp2852
I4
s(V\u1019
p2853
V\u101a
p2854
tp2855
I16
s(V\u101b
p2856
V\u101b
p2857
tp2858
I23
s(V\u103e
p2859
V\u1031
p2860
tp2861
I12
s(V\u100f
p2862
V\u1039
p2863
tp2864
I4
s(V\u1005
p2865
V\u1031
p2866
tp2867
I13
s(V\u1037
p2868
V\u1012
p2869
tp2870
I1
s(g249
g2136
tp2871
I3
s(V\u1021
p2872
V\u1011
p2873
tp2874
I19
s(V\u102e
p2875
V\u104a
p2876
tp2877
I2
s(V\u101b
p2878
V\u1010
p2879
tp2880
I5
s(V\u1041
p2881
V\u1045
p2882
tp2883
I9
s(V\u1031
p2884
V\u102c
p2885
tp2886
I433
s(V\u1038
p2887
g71
tp2888
I3
s(g2136
g2469
tp2889
I1
s(V\u103a
p2890
V\u101c
p2891
tp2892
I95
s(V\u101e
p2893
V\u103d
p2894
tp2895
I22
s(V\u104c
p2896
g20
tp2897
I6
s(V\u102f
p2898
V\u101e
p2899
tp2900
I29
s(g269
g228
tp2901
I1
s(V\u104b
p2902
V\u1010
p2903
tp2904
I1
s(V\u1030
p2905
V\u1026
p2906
tp2907
I4
s(V\u102b
p2908
V\u1021
p2909
tp2910
I3
s(V\u103c
p2911
V\u101e
p2912
tp2913
I13
s(V\u102d
p2914
V\u1019
p2915
tp2916
I52
s(V\u1021
p2917
V\u1010
p2918
tp2919
I29
s(V\u1014
p2920
V\u1005
p2921
tp2922
I4
s(V\u1049
p2923
g107
tp2924
I1
s(V\u101e
p2925
V\u1019
p2926
tp2927
I74
s(V\u102c
p2928
V\u101c
p2929
tp2930
I20
s(V\u1014
p2931
V\u100a
p2932
tp2933
I17
s(V\u1039
p2934
V\u1000
p2935
tp2936
I1
s(V\u1041
p2937
V\u1041
p2938
tp2939
I3
s(V\u1010
p2940
V\u101a
p2941
tp2942
I70
s(V\u101b
p2943
V\u1032
p2944
tp2945
I20
s(V\u102d
p2946
V\u1002
p2947
tp2948
I1
s(V\u101d
p2949
V\u2019
p2950
tp2951
I2
s(g233
g162
tp2952
I1
s(V\u1038
p2953
V\u000a
p2954
tp2955
I2
s(V\u1011
p2956
V\u1004
p2957
tp2958
I2
s(V\u1010
p2959
V\u101d
p2960
tp2961
I1
s(V\u1006
p2962
V\u1000
p2963
tp2964
I3
s(V\u1047
p2965
V\u1040
p2966
tp2967
I8
s(V\u101f
p2968
V\u102f
p2969
tp2970
I25
s(V\u1030
p2971
V\u1000
p2972
tp2973
I5
s(V\u102b
p2974
V\u1038
p2975
tp2976
I13
s(V\u1015
p2977
V\u102f
p2978
tp2979
I21
s(V\u101b
p2980
V\u101e
p2981
tp2982
I12
s(V\u102c
p2983
V\u101d
p2984
tp2985
I6
s(g228
g1095
tp2986
I1
s(V\u102e
p2987
V\u1006
p2988
tp2989
I1
s(g71
V\u101e
p2990
tp2991
I1
s(g71
g1095
tp2992
I2
s(V\u102f
p2993
V\u1015
p2994
tp2995
I53
s(g269
g84
tp2996
I2
s(g1790
g249
tp2997
I2
s(V\u1005
p2998
V\u101f
p2999
tp3000
I2
s(V\u102e
p3001
V\u1010
p3002
tp3003
I3
ssS'font'
p3004
S'unicode'
p3005
sS'totalNGram'
p3006
I23451
sb.