ccopy_reg
_reconstructor
p0
(c__main__
ngramModel
p1
c__builtin__
object
p2
Ntp3
Rp4
(dp5
S'lang'
p6
S'shan'
p7
sS'logSum'
p8
F1472.7391581004179
sS'linesAdded'
p9
I112
sS'numSamples'
p10
I19411
sS'ngramLength'
p11
I2
sS'modelFileName'
p12
S'models/shanUnicode_2_model.save'
p13
sS'detectorType'
p14
S'NGRAM'
p15
sS'fileName'
p16
S'testdata/shanUnicode.txt'
p17
sS'model'
p18
(dp19
(V 
p20
VC
p21
tp22
I3
s(VS
p23
VW
p24
tp25
I11
s(V-
p26
g20
tp27
I21
s(V\u102e
p28
V\u1022
p29
tp30
I1
s(V\u1011
p31
V\u1083
p32
tp33
I1
s(V\u1031
p34
V\u101a
p35
tp36
I2
s(V\u1031
p37
V\u1015
p38
tp39
I3
s(V(
p40
V\u1076
p41
tp42
I1
s(g40
V8
p43
tp44
I1
s(g40
VF
p45
tp46
I1
s(g20
V\u107d
p47
tp48
I25
s(VA
p49
VN
p50
tp51
I11
s(g20
V\u101b
p52
tp53
I1
s(V\u108a
p54
V\u101e
p55
tp56
I7
s(V\u1088
p57
V\u104b
p58
tp59
I9
s(V\u1081
p60
V\u102d
p61
tp62
I14
s(V\u1031
p63
g20
tp64
I29
s(V\u107c
p65
V\u102d
p66
tp67
I26
s(V\u1078
p68
V\u102e
p69
tp70
I4
s(V\u102f
p71
V\u1022
p72
tp73
I1
s(V\u102e
p74
V\u1089
p75
tp76
I1
s(V\u1088
p77
V\u1019
p78
tp79
I50
s(g20
V\u000a
p80
tp81
I1
s(V\u1038
p82
V\u1019
p83
tp84
I91
s(V\u101c
p85
V\u1086
p86
tp87
I70
s(V\u104b
p88
V\u000a
p89
tp90
I45
s(V\u1087
p91
V)
p92
tp93
I3
s(V\u1076
p94
V\u1084
p95
tp96
I5
s(V\u1084
p97
V\u1010
p98
tp99
I3
s(V\u1078
p100
V\u1019
p101
tp102
I4
s(V\u1035
p103
V\u1075
p104
tp105
I5
s(V\u101a
p106
V\u102d
p107
tp108
I63
s(V\u1088
p109
V\u1076
p110
tp111
I38
s(V\u102d
p112
V\u1075
p113
tp114
I9
s(V\u1078
p115
V\u102f
p116
tp117
I73
s(V\u1086
p118
V\u101e
p119
tp120
I10
s(g20
V\u201c
p121
tp122
I3
s(V1
p123
g123
tp124
I1
s(V\u1004
p125
V\u101d
p126
tp127
I6
s(V\u1089
p128
g26
tp129
I4
s(V\u1015
p130
V\u103a
p131
tp132
I102
s(g20
VT
p133
tp134
I1
s(g20
V\u1019
p135
tp136
I69
s(V\u108a
p137
V\u1010
p138
tp139
I4
s(V2
p140
g123
tp141
I16
s(V\u1081
p142
V\u102f
p143
tp144
I1
s(g40
g24
tp145
I1
s(V\u102f
p146
V\u1019
p147
tp148
I140
s(V\u1089
p149
V\u101e
p150
tp151
I13
s(V\u103a
p152
V\u1087
p153
tp154
I332
s(V\u1089
p155
g92
tp156
I1
s(V\u103b
p157
V\u1030
p158
tp159
I1
s(g23
g23
tp160
I4
s(V4
p161
V0
p162
tp163
I1
s(V\u101e
p164
V\u107d
p165
tp166
I6
s(V\u1022
p167
V\u1019
p168
tp169
I53
s(V\u1089
p170
V\u1022
p171
tp172
I8
s(g50
VL
p173
tp174
I6
s(V\u101a
p175
V\u102f
p176
tp177
I5
s(V\u1035
p178
V\u1019
p179
tp180
I15
s(V\u1087
p181
V\u104a
p182
tp183
I7
s(Vn
p184
Va
p185
tp186
I1
s(VP
p187
g20
tp188
I1
s(V\u1087
p189
V\u1075
p190
tp191
I41
s(V\u1019
p192
V\u1062
p193
tp194
I35
s(V\u1075
p195
V\u102e
p196
tp197
I2
s(V\u1089
p198
V\u107c
p199
tp200
I32
s(V\u102e
p201
V\u1088
p202
tp203
I57
s(Vo
p204
Vu
p205
tp206
I1
s(V\u1010
p207
V\u102f
p208
tp209
I13
s(V\u1083
p210
V\u1004
p211
tp212
I1
s(V\u102f
p213
V\u1010
p214
tp215
I26
s(V\u1022
p216
V\u102d
p217
tp218
I9
s(V\u1087
p219
V\u101c
p220
tp221
I59
s(V\u1076
p222
V\u1082
p223
tp224
I5
s(V3
p225
g123
tp226
I4
s(V\u1019
p227
V\u1084
p228
tp229
I3
s(V\u1030
p230
V\u1015
p231
tp232
I12
s(V\u1075
p233
V\u102f
p234
tp235
I49
s(g26
V\u1011
p236
tp237
I2
s(V\u1075
p238
V\u1004
p239
tp240
I1
s(V\u1087
p241
g26
tp242
I3
s(V\u1038
p243
V\u1076
p244
tp245
I52
s(V\u1035
p246
V\u1010
p247
tp248
I35
s(V\u1078
p249
V\u101d
p250
tp251
I9
s(V\u1086
p252
V\u1015
p253
tp254
I3
s(V\u1082
p255
V\u1083
p256
tp257
I31
s(V6
p258
g123
tp259
I1
s(V\u108a
p260
V\u104a
p261
tp262
I1
s(V\u1019
p263
V\u1031
p264
tp265
I1
s(V\u1038
p266
V\u1078
p267
tp268
I45
s(V\u1004
p269
V\u1019
p270
tp271
I10
s(V\u1022
p272
V\u1031
p273
tp274
I4
s(V\u102e
p275
V\u107c
p276
tp277
I1
s(V\u1030
p278
V\u1038
p279
tp280
I12
s(V\u1010
p281
V\u102d
p282
tp283
I21
s(g140
V5
p284
tp285
I1
s(V\u1022
p286
V\u102f
p287
tp288
I4
s(V\u103b
p289
V\u102e
p290
tp291
I16
s(V\u102f
p292
V\u101d
p293
tp294
I28
s(V\u1086
p295
V\u1081
p296
tp297
I1
s(V\u1019
p298
V\u1030
p299
tp300
I13
s(V\u1010
p301
V\u103c
p302
tp303
I16
s(V\u108a
p304
V\u101b
p305
tp306
I1
s(V\u107d
p307
V\u102e
p308
tp309
I1
s(V\u101b
p310
V\u1031
p311
tp312
I2
s(g20
V\u1081
p313
tp314
I33
s(g20
V\u104a
p315
tp316
I21
s(g20
V\u107f
p317
tp318
I2
s(V\u1010
p319
V\u1010
p320
tp321
I15
s(g43
g20
tp322
I4
s(g40
g50
tp323
I4
s(V\u102e
p324
V\u1075
p325
tp326
I2
s(V\u1089
p327
V\u1081
p328
tp329
I8
s(g20
V\u2013
p330
tp331
I11
s(V\u1086
p332
V\u107d
p333
tp334
I1
s(g140
V/
p335
tp336
I1
s(g140
V7
p337
tp338
I1
s(g123
g335
tp339
I4
s(V\u1087
p340
V\u1010
p341
tp342
I61
s(g185
g184
tp343
I1
s(g45
g21
tp344
I2
s(V\u1015
p345
V\u1031
p346
tp347
I27
s(V\u107e
p348
V\u1083
p349
tp350
I9
s(g123
g20
tp351
I21
s(g20
VY
p352
tp353
I1
s(g20
g337
tp354
I2
s(g123
V9
p355
tp356
I1
s(V\u1083
p357
V\u1088
p358
tp359
I157
s(V\u101d
p360
V\u107c
p361
tp362
I30
s(V\u1011
p363
V\u1031
p364
tp365
I1
s(V\u1088
p366
V\u1010
p367
tp368
I71
s(Ve
p369
Vb
p370
tp371
I1
s(V\u1088
p372
V\u107e
p373
tp374
I13
s(V\u1038
p375
V\u104b
p376
tp377
I8
s(V\u1038
p378
V\u107c
p379
tp380
I105
s(Vi
p381
Vc
p382
tp383
I1
s(V\u101a
p384
V\u1019
p385
tp386
I3
s(V\u1011
p387
V\u1062
p388
tp389
I6
s(g24
g204
tp390
I1
s(V\u101e
p391
V\u103a
p392
tp393
I2
s(V\u107d
p394
V\u1062
p395
tp396
I9
s(g20
g49
tp397
I3
s(g20
g284
tp398
I2
s(V\u101c
p399
V\u103d
p400
tp401
I85
s(g50
VD
p402
tp403
I1
s(V\u1089
p404
V\u104b
p405
tp406
I15
s(V\u1011
p407
V\u103d
p408
tp409
I6
s(V\u1088
p410
V\u107c
p411
tp412
I104
s(V\u201d
p413
g20
tp414
I3
s(V\u101e
p415
V\u1083
p416
tp417
I1
s(V\u107d
p418
V\u1084
p419
tp420
I1
s(V\u1084
p421
V\u1088
p422
tp423
I45
s(g162
g140
tp424
I1
s(V\u1062
p425
V\u1015
p426
tp427
I2
s(g43
g43
tp428
I3
s(g225
g162
tp429
I5
s(V\u101e
p430
V\u102d
p431
tp432
I33
s(g352
g204
tp433
I1
s(V\u102d
p434
V\u1015
p435
tp436
I4
s(g20
VM
p437
tp438
I3
s(g355
g355
tp439
I2
s(V\u102f
p440
g92
tp441
I3
s(V\u1086
p442
V\u107c
p443
tp444
I2
s(V\u1030
p445
V\u101c
p446
tp447
I10
s(g369
g184
tp448
I1
s(g225
g335
tp449
I1
s(V\u1038
p450
V\u101a
p451
tp452
I90
s(V\u101a
p453
V\u1004
p454
tp455
I9
s(V\u1078
p456
V\u1082
p457
tp458
I7
s(g162
g162
tp459
I6
s(V\u103d
p460
V\u1004
p461
tp462
I148
s(V\u101d
p463
V\u101e
p464
tp465
I1
s(g284
V\u1075
p466
tp467
I1
s(V\u1083
p468
V\u1078
p469
tp470
I2
s(V\u107d
p471
V\u1031
p472
tp473
I4
s(g40
g21
tp474
I1
s(V\u1075
p475
V\u1083
p476
tp477
I21
s(g381
Vt
p478
tp479
I1
s(V\u102e
p480
g20
tp481
I9
s(g20
g23
tp482
I5
s(V\u102d
p483
V\u1010
p484
tp485
I11
s(V\u101d
p486
V\u1030
p487
tp488
I2
s(g40
V\u1019
p489
tp490
I1
s(V\u107c
p491
V\u102e
p492
tp493
I6
s(V\u1086
p494
V\u1088
p495
tp496
I87
s(V\u1088
p497
V\u101a
p498
tp499
I12
s(V\u107d
p500
V\u1030
p501
tp502
I35
s(V\u1076
p503
V\u1030
p504
tp505
I8
s(V\u1087
p506
V\u1011
p507
tp508
I5
s(g49
VG
p509
tp510
I1
s(V\u1015
p511
V\u101d
p512
tp513
I5
s(V\u1010
p514
V\u107c
p515
tp516
I5
s(V\u1062
p517
V\u1086
p518
tp519
I100
s(V\u101d
p520
V\u102d
p521
tp522
I2
s(V\u103d
p523
V\u1019
p524
tp525
I36
s(V\u1062
p526
V\u1019
p527
tp528
I19
s(V\u107c
p529
V\u103d
p530
tp531
I14
s(V\u102e
p532
V\u1019
p533
tp534
I1
s(g335
g140
tp535
I9
s(V\u1031
p536
V\u1089
p537
tp538
I4
s(g92
V\u104b
p539
tp540
I1
s(V\u1076
p541
V\u102f
p542
tp543
I2
s(g123
g161
tp544
I2
s(V\u1087
p545
V\u1019
p546
tp547
I36
s(V\u101e
p548
V\u1030
p549
tp550
I6
s(V\u1015
p551
V\u102e
p552
tp553
I23
s(V\u1086
p554
V\u101c
p555
tp556
I5
s(V\u101a
p557
V\u103d
p558
tp559
I15
s(g20
V\u1075
p560
tp561
I104
s(V\u201c
p562
V\u107d
p563
tp564
I1
s(V\u1038
p565
V\u107a
p566
tp567
I3
s(V\u1075
p568
V\u1062
p569
tp570
I61
s(V\u1038
p571
V\u101e
p572
tp573
I45
s(V\u1031
p574
V\u1088
p575
tp576
I2
s(V\u1089
p577
V\u1015
p578
tp579
I31
s(V\u1010
p580
V\u1083
p581
tp582
I29
s(V\u101d
p583
V\u101a
p584
tp585
I1
s(V\u1075
p586
V\u1084
p587
tp588
I3
s(V\u103a
p589
V\u1022
p590
tp591
I25
s(V\u103a
p592
V\u000a
p593
tp594
I2
s(V\u1015
p595
V\u103b
p596
tp597
I9
s(V\u1083
p598
V\u1087
p599
tp600
I83
s(g402
Vr
p601
tp602
I1
s(V\u101c
p603
V\u1035
p604
tp605
I15
s(V\u1031
p606
V\u101c
p607
tp608
I7
s(V\u1031
p609
V\u108a
p610
tp611
I3
s(V\u1035
p612
V\u107c
p613
tp614
I68
s(V\u1087
p615
V\u1004
p616
tp617
I1
s(g133
g50
tp618
I1
s(V\u1011
p619
V\u1035
p620
tp621
I2
s(V\u103b
p622
V\u1031
p623
tp624
I3
s(V\u101d
p625
V\u1086
p626
tp627
I24
s(V\u1085
p628
V\u1015
p629
tp630
I16
s(g26
VI
p631
tp632
I1
s(V\u1075
p633
V\u103b
p634
tp635
I13
s(V\u1022
p636
V\u1083
p637
tp638
I3
s(V\u1015
p639
V\u1085
p640
tp641
I19
s(V\u103a
p642
V\u107a
p643
tp644
I1
s(V\u1015
p645
V\u1083
p646
tp647
I30
s(V\u1075
p648
V\u1015
p649
tp650
I17
s(g335
g20
tp651
I3
s(V\u103d
p652
V\u1015
p653
tp654
I11
s(V\u1062
p655
V\u101d
p656
tp657
I35
s(V\u1035
p658
V\u1004
p659
tp660
I53
s(V\u101c
p661
V\u1084
p662
tp663
I38
s(V\u1075
p664
V\u103a
p665
tp666
I195
s(V\u1010
p667
V\u102e
p668
tp669
I72
s(V\u1087
p670
V\u101d
p671
tp672
I11
s(V\u1078
p673
V\u102d
p674
tp675
I74
s(g478
Vh
p676
tp677
I2
s(g204
g184
tp678
I1
s(g20
V|
p679
tp680
I1
s(V\u108a
p681
V\u1019
p682
tp683
I4
s(V\u1038
p684
V\u1022
p685
tp686
I41
s(V\u1022
p687
V\u1085
p688
tp689
I1
s(V\u1010
p690
V\u1011
p691
tp692
I1
s(V\u103a
p693
V\u107c
p694
tp695
I53
s(V\u1088
p696
V\u1081
p697
tp698
I68
s(V\u101b
p699
V\u1076
p700
tp701
I2
s(V\u1019
p702
V\u101d
p703
tp704
I1
s(g21
g20
tp705
I5
s(V\u1010
p706
V\u1075
p707
tp708
I2
s(g402
g49
tp709
I1
s(VE
p710
g352
tp711
I1
s(V\u1081
p712
V\u1062
p713
tp714
I13
s(V\u1031
p715
V\u1010
p716
tp717
I6
s(V\u101e
p718
V\u1085
p719
tp720
I4
s(V\u1031
p721
V\u1075
p722
tp723
I4
s(V\u101d
p724
V\u1082
p725
tp726
I2
s(V\u108a
p727
V\u107c
p728
tp729
I1
s(V\u1038
p730
V\u1081
p731
tp732
I58
s(g40
V\u1010
p733
tp734
I1
s(g710
g478
tp735
I1
s(V\u102f
p736
V\u1075
p737
tp738
I84
s(V.
p739
g20
tp740
I1
s(V\u103a
p741
V\u101d
p742
tp743
I27
s(g20
V\u107e
p744
tp745
I15
s(g225
g258
tp746
I1
s(Vk
p747
g92
tp748
I1
s(g437
g50
tp749
I1
s(V\u1019
p750
V\u1086
p751
tp752
I1
s(V\u1081
p753
V\u1035
p754
tp755
I43
s(V\u1083
p756
V\u1075
p757
tp758
I2
s(V\u1086
p759
V\u1038
p760
tp761
I73
s(V\u1031
p762
V\u1081
p763
tp764
I4
s(V\u1076
p765
V\u102e
p766
tp767
I2
s(V\u101e
p768
V\u1062
p769
tp770
I31
s(g355
V\u000a
p771
tp772
I2
s(V\u103a
p773
V\u1088
p774
tp775
I523
s(V\u1075
p776
V\u1010
p777
tp778
I8
s(V\u101a
p779
V\u1082
p780
tp781
I2
s(V\u1031
p782
V\u1038
p783
tp784
I5
s(V\u1078
p785
V\u1031
p786
tp787
I2
s(g204
g747
tp788
I1
s(V\u101a
p789
V\u1035
p790
tp791
I14
s(g20
g258
tp792
I6
s(V\u101c
p793
V\u1075
p794
tp795
I1
s(VB
p796
g92
tp797
I1
s(V\u1076
p798
V\u102d
p799
tp800
I33
s(V\u1075
p801
V\u107d
p802
tp803
I1
s(V\u1089
p804
V\u101d
p805
tp806
I6
s(V\u103a
p807
V\u1089
p808
tp809
I235
s(g20
V\u107c
p810
tp811
I62
s(V\u1038
p812
g92
tp813
I1
s(V\u107b
p814
V\u102e
p815
tp816
I7
s(V\u1038
p817
V\u1011
p818
tp819
I14
s(g225
g20
tp820
I5
s(V\u1031
p821
V\u101e
p822
tp823
I3
s(V\u101e
p824
V\u1004
p825
tp826
I5
s(g20
V\u1010
p827
tp828
I79
s(V\u102e
p829
V\u104b
p830
tp831
I1
s(V\u102d
p832
V\u1004
p833
tp834
I62
s(V\u1022
p835
V\u101d
p836
tp837
I21
s(g21
g26
tp838
I1
s(V\u1010
p839
V\u101c
p840
tp841
I1
s(V\u1086
p842
V\u201d
p843
tp844
I1
s(V\u1078
p845
V\u1075
p846
tp847
I1
s(V\u1062
p848
V\u1004
p849
tp850
I193
s(g20
g161
tp851
I2
s(g23
g335
tp852
I1
s(g45
g185
tp853
I1
s(g676
g20
tp854
I1
s(V\u101e
p855
V\u1031
p856
tp857
I41
s(V\u1087
p858
V\u1081
p859
tp860
I21
s(g20
g710
tp861
I1
s(V\u103b
p862
V\u1083
p863
tp864
I2
s(V\u1030
p865
V\u1019
p866
tp867
I32
s(V\u1075
p868
V\u102d
p869
tp870
I22
s(V\u101a
p871
V\u1085
p872
tp873
I1
s(V\u1019
p874
V\u1083
p875
tp876
I39
s(V\u101c
p877
V\u1062
p878
tp879
I77
s(V\u1015
p880
V\u1015
p881
tp882
I4
s(V\u107c
p883
V\u1031
p884
tp885
I8
s(V\u101e
p886
V\u101d
p887
tp888
I1
s(V\u108a
p889
V\u1011
p890
tp891
I1
s(V\u107a
p892
V\u1062
p893
tp894
I1
s(V\u1087
p895
V\u1015
p896
tp897
I62
s(V\u101a
p898
V\u1030
p899
tp900
I22
s(V\u1078
p901
V\u1035
p902
tp903
I16
s(g355
g20
tp904
I3
s(V\u1086
p905
V\u1011
p906
tp907
I1
s(V\u1010
p908
V\u1031
p909
tp910
I47
s(g49
g92
tp911
I6
s(V\u101c
p912
V\u103a
p913
tp914
I2
s(V\u1085
p915
V\u107c
p916
tp917
I39
s(V\u1022
p918
V\u1035
p919
tp920
I2
s(V\u1089
p921
V\u1010
p922
tp923
I18
s(g162
g20
tp924
I9
s(V\u1030
p925
V\u1075
p926
tp927
I12
s(V\u1081
p928
V\u1030
p929
tp930
I72
s(V\u102e
p931
V\u1087
p932
tp933
I32
s(V\u1085
p934
V\u101d
p935
tp936
I4
s(V\u1038
p937
V\u1015
p938
tp939
I56
s(V\u107e
p940
V\u1062
p941
tp942
I24
s(V\u101c
p943
V\u103b
p944
tp945
I1
s(V\u101b
p946
V\u102d
p947
tp948
I1
s(V\u1076
p949
V\u103d
p950
tp951
I16
s(g21
g92
tp952
I2
s(g355
V\u104b
p953
tp954
I1
s(V\u1085
p955
V\u1004
p956
tp957
I20
s(V\u1088
p958
V\u000a
p959
tp960
I3
s(V\u1085
p961
V\u1019
p962
tp963
I9
s(V\u103a
p964
V\u107d
p965
tp966
I19
s(g225
V\u1075
p967
tp968
I1
s(V\u1015
p969
V\u102d
p970
tp971
I50
s(V\u1030
p972
V\u1087
p973
tp974
I28
s(V\u1088
p975
V\u1015
p976
tp977
I63
s(g20
V\u1076
p978
tp979
I41
s(g284
g20
tp980
I3
s(V\u101e
p981
V\u102f
p982
tp983
I20
s(g335
V\u1010
p984
tp985
I1
s(g23
g187
tp986
I1
s(V\u108a
p987
V\u1081
p988
tp989
I1
s(V\u1010
p990
V\u101b
p991
tp992
I1
s(V\u1004
p993
V\u103a
p994
tp995
I772
s(g631
g187
tp996
I1
s(g710
g21
tp997
I4
s(V\u1081
p998
V\u107c
p999
tp1000
I9
s(g40
VU
p1001
tp1002
I3
s(V\u1089
p1003
V\u1076
p1004
tp1005
I15
s(g173
g796
tp1006
I1
s(g20
g187
tp1007
I1
s(V\u1011
p1008
V\u102d
p1009
tp1010
I9
s(V\u108a
p1011
V\u1076
p1012
tp1013
I3
s(V\u1084
p1014
V\u1015
p1015
tp1016
I1
s(V\u1075
p1017
V\u101d
p1018
tp1019
I2
s(V\u108a
p1020
V\u1015
p1021
tp1022
I6
s(V\u107c
p1023
V\u1062
p1024
tp1025
I66
s(V\u103a
p1026
V\u101e
p1027
tp1028
I25
s(V\u1089
p1029
V\u101a
p1030
tp1031
I7
s(V\u1081
p1032
V\u103d
p1033
tp1034
I19
s(V%
p1035
g20
tp1036
I4
s(V\u1015
p1037
V\u102f
p1038
tp1039
I3
s(V\u1004
p1040
V\u1062
p1041
tp1042
I9
s(V\u103a
p1043
V\u1081
p1044
tp1045
I26
s(V\u1011
p1046
V\u1030
p1047
tp1048
I10
s(g20
g355
tp1049
I3
s(V\u103d
p1050
V\u1010
p1051
tp1052
I11
s(V\u103a
p1053
g26
tp1054
I1
s(V\u1019
p1055
V\u103a
p1056
tp1057
I364
s(V\u107e
p1058
V\u1084
p1059
tp1060
I1
s(V\u103a
p1061
V\u104b
p1062
tp1063
I5
s(V\u1035
p1064
V\u101d
p1065
tp1066
I13
s(g162
g337
tp1067
I1
s(g20
g40
tp1068
I27
s(V\u1081
p1069
V\u1082
p1070
tp1071
I18
s(V\u107c
p1072
V\u103a
p1073
tp1074
I722
s(V\u1089
p1075
V\u1078
p1076
tp1077
I31
s(V\u107e
p1078
V\u1085
p1079
tp1080
I2
s(g123
g92
tp1081
I1
s(g185
Vl
p1082
tp1083
I1
s(g631
g20
tp1084
I3
s(V\u103a
p1085
V\u1010
p1086
tp1087
I45
s(V\u1089
p1088
V\u101c
p1089
tp1090
I24
s(V\u1038
p1091
V\u107d
p1092
tp1093
I14
s(g1082
g381
tp1094
I2
s(V\u1010
p1095
V\u103a
p1096
tp1097
I183
s(V\u1076
p1098
V\u1015
p1099
tp1100
I2
s(g335
g162
tp1101
I9
s(g20
V\u101a
p1102
tp1103
I28
s(V\u107e
p1104
V\u1086
p1105
tp1106
I1
s(V\u1089
p1107
g20
tp1108
I142
s(V\u1019
p1109
V\u1075
p1110
tp1111
I1
s(g162
g284
tp1112
I1
s(V\u1004
p1113
V\u102f
p1114
tp1115
I2
s(V\u1081
p1116
V\u1084
p1117
tp1118
I1
s(V\u1076
p1119
V\u103b
p1120
tp1121
I2
s(V\u1019
p1122
V\u102d
p1123
tp1124
I113
s(V\u1078
p1125
V\u103d
p1126
tp1127
I21
s(V\u1030
p1128
V\u1004
p1129
tp1130
I166
s(g50
g21
tp1131
I3
s(V\u1078
p1132
V\u1084
p1133
tp1134
I1
s(V\u107d
p1135
V\u103d
p1136
tp1137
I18
s(V\u1062
p1138
V\u1075
p1139
tp1140
I21
s(g173
g402
tp1141
I5
s(V\u1015
p1142
V\u107c
p1143
tp1144
I31
s(V\u1075
p1145
V\u1086
p1146
tp1147
I1
s(V\u102e
p1148
V\u101c
p1149
tp1150
I1
s(V\u1087
p1151
V\u1076
p1152
tp1153
I25
s(V\u1022
p1154
V\u107c
p1155
tp1156
I46
s(g43
g335
tp1157
I3
s(V\u103d
p1158
V\u1086
p1159
tp1160
I13
s(V\u1038
p1161
V\u101d
p1162
tp1163
I27
s(V\u101e
p1164
V\u101c
p1165
tp1166
I2
s(g23
g49
tp1167
I4
s(V\u102e
p1168
V\u1038
p1169
tp1170
I46
s(V\u1019
p1171
V\u1010
p1172
tp1173
I3
s(V\u1030
p1174
V\u107c
p1175
tp1176
I90
s(g335
g23
tp1177
I2
s(V\u1081
p1178
V\u1086
p1179
tp1180
I1
s(V\u1076
p1181
V\u1035
p1182
tp1183
I2
s(V\u104a
p1184
g20
tp1185
I85
s(V\u1011
p1186
V\u1019
p1187
tp1188
I3
s(V\u1084
p1189
V\u1089
p1190
tp1191
I10
s(V\u107c
p1192
V\u107c
p1193
tp1194
I48
s(V\u107b
p1195
V\u101b
p1196
tp1197
I2
s(V\u102e
p1198
V\u1015
p1199
tp1200
I1
s(V\u1015
p1201
V\u1035
p1202
tp1203
I57
s(Vs
p1204
V:
p1205
tp1206
I1
s(V\u1088
p1207
V\u101d
p1208
tp1209
I38
s(g20
g225
tp1210
I15
s(V\u101d
p1211
V\u1035
p1212
tp1213
I4
s(V\u1088
p1214
g26
tp1215
I13
s(g478
g381
tp1216
I2
s(V\u101c
p1217
V\u1082
p1218
tp1219
I5
s(V\u102f
p1220
V\u104a
p1221
tp1222
I1
s(g20
V\u1022
p1223
tp1224
I92
s(g631
g21
tp1225
I2
s(V\u1086
p1226
V\u101a
p1227
tp1228
I6
s(g40
V\u1022
p1229
tp1230
I4
s(V\u1089
p1231
V\u107e
p1232
tp1233
I1
s(V\u201c
p1234
g20
tp1235
I1
s(V\u107d
p1236
V\u102f
p1237
tp1238
I1
s(g20
V\u101d
p1239
tp1240
I36
s(V\u1078
p1241
V\u1083
p1242
tp1243
I4
s(g631
g631
tp1244
I2
s(V\u102f
p1245
V\u107c
p1246
tp1247
I81
s(V\u1076
p1248
V\u1085
p1249
tp1250
I3
s(g140
g20
tp1251
I4
s(V\u1083
p1252
V\u101d
p1253
tp1254
I3
s(V\u1075
p1255
V\u1082
p1256
tp1257
I33
s(g20
g123
tp1258
I13
s(V\u1083
p1259
V\u108a
p1260
tp1261
I5
s(V\u101d
p1262
V\u1062
p1263
tp1264
I12
s(Vm
p1265
g369
tp1266
I1
s(V\u103c
p1267
V\u1083
p1268
tp1269
I16
s(V\u103a
p1270
V\u104a
p1271
tp1272
I9
s(g184
g369
tp1273
I1
s(V\u1088
p1274
V\u1078
p1275
tp1276
I37
s(g162
g43
tp1277
I5
s(g161
g335
tp1278
I2
s(V\u1078
p1279
V\u107c
p1280
tp1281
I17
s(V\u1083
p1282
V\u101c
p1283
tp1284
I1
s(V\u101d
p1285
V\u1085
p1286
tp1287
I2
s(V\u1076
p1288
V\u1031
p1289
tp1290
I13
s(V\u1038
p1291
V\u1010
p1292
tp1293
I126
s(V\u1038
p1294
V\u107e
p1295
tp1296
I2
s(V\u1084
p1297
V\u1087
p1298
tp1299
I11
s(g676
g381
tp1300
I1
s(V\u101c
p1301
V\u1004
p1302
tp1303
I1
s(g123
g258
tp1304
I10
s(V\u1087
p1305
V\u1022
p1306
tp1307
I10
s(V\u1076
p1308
V\u1062
p1309
tp1310
I15
s(V\u1076
p1311
V\u107b
p1312
tp1313
I7
s(V\u1086
p1314
V\u1078
p1315
tp1316
I6
s(V\u1089
p1317
V\u1004
p1318
tp1319
I2
s(V\u107e
p1320
V\u102d
p1321
tp1322
I3
s(V\u1022
p1323
V\u1062
p1324
tp1325
I4
s(V\u103b
p1326
V\u1062
p1327
tp1328
I1
s(V\u1031
p1329
V\u1083
p1330
tp1331
I141
s(V\u104b
p1332
g20
tp1333
I65
s(V\u1062
p1334
V\u107c
p1335
tp1336
I123
s(g402
g20
tp1337
I4
s(V\u101c
p1338
V\u102e
p1339
tp1340
I12
s(V\u1083
p1341
V\u101a
p1342
tp1343
I2
s(V\u1019
p1344
V\u1035
p1345
tp1346
I1
s(V\u107c
p1347
V\u1030
p1348
tp1349
I1
s(V\u107f
p1350
V\u102f
p1351
tp1352
I1
s(g140
g162
tp1353
I19
s(V\u1076
p1354
V\u1075
p1355
tp1356
I3
s(g601
g739
tp1357
I1
s(V\u1087
p1358
V\u1078
p1359
tp1360
I28
s(V\u107d
p1361
V\u1035
p1362
tp1363
I14
s(V\u1010
p1364
V\u1015
p1365
tp1366
I5
s(V\u101c
p1367
V\u102f
p1368
tp1369
I19
s(V\u1010
p1370
V\u1030
p1371
tp1372
I49
s(g26
V\u1075
p1373
tp1374
I1
s(V\u1015
p1375
V\u1075
p1376
tp1377
I2
s(g20
g50
tp1378
I6
s(g184
g1204
tp1379
I1
s(g123
g43
tp1380
I2
s(V\u1011
p1381
V\u102f
p1382
tp1383
I23
s(g123
g225
tp1384
I1
s(g381
g369
tp1385
I1
s(V\u1019
p1386
V\u107c
p1387
tp1388
I29
s(V\u1030
p1389
V\u1088
p1390
tp1391
I53
s(V\u1010
p1392
V\u1086
p1393
tp1394
I34
s(V\u1076
p1395
V\u1083
p1396
tp1397
I9
s(V\u1019
p1398
V\u1085
p1399
tp1400
I1
s(V\u102e
p1401
V\u101d
p1402
tp1403
I1
s(V\u1015
p1404
V\u103d
p1405
tp1406
I27
s(V\u1083
p1407
g20
tp1408
I4
s(V\u102d
p1409
V\u107c
p1410
tp1411
I21
s(V\u101c
p1412
V\u1085
p1413
tp1414
I11
s(g1204
g20
tp1415
I1
s(V\u1081
p1416
V\u101d
p1417
tp1418
I17
s(V\u1011
p1419
V\u1010
p1420
tp1421
I2
s(V\u1031
p1422
V\u1087
p1423
tp1424
I11
s(V\u107c
p1425
V\u1086
p1426
tp1427
I130
s(V\u107d
p1428
V\u1075
p1429
tp1430
I1
s(V\u1086
p1431
g20
tp1432
I32
s(g92
g20
tp1433
I27
s(V\u1015
p1434
V\u1010
p1435
tp1436
I2
s(V\u1087
p1437
V\u107a
p1438
tp1439
I1
s(g337
g335
tp1440
I3
s(V\u101d
p1441
V\u1083
p1442
tp1443
I68
s(V\u108a
p1444
V\u107b
p1445
tp1446
I2
s(g1205
V\u000a
p1447
tp1448
I1
s(g50
g710
tp1449
I1
s(V\u1089
p1450
V\u1011
p1451
tp1452
I15
s(V\u101a
p1453
V\u101d
p1454
tp1455
I25
s(g20
V\u1015
p1456
tp1457
I112
s(V\u1010
p1458
V\u1084
p1459
tp1460
I14
s(V\u102d
p1461
V\u102f
p1462
tp1463
I202
s(V\u1087
p1464
V\u107c
p1465
tp1466
I38
s(V\u1089
p1467
V\u000a
p1468
tp1469
I3
s(V\u102e
p1470
V\u1081
p1471
tp1472
I15
s(V\u1083
p1473
V\u1015
p1474
tp1475
I1
s(V\u1031
p1476
V\u1076
p1477
tp1478
I4
s(V\u101e
p1479
V\u1010
p1480
tp1481
I1
s(g20
V\u1004
p1482
tp1483
I2
s(V\u108a
p1484
g20
tp1485
I8
s(V\u1081
p1486
V\u1004
p1487
tp1488
I2
s(g50
g45
tp1489
I2
s(V\u1083
p1490
V\u1038
p1491
tp1492
I114
s(g258
g20
tp1493
I13
s(g43
g92
tp1494
I1
s(g40
VR
p1495
tp1496
I1
s(g187
g335
tp1497
I1
s(V\u107c
p1498
V\u1084
p1499
tp1500
I6
s(V\u1062
p1501
V\u1010
p1502
tp1503
I41
s(V\u1078
p1504
V\u1004
p1505
tp1506
I4
s(V\u201c
p1507
V\u1015
p1508
tp1509
I1
s(V\u1085
p1510
V\u1010
p1511
tp1512
I10
s(V\u103b
p1513
V\u102d
p1514
tp1515
I2
s(g123
g337
tp1516
I2
s(V\u1038
p1517
V\u1004
p1518
tp1519
I10
s(V\u1087
p1520
V\u101a
p1521
tp1522
I15
s(V\u1022
p1523
V\u1004
p1524
tp1525
I4
s(V\u1081
p1526
V\u1083
p1527
tp1528
I5
s(g173
g49
tp1529
I1
s(g437
g631
tp1530
I2
s(V\u103a
p1531
g20
tp1532
I122
s(g24
g173
tp1533
I1
s(V\u1083
p1534
V\u1089
p1535
tp1536
I67
s(V\u108a
p1537
V\u1022
p1538
tp1539
I1
s(V\u107f
p1540
V\u107c
p1541
tp1542
I2
s(V\u102e
p1543
V\u104a
p1544
tp1545
I1
s(V\u1038
p1546
g335
tp1547
I3
s(V\u107c
p1548
V\u1082
p1549
tp1550
I36
s(g50
g20
tp1551
I6
s(V\u1030
p1552
V\u1010
p1553
tp1554
I10
s(g162
g1035
tp1555
I4
s(g1082
g1082
tp1556
I1
s(V\u1022
p1557
V\u1030
p1558
tp1559
I17
s(V\u102e
p1560
V\u1076
p1561
tp1562
I1
s(V\u108a
p1563
V\u107f
p1564
tp1565
I1
s(V\u1019
p1566
V\u103d
p1567
tp1568
I17
s(g205
g478
tp1569
I1
s(V\u103a
p1570
V\u1078
p1571
tp1572
I30
s(g162
g161
tp1573
I2
s(V\u1010
p1574
V\u1062
p1575
tp1576
I29
s(V\u102d
p1577
V\u1030
p1578
tp1579
I223
s(V\u1081
p1580
V\u1085
p1581
tp1582
I12
s(V\u1031
p1583
V\u1078
p1584
tp1585
I4
s(g369
g20
tp1586
I1
s(g382
g369
tp1587
I1
s(g381
g185
tp1588
I1
s(V\u1011
p1589
V\u1085
p1590
tp1591
I10
s(g49
g1082
tp1592
I1
s(V\u1038
p1593
g26
tp1594
I4
s(V\u1088
p1595
V\u101e
p1596
tp1597
I27
s(V\u1035
p1598
V\u1015
p1599
tp1600
I5
s(g24
g49
tp1601
I11
s(g123
g162
tp1602
I5
s(V\u1038
p1603
V\u101c
p1604
tp1605
I115
s(V\u107d
p1606
V\u1085
p1607
tp1608
I1
s(V\u1015
p1609
V\u1062
p1610
tp1611
I99
s(V\u107d
p1612
V\u1083
p1613
tp1614
I6
s(V\u103a
p1615
V\u1019
p1616
tp1617
I38
s(V\u1031
p1618
V\u1022
p1619
tp1620
I4
s(V\u1088
p1621
V\u1022
p1622
tp1623
I17
s(V\u1087
p1624
V\u101e
p1625
tp1626
I25
s(V\u1038
p1627
V\u201d
p1628
tp1629
I2
s(V\u101e
p1630
V\u103b
p1631
tp1632
I2
s(V\u1019
p1633
V\u1082
p1634
tp1635
I4
s(V\u1038
p1636
V\u1075
p1637
tp1638
I118
s(V\u1084
p1639
g20
tp1640
I1
s(V\u107a
p1641
V\u1083
p1642
tp1643
I4
s(g20
g1001
tp1644
I3
s(g20
V\u101e
p1645
tp1646
I36
s(V\u101e
p1647
V\u103d
p1648
tp1649
I6
s(g187
g631
tp1650
I1
s(V\u1087
p1651
V\u104b
p1652
tp1653
I9
s(V\u1081
p1654
V\u1015
p1655
tp1656
I11
s(g20
g335
tp1657
I1
s(V\u1004
p1658
V\u102d
p1659
tp1660
I8
s(g50
g185
tp1661
I1
s(V\u1089
p1662
V\u1075
p1663
tp1664
I31
s(g40
g140
tp1665
I1
s(V\u1088
p1666
V\u101c
p1667
tp1668
I58
s(g20
g140
tp1669
I31
s(V\u108a
p1670
V\u1075
p1671
tp1672
I2
s(V\u101d
p1673
V\u103a
p1674
tp1675
I433
s(V\u103a
p1676
V\u1015
p1677
tp1678
I69
s(V\u1082
p1679
V\u103a
p1680
tp1681
I85
s(V\u101c
p1682
V\u1030
p1683
tp1684
I91
s(V\u1030
p1685
V\u1089
p1686
tp1687
I9
s(V\u1089
p1688
V\u1019
p1689
tp1690
I15
s(V\u103a
p1691
V\u1075
p1692
tp1693
I93
s(V\u1088
p1694
g20
tp1695
I190
s(V\u1088
p1696
V\u1075
p1697
tp1698
I63
s(g161
g20
tp1699
I3
s(V\u1086
p1700
V\u1087
p1701
tp1702
I44
s(V\u1075
p1703
V\u1019
p1704
tp1705
I9
s(V\u1031
p1706
V\u107c
p1707
tp1708
I1
s(V\u101e
p1709
V\u102e
p1710
tp1711
I2
s(V\u1019
p1712
V\u102e
p1713
tp1714
I40
s(V\u1081
p1715
V\u1031
p1716
tp1717
I2
s(g50
g92
tp1718
I7
s(V\u1015
p1719
V\u107a
p1720
tp1721
I1
s(g20
V\u101c
p1722
tp1723
I65
s(V\u1031
p1724
V\u1019
p1725
tp1726
I1
s(g185
g382
tp1727
I1
s(V\u101c
p1728
V\u1031
p1729
tp1730
I2
s(V\u1082
p1731
V\u1062
p1732
tp1733
I5
s(V\u1075
p1734
V\u1035
p1735
tp1736
I10
s(g20
g162
tp1737
I4
s(V\u1083
p1738
V\u1076
p1739
tp1740
I2
s(V\u102e
p1741
V\u108a
p1742
tp1743
I15
s(V\u103d
p1744
V\u1075
p1745
tp1746
I47
s(V\u1022
p1747
V\u103d
p1748
tp1749
I45
s(V\u1038
p1750
g20
tp1751
I208
s(V\u107c
p1752
V\u1019
p1753
tp1754
I20
s(V\u103a
p1755
V\u1004
p1756
tp1757
I12
s(V\u101e
p1758
V\u1035
p1759
tp1760
I8
s(V\u103a
p1761
V\u107e
p1762
tp1763
I10
s(g679
g20
tp1764
I1
s(g337
g20
tp1765
I3
s(V\u1010
p1766
V\u1085
p1767
tp1768
I34
s(V\u1038
p1769
V\u101b
p1770
tp1771
I1
s(g185
g478
tp1772
I1
s(g509
g631
tp1773
I1
s(g40
V\u107c
p1774
tp1775
I1
s(V\u103a
p1776
V\u1038
p1777
tp1778
I1023
s(g187
g187
tp1779
I2
s(V\u1083
p1780
V\u1081
p1781
tp1782
I1
s(g162
g355
tp1783
I6
s(V\u1010
p1784
V\u1022
p1785
tp1786
I1
s(V\u103b
p1787
V\u1085
p1788
tp1789
I1
s(g26
V\u000a
p1790
tp1791
I1
s(V\u101c
p1792
V\u1083
p1793
tp1794
I7
s(V\u107c
p1795
V\u1085
p1796
tp1797
I1
s(g21
g710
tp1798
I4
s(V\u2013
p1799
g20
tp1800
I11
s(V\u1010
p1801
V\u103d
p1802
tp1803
I15
s(g21
g23
tp1804
I1
s(V\u103d
p1805
V\u107c
p1806
tp1807
I59
s(g382
g20
tp1808
I1
s(V\u1075
p1809
V\u107c
p1810
tp1811
I32
s(V\u1015
p1812
V\u1086
p1813
tp1814
I11
s(V\u1088
p1815
V\u104a
p1816
tp1817
I6
s(g20
V\u104b
p1818
tp1819
I61
s(V\u101a
p1820
V\u1083
p1821
tp1822
I5
s(V\u1075
p1823
V\u1085
p1824
tp1825
I4
s(V\u1038
p1826
V\u104a
p1827
tp1828
I27
s(V\u103b
p1829
V\u103a
p1830
tp1831
I1
s(V\u107c
p1832
V\u1083
p1833
tp1834
I14
s(V\u103a
p1835
V\u108a
p1836
tp1837
I21
s(V\u101d
p1838
V\u1019
p1839
tp1840
I1
s(V\u1015
p1841
V\u1030
p1842
tp1843
I26
s(V\u1089
p1844
V\u104a
p1845
tp1846
I12
s(g402
g92
tp1847
I1
s(V\u1075
p1848
V\u1031
p1849
tp1850
I81
s(V\u1010
p1851
V\u1004
p1852
tp1853
I14
s(g49
g49
tp1854
I2
s(V\u1078
p1855
V\u1010
p1856
tp1857
I13
s(V\u102f
p1858
V\u1004
p1859
tp1860
I63
s(V\u1084
p1861
V\u108a
p1862
tp1863
I4
s(V\u1076
p1864
V\u101d
p1865
tp1866
I76
s(g369
g1204
tp1867
I1
s(V\u1087
p1868
g20
tp1869
I77
s(g21
g21
tp1870
I2
s(V\u103a
p1871
V\u1011
p1872
tp1873
I13
s(V\u1088
p1874
V\u1011
p1875
tp1876
I8
s(V\u101e
p1877
V\u1082
p1878
tp1879
I9
s(V\u1075
p1880
V\u1030
p1881
tp1882
I93
s(V\u107c
p1883
V\u1004
p1884
tp1885
I27
s(g370
g204
tp1886
I1
s(V\u1084
p1887
V\u1076
p1888
tp1889
I1
s(V\u107a
p1890
V\u103a
p1891
tp1892
I46
s(V\u1019
p1893
V\u102f
p1894
tp1895
I13
s(g352
g49
tp1896
I1
s(g21
g49
tp1897
I3
s(g204
g204
tp1898
I1
s(V\u107e
p1899
V\u1035
p1900
tp1901
I1
s(V\u1088
p1902
V\u1004
p1903
tp1904
I8
s(V\u1085
p1905
V\u1075
p1906
tp1907
I15
s(g49
g20
tp1908
I5
s(V\u103a
p1909
V\u101a
p1910
tp1911
I15
s(V\u1078
p1912
V\u1085
p1913
tp1914
I6
s(V\u1088
p1915
g40
tp1916
I1
s(V\u1088
p1917
V\u107d
p1918
tp1919
I27
s(g258
V\u1075
p1920
tp1921
I1
s(V\u101c
p1922
V\u102d
p1923
tp1924
I33
s(V\u1078
p1925
V\u1062
p1926
tp1927
I23
s(V\u1011
p1928
V\u1086
p1929
tp1930
I3
s(g162
g225
tp1931
I1
s(V\u107d
p1932
V\u102d
p1933
tp1934
I17
s(V\u1004
p1935
V\u1084
p1936
tp1937
I1
s(g258
g162
tp1938
I2
s(V\u1087
p1939
V\u107d
p1940
tp1941
I3
s(V\u102e
p1942
V\u1078
p1943
tp1944
I1
s(V\u101a
p1945
V\u1062
p1946
tp1947
I14
s(g204
g1265
tp1948
I1
s(V\u1075
p1949
V\u103d
p1950
tp1951
I21
s(V\u1089
p1952
V\u107d
p1953
tp1954
I6
s(V\u1076
p1955
V\u1086
p1956
tp1957
I1
s(V\u1076
p1958
V\u1019
p1959
tp1960
I2
s(g20
V\u1011
p1961
tp1962
I16
s(V\u101c
p1963
V\u1010
p1964
tp1965
I1
s(V\u103a
p1966
V\u101c
p1967
tp1968
I112
s(V\u1086
p1969
V\u1075
p1970
tp1971
I3
s(V\u103a
p1972
V\u1076
p1973
tp1974
I21
s(g1001
g24
tp1975
I2
s(V\u1030
p1976
V\u101d
p1977
tp1978
I190
s(g381
g204
tp1979
I1
s(V\u102d
p1980
V\u1019
p1981
tp1982
I1
s(V\u107c
p1983
V\u102f
p1984
tp1985
I9
s(V\u101e
p1986
V\u1019
p1987
tp1988
I13
s(g162
g123
tp1989
I15
s(V\u1030
p1990
V\u107a
p1991
tp1992
I45
s(g20
V\u1078
p1993
tp1994
I90
s(V\u1038
p1995
V\u000a
p1996
tp1997
I7
s(g20
g631
tp1998
I1
s(g1495
g21
tp1999
I1
s(V\u1010
p2000
V\u1035
p2001
tp2002
I5
s(V\u108a
p2003
V\u101c
p2004
tp2005
I5
s(g355
g335
tp2006
I4
s(V\u101b
p2007
V\u1084
p2008
tp2009
I2
s(g24
g23
tp2010
I2
s(V\u1076
p2011
V\u101b
p2012
tp2013
I1
s(g40
g23
tp2014
I7
s(V\u102f
p2015
V\u1015
p2016
tp2017
I13
s(g1001
g50
tp2018
I4
s(V\u1086
p2019
V\u1089
p2020
tp2021
I115
ssS'font'
p2022
S'unicode'
p2023
sS'totalNGram'
p2024
I19411
sb.