ccopy_reg
_reconstructor
p0
(c__main__
markovModel
p1
c__builtin__
object
p2
Ntp3
Rp4
(dp5
S'lang'
p6
S'karen'
p7
sS'logSum'
p8
F122.49695811672805
sS'linesAdded'
p9
I99
sS'numSamples'
p10
I3447
sS'ngramLength'
p11
I2
sS'modelFileName'
p12
S'models/karenZwebakin_2_MM_model.save'
p13
sS'detectorType'
p14
S'MARKOV'
p15
sS'probA'
p16
(dp17
V\u1001
p18
I121
sV\u1000
p19
I370
sV\u1002
p20
I3
sV\u1005
p21
I167
sV\u1004
p22
I273
sV\u1007
p23
I8
sV\u1006
p24
I73
sV\u100a
p25
I103
sV\u100c
p26
I1
sV\u100f
p27
I1
sV\u1011
p28
I63
sV\u1010
p29
I332
sV\u1013
p30
I1
sV\u1012
p31
I36
sV\u1015
p32
I293
sV\u1014
p33
I176
sV\u1017
p34
I21
sV\u1016
p35
I98
sV\u1019
p36
I244
sV\u1018
p37
I48
sV\u101b
p38
I187
sV\u101a
p39
I81
sV\u101c
p40
I186
sV\u101f
p41
I15
sV\u101e
p42
I227
sV\u1021
p43
I203
sV\u1025
p44
I21
sV\u1024
p45
I4
sV\u1080
p46
I12
sV\u105a
p47
I7
sV\u1061
p48
I2
sV\u1065
p49
I5
sV\u1075
p50
I2
sV\u107b
p51
I1
sV\u107d
p52
I2
sV\u107f
p53
I22
sV\u107e
p54
I38
ssS'fileName'
p55
S'testdata/Zwebakin.txt'
p56
sS'model'
p57
(dp58
sS'font'
p59
S'zwebakin'
p60
sS'probBGivenA'
p61
(dp62
g18
(dp63
V\u1021
p64
I1
sV\u105a
p65
I2
sV\u1004
p66
I18
sV\u102b
p67
I7
sV\u102d
p68
I1
sV\u102c
p69
I8
sV\u102f
p70
I18
sV\u1010
p71
I2
sV\u1032
p72
I20
sV\u1014
p73
I4
sV\u1036
p74
I7
sV\u1019
p75
I1
sV\u101b
p76
I1
sV\u103a
p77
I19
sV\u103c
p78
I12
ssg19
(dp79
V\u1004
p80
I1
sV\u1006
p81
I1
sV\u100a
p82
I4
sV\u1091
p83
I3
sV\u1010
p84
I7
sV\u1015
p85
I6
sV\u1014
p86
I2
sV\u1017
p87
I4
sV\u1016
p88
I3
sV\u1019
p89
I4
sV\u101b
p90
I27
sV\u101a
p91
I2
sV\u101c
p92
I3
sV 
p93
I26
sV\u102d
p94
I53
sV\u102c
p95
I40
sV\u102f
p96
I9
sV\u102e
p97
I9
sV\u1031
p98
I5
sV\u1030
p99
I3
sV\u1032
p100
I3
sV\u1036
p101
I1
sV\u1039
p102
I100
sV\u103b
p103
I3
sV\u103a
p104
I41
sV\u103c
p105
I7
sV\u1061
p106
I2
sV\u1060
p107
I1
ssg20
(dp108
V\u103a
p109
I1
sV\u102d
p110
I1
sV\u102f
p111
I1
ssg21
(dp112
V\u1001
p113
I1
sV\u1040
p114
I1
sV\u1065
p115
I5
sV\u1000
p116
I8
sV\u100a
p117
I4
sV\u102d
p118
I6
sV\u102c
p119
I68
sV\u102f
p120
I2
sV\u101c
p121
I1
sV\u1031
p122
I4
sV\u1010
p123
I3
sV\u1005
p124
I3
sV\u1015
p125
I1
sV\u1036
p126
I5
sV\u1039
p127
I43
sV\u1025
p128
I2
sV\u101b
p129
I5
sV\u102e
p130
I3
sV\u103c
p131
I2
ssg22
(dp132
V\u1039
p133
I268
sg93
I2
sV\u102b
p134
I1
sV\u101a
p135
I1
sV\u1036
p136
I1
ssg23
(dp137
V\u1039
p138
I2
sV\u102d
p139
I1
sV\u103c
p140
I1
sV\u102c
p141
I3
sV\u1014
p142
I1
ssg24
(dp143
V\u1000
p144
I3
sV\u1004
p145
I4
sV\u102d
p146
I25
sV\u102c
p147
I9
sV\u108f
p148
I2
sV\u102e
p149
I2
sV\u1011
p150
I1
sV\u1014
p151
I1
sV\u1036
p152
I15
sV\u1038
p153
I2
sV\u101b
p154
I2
sV\u103c
p155
I7
ssg25
(dp156
V\u102d
p157
I1
sV\u102e
p158
I4
sV\u1019
p159
I1
sV\u1037
p160
I1
sV\u1039
p161
I89
sV\u1018
p162
I1
sV\u103d
p163
I3
sV\u103c
p164
I3
ssg26
(dp165
V\u102c
p166
I1
ssg27
(dp167
V\u1039
p168
I1
ssg28
(dp169
V\u1000
p170
I2
sV\u1004
p171
I2
sV\u100a
p172
I2
sV\u102d
p173
I8
sV\u102c
p174
I14
sV\u102f
p175
I11
sV\u102e
p176
I1
sV\u1030
p177
I6
sV\u1032
p178
I5
sV\u1015
p179
I6
sV\u1036
p180
I1
sV\u1019
p181
I3
sV\u103c
p182
I2
ssg29
(dp183
V\u1001
p184
I10
sV\u1000
p185
I4
sV\u1005
p186
I1
sV\u1004
p187
I7
sV\u100a
p188
I5
sV\u1010
p189
I3
sV\u1015
p190
I3
sV\u1014
p191
I3
sV\u1019
p192
I3
sV\u101b
p193
I2
sV\u101a
p194
I29
sV\u101c
p195
I1
sV\u1025
p196
I11
sV\u102d
p197
I37
sV\u102c
p198
I46
sV\u102f
p199
I4
sV\u102e
p200
I2
sV\u1031
p201
I2
sV\u1030
p202
I3
sV\u1032
p203
I25
sV\u1039
p204
I66
sV\u103b
p205
I1
sV\u103c
p206
I62
sV\u1071
p207
I2
ssg30
(dp208
V\u102d
p209
I1
ssg31
(dp210
V\u102b
p211
I11
sV\u102d
p212
I2
sV\u102f
p213
I5
sV\u102e
p214
I5
sV\u1010
p215
I1
sV\u1036
p216
I1
sV\u1039
p217
I11
ssg32
(dp218
V\u1001
p219
I3
sV\u1000
p220
I2
sV\u1005
p221
I1
sV\u1004
p222
I10
sV\u1086
p223
I1
sV\u100a
p224
I3
sV\u108f
p225
I1
sV\u1011
p226
I2
sV\u1010
p227
I6
sV\u1012
p228
I2
sV\u1015
p229
I1
sV\u1014
p230
I7
sV\u1019
p231
I3
sV\u101a
p232
I1
sV\u101c
p233
I2
sV\u101e
p234
I1
sV\u1021
p235
I1
sg93
I3
sV\u102b
p236
I85
sV\u102d
p237
I25
sV\u102c
p238
I12
sV\u102f
p239
I2
sV\u102e
p240
I22
sV\u1031
p241
I1
sV\u1030
p242
I1
sV\u1033
p243
I4
sV\u1036
p244
I1
sV\u1039
p245
I57
sV\u1038
p246
I20
sV\u103a
p247
I6
sV\u103c
p248
I2
sV\u105a
p249
I5
ssg33
(dp250
V\u104f
p251
I1
sV\u1000
p252
I4
sV\u1039
p253
I66
sV\u1094
p254
I2
sV\u1040
p255
I1
sg93
I2
sV\u100a
p256
I5
sV\u102c
p257
I19
sV\u108f
p258
I1
sV\u102e
p259
I13
sV\u1031
p260
I2
sV\u1010
p261
I6
sV\u1032
p262
I27
sV\u1015
p263
I1
sV\u1014
p264
I5
sV\u1019
p265
I3
sV\u101b
p266
I4
sV\u101a
p267
I2
sV\u103b
p268
I7
sV\u107f
p269
I1
sV\u101e
p270
I4
ssg34
(dp271
V\u1019
p272
I3
sV\u1000
p273
I2
sV\u103a
p274
I16
ssg35
(dp275
V\u1000
p276
I1
sV\u1005
p277
I31
sV\u1004
p278
I16
sV\u1010
p279
I5
sV\u100a
p280
I1
sV\u102d
p281
I17
sV\u102c
p282
I14
sV\u1030
p283
I1
sV\u1014
p284
I1
sV\u1034
p285
I1
sV\u103c
p286
I9
sV\u107e
p287
I1
ssg36
(dp288
V\u1001
p289
I2
sV\u1000
p290
I1
sV\u1005
p291
I1
sV\u1004
p292
I8
sV\u1007
p293
I1
sV\u1006
p294
I1
sV\u1088
p295
I12
sV\u100a
p296
I9
sV\u1011
p297
I1
sV\u1010
p298
I3
sV\u1015
p299
I2
sV\u1014
p300
I4
sV\u101b
p301
I10
sV\u101a
p302
I10
sV\u101c
p303
I4
sV\u101f
p304
I5
sV\u101e
p305
I2
sV\u1021
p306
I1
sV\u1025
p307
I1
sV\u102d
p308
I15
sV\u102c
p309
I11
sV\u102e
p310
I3
sV\u1031
p311
I6
sV\u1030
p312
I4
sV\u1032
p313
I1
sV\u1037
p314
I2
sV\u1036
p315
I1
sV\u1039
p316
I16
sV\u1038
p317
I3
sV\u103b
p318
I2
sV\u103a
p319
I30
sV\u103d
p320
I68
sV\u103c
p321
I2
sV\u1040
p322
I1
sV\u107b
p323
I1
ssg37
(dp324
V\u1021
p325
I1
sV\u1000
p326
I3
sg93
I1
sV\u1040
p327
I2
sV\u102d
p328
I4
sV\u102c
p329
I9
sV\u102f
p330
I5
sV\u102e
p331
I2
sV\u1030
p332
I6
sV\u1032
p333
I8
sV\u101a
p334
I6
sV\u101e
p335
I1
ssg38
(dp336
V\u1001
p337
I1
sV\u1000
p338
I1
sV\u1004
p339
I37
sV\u1006
p340
I1
sV\u100a
p341
I1
sV\u1010
p342
I4
sV\u1015
p343
I11
sV\u1014
p344
I2
sV\u1016
p345
I1
sV\u1019
p346
I1
sV\u101b
p347
I4
sV\u101a
p348
I1
sV\u101c
p349
I1
sV\u101e
p350
I1
sg93
I3
sV\u102c
p351
I26
sV\u102e
p352
I1
sV\u1031
p353
I4
sV\u1032
p354
I6
sV\u1038
p355
I41
sV\u103d
p356
I33
sV\u103c
p357
I5
sV\u1090
p358
I1
ssg39
(dp359
V\u1001
p360
I1
sV\u1021
p361
I3
sV\u1025
p362
I2
sg93
I1
sV\u102c
p363
I2
sV\u108f
p364
I1
sV\u1030
p365
I12
sV\u1036
p366
I1
sV\u1039
p367
I58
ssg40
(dp368
V\u1000
p369
I12
sV\u1019
p370
I1
sV\u108a
p371
I7
sV\u1004
p372
I4
sg93
I4
sV\u1088
p373
I1
sV\u104b
p374
I1
sV\u100a
p375
I18
sV\u102d
p376
I42
sV\u102c
p377
I12
sV\u102f
p378
I23
sV\u1031
p379
I1
sV\u1030
p380
I9
sV\u1032
p381
I4
sV\u1015
p382
I1
sV\u1037
p383
I1
sV\u1036
p384
I15
sV\u1039
p385
I1
sV\u1038
p386
I11
sV\u103d
p387
I10
sV\u103c
p388
I8
ssg41
(dp389
V\u1030
p390
I3
sV\u1005
p391
I1
sV\u102c
p392
I2
sV\u102f
p393
I7
sV\u103c
p394
I2
ssg42
(dp395
V\u1021
p396
I1
sV\u1000
p397
I8
sV\u108f
p398
I3
sV\u1005
p399
I4
sV\u1004
p400
I8
sV\u1030
p401
I48
sV\u100a
p402
I38
sV\u102d
p403
I18
sV\u102c
p404
I37
sV\u102f
p405
I1
sV\u102e
p406
I4
sV\u1031
p407
I4
sV\u1010
p408
I10
sV\u1014
p409
I2
sV\u1036
p410
I8
sV\u1019
p411
I4
sV\u1038
p412
I8
sV\u103b
p413
I5
sV\u101c
p414
I4
sV\u103c
p415
I11
sV\u101e
p416
I1
ssg43
(dp417
V\u1001
p418
I14
sV\u1080
p419
I6
sV\u1005
p420
I4
sV\u1004
p421
I3
sV\u1000
p422
I4
sV\u100a
p423
I1
sV\u1011
p424
I5
sV\u1010
p425
I25
sV\u1013
p426
I1
sV\u1015
p427
I13
sV\u1014
p428
I5
sV\u1016
p429
I9
sV\u1019
p430
I13
sV\u101b
p431
I4
sV\u101c
p432
I6
sV\u101e
p433
I7
sV\u1006
p434
I2
sV\u102c
p435
I24
sV\u1031
p436
I37
sV\u1032
p437
I7
sV\u1036
p438
I1
sV\u1038
p439
I2
sV\u103b
p440
I9
sV\u107e
p441
I1
ssg44
(dp442
V\u1039
p443
I6
sV\u1015
p444
I1
sV\u102e
p445
I14
ssg45
(dp446
V\u1021
p447
I1
sV\u1000
p448
I2
sV\u1005
p449
I1
ssg46
(dp450
V\u1000
p451
I12
ssg47
(dp452
V\u1031
p453
I3
sV\u1000
p454
I1
sg93
I3
ssg48
(dp455
V\u101e
p456
I2
ssg49
(dp457
V\u1031
p458
I1
sV\u1019
p459
I1
sV\u101b
p460
I1
sg93
I1
sV\u1000
p461
I1
ssg50
(dp462
V\u103b
p463
I1
sV\u100a
p464
I1
ssg51
(dp465
V\u102c
p466
I1
ssg52
(dp467
V\u1019
p468
I1
sV\u1014
p469
I1
ssg53
(dp470
V\u1019
p471
I1
sV\u1015
p472
I21
ssg54
(dp473
V\u1000
p474
I38
sssS'totalNGram'
p475
I3447
sb.