ccopy_reg
_reconstructor
p0
(c__main__
markovModel
p1
c__builtin__
object
p2
Ntp3
Rp4
(dp5
S'lang'
p6
S'mon'
p7
sS'logSum'
p8
F150.93301885877963
sS'linesAdded'
p9
I181
sS'numSamples'
p10
I4085
sS'ngramLength'
p11
I2
sS'modelFileName'
p12
S'models/MonKoaModel_2_MM_model.save'
p13
sS'detectorType'
p14
S'MARKOV'
p15
sS'probA'
p16
(dp17
V\u1001
p18
I47
sV\u1000
p19
I469
sV\u1003
p20
I1
sV\u1002
p21
I184
sV\u1005
p22
I61
sV\u1004
p23
I380
sV\u1007
p24
I48
sV\u1006
p25
I22
sV\u100b
p26
I7
sV\u100a
p27
I47
sV\u100d
p28
I72
sV\u100c
p29
I6
sV\u100f
p30
I34
sV\u1011
p31
I22
sV\u1010
p32
I343
sV\u1013
p33
I27
sV\u1012
p34
I135
sV\u1015
p35
I292
sV\u1014
p36
I323
sV\u1017
p37
I128
sV\u1016
p38
I29
sV\u1019
p39
I279
sV\u1018
p40
I20
sV\u101b
p41
I158
sV\u101a
p42
I23
sV\u101d
p43
I145
sV\u101c
p44
I128
sV\u101f
p45
I80
sV\u101e
p46
I174
sV\u1021
p47
I147
sV\u1025
p48
I7
sV\u1080
p49
I2
sV\u1028
p50
I1
sV\u103f
p51
I66
sV\u105b
p52
I27
sV\u105a
p53
I1
sV\u105c
p54
I110
sV\u1061
p55
I2
sV\u1065
p56
I3
sV\u1070
p57
I1
sV\u1075
p58
I2
sV\u1076
p59
I3
sV\u1078
p60
I6
sV\u107b
p61
I1
sV\u107c
p62
I6
sV\u107f
p63
I2
sV\u107e
p64
I14
ssS'fileName'
p65
S'testdata/Mon_kaowao.txt'
p66
sS'model'
p67
(dp68
sS'font'
p69
S'monkoa'
p70
sS'probBGivenA'
p71
(dp72
g18
(dp73
V\u1090
p74
I1
sV\u102b
p75
I15
sV\u102d
p76
I2
sV\u102f
p77
I1
sV\u1010
p78
I2
sV\u1014
p79
I1
sV\u1019
p80
I3
sV\u101b
p81
I1
sV\u103a
p82
I11
sV\u103f
p83
I2
sV\u103e
p84
I8
ssg19
(dp85
V\u1010
p86
I9
sV\u1017
p87
I3
sV\u1016
p88
I1
sV\u1019
p89
I5
sV\u101b
p90
I2
sV\u102e
p91
I1
sV\u101d
p92
I6
sV\u109c
p93
I4
sV\u1021
p94
I5
sV 
p95
I2
sV\u109d
p96
I2
sV\u102d
p97
I6
sV\u102c
p98
I75
sV\u102f
p99
I53
sV\u101c
p100
I6
sV\u1031
p101
I18
sV\u1030
p102
I16
sV\u1035
p103
I18
sV\u1036
p104
I4
sV\u1039
p105
I137
sV\u103a
p106
I6
sV\u103c
p107
I21
sV\u103f
p108
I12
sV\u103e
p109
I4
sV\u105c
p110
I46
sV\u105e
p111
I1
sV\u1061
p112
I2
sV\u1060
p113
I3
sV\u1064
p114
I1
ssg20
(dp115
V\u101a
p116
I1
ssg21
(dp117
V\u1000
p118
I16
sV\u1005
p119
I2
sV\u100a
p120
I1
sV\u1010
p121
I7
sV\u1015
p122
I1
sV\u1017
p123
I3
sV\u1019
p124
I12
sV\u101b
p125
I3
sV\u101a
p126
I1
sV\u101c
p127
I3
sV\u1021
p128
I3
sV\u1025
p129
I2
sV\u102b
p130
I6
sV\u102d
p131
I14
sV\u102f
p132
I3
sV\u1031
p133
I17
sV\u1030
p134
I1
sV\u1039
p135
I1
sV\u1038
p136
I2
sV\u103a
p137
I5
sV\u103d
p138
I41
sV\u103c
p139
I24
sV\u105c
p140
I16
ssg22
(dp141
V\u1000
p142
I2
sV\u1065
p143
I1
sg95
I1
sV\u1010
p144
I1
sV\u101d
p145
I1
sV\u102d
p146
I6
sV\u102c
p147
I9
sV\u102f
p148
I7
sV\u103c
p149
I3
sV\u1031
p150
I1
sV\u1030
p151
I1
sV\u1035
p152
I5
sV\u1014
p153
I2
sV\u1038
p154
I2
sV\u1098
p155
I2
sV\u1015
p156
I2
sV\u103d
p157
I7
sV\u105c
p158
I4
sV\u103f
p159
I3
sV\u103e
p160
I1
ssg23
(dp161
V\u1039
p162
I376
sV\u105b
p163
I4
ssg24
(dp164
V\u1000
p165
I4
sV\u103f
p166
I1
sV\u1039
p167
I2
sV\u1010
p168
I3
sV\u102d
p169
I1
sV\u102c
p170
I3
sV\u102f
p171
I3
sV\u1031
p172
I2
sV\u1030
p173
I3
sV\u1015
p174
I3
sV\u1014
p175
I4
sV\u1019
p176
I3
sV\u1098
p177
I2
sV\u101f
p178
I1
sV\u103e
p179
I13
ssg25
(dp180
V\u1000
p181
I3
sV\u1004
p182
I3
sV\u100a
p183
I1
sV\u102d
p184
I1
sV\u102c
p185
I7
sV\u102f
p186
I4
sV\u108f
p187
I1
sV\u1036
p188
I1
sV\u101d
p189
I1
ssg26
(dp190
V\u1039
p191
I4
sV\u102d
p192
I3
ssg27
(dp193
V\u102d
p194
I2
sV\u102c
p195
I9
sV\u1031
p196
I2
sV\u1036
p197
I4
sV\u1039
p198
I2
sV\u1038
p199
I28
ssg28
(dp200
V\u1098
p201
I1
sV\u1033
p202
I62
sV\u102d
p203
I1
sV\u102c
p204
I7
sV\u1004
p205
I1
ssg29
(dp206
V\u102c
p207
I6
ssg30
(dp208
V\u102b
p209
I2
sV\u102c
p210
I12
sV\u102e
p211
I1
sV\u1070
p212
I1
sV\u1036
p213
I15
sV\u1039
p214
I2
sV\u1098
p215
I1
ssg31
(dp216
V\u1014
p217
I1
sV\u1004
p218
I1
sV\u102d
p219
I1
sV\u102c
p220
I1
sV\u1015
p221
I3
sV\u1074
p222
I1
sV\u1036
p223
I6
sV\u101d
p224
I6
sV\u105e
p225
I2
ssg32
(dp226
V\u1000
p227
I4
sV\u1004
p228
I4
sV\u1010
p229
I2
sV\u1014
p230
I6
sV\u1019
p231
I8
sV\u1098
p232
I6
sV\u101b
p233
I3
sV\u101d
p234
I19
sV\u101f
p235
I1
sV\u101e
p236
I5
sg95
I1
sV\u102d
p237
I33
sV\u102c
p238
I10
sV\u102f
p239
I33
sV\u102e
p240
I8
sV\u1030
p241
I7
sV\u1032
p242
I3
sV\u1035
p243
I3
sV\u1036
p244
I29
sV\u1039
p245
I102
sV\u1038
p246
I3
sV\u103d
p247
I1
sV\u103c
p248
I7
sV\u103f
p249
I13
sV\u103e
p250
I1
sV\u105b
p251
I12
sV\u105c
p252
I17
sV\u1072
p253
I1
sV\u1074
p254
I1
ssg33
(dp255
V\u1007
p256
I1
sV\u102d
p257
I1
sV\u102c
p258
I1
sV\u102f
p259
I3
sV\u1090
p260
I1
sV\u1014
p261
I1
sV\u1019
p262
I4
sV\u101b
p263
I3
sV\u101d
p264
I11
sV\u101c
p265
I1
ssg34
(dp266
V\u1000
p267
I10
sV\u1005
p268
I4
sV\u1010
p269
I1
sV\u1012
p270
I9
sV\u1015
p271
I5
sV\u1014
p272
I4
sV\u1098
p273
I6
sV\u101b
p274
I2
sV\u101a
p275
I1
sV\u101d
p276
I1
sV\u101e
p277
I1
sV\u102b
p278
I7
sV\u102d
p279
I6
sV\u102c
p280
I1
sV\u102f
p281
I15
sV\u1031
p282
I4
sV\u1036
p283
I5
sV\u1038
p284
I12
sV\u103d
p285
I32
sV\u103c
p286
I1
sV\u103f
p287
I4
sV\u103e
p288
I1
sV\u1076
p289
I3
ssg35
(dp290
V\u1001
p291
I1
sV\u1000
p292
I2
sV\u1004
p293
I11
sV\u1086
p294
I1
sV\u100b
p295
I1
sV\u100a
p296
I1
sV\u1010
p297
I13
sV\u1014
p298
I4
sV\u1019
p299
I1
sV\u101b
p300
I4
sV\u101a
p301
I1
sV\u109c
p302
I32
sV\u101e
p303
I1
sV\u1020
p304
I1
sV\u102b
p305
I12
sV\u102d
p306
I4
sV\u102c
p307
I2
sV\u102f
p308
I7
sV\u101c
p309
I6
sV\u1031
p310
I31
sV\u1032
p311
I11
sV\u1036
p312
I19
sV\u1039
p313
I68
sV\u1038
p314
I2
sV\u103a
p315
I3
sV\u103d
p316
I2
sV\u103c
p317
I9
sV\u103f
p318
I7
sV\u103e
p319
I6
sV\u109b
p320
I4
sV\u105b
p321
I1
sV\u105a
p322
I1
sV\u105c
p323
I6
sV\u1090
p324
I6
sV\u1072
p325
I8
sV\u1078
p326
I1
sV\u1099
p327
I2
ssg36
(dp328
V\u1000
p329
I3
sV\u1004
p330
I2
sg95
I1
sV\u102d
p331
I1
sV\u102c
p332
I24
sV\u1032
p333
I2
sV\u1015
p334
I1
sV\u1039
p335
I278
sV\u101d
p336
I10
sV\u101c
p337
I1
ssg37
(dp338
V\u1000
p339
I1
sV\u103a
p340
I4
sV\u1004
p341
I1
sV\u1072
p342
I4
sV\u100a
p343
I2
sV\u102d
p344
I1
sV\u102c
p345
I55
sV\u102f
p346
I10
sV\u103c
p347
I1
sV\u1010
p348
I5
sV\u1012
p349
I14
sV\u1035
p350
I1
sV\u101f
p351
I2
sV\u1036
p352
I1
sV\u1019
p353
I1
sV\u105b
p354
I2
sV\u101e
p355
I2
sV\u103d
p356
I4
sV\u105c
p357
I3
sV\u103f
p358
I9
sV\u103e
p359
I5
ssg38
(dp360
V\u1000
p361
I6
sV\u102c
p362
I1
sV\u102f
p363
I2
sV\u1031
p364
I1
sV\u1030
p365
I2
sV\u1014
p366
I3
sV\u1036
p367
I4
sV\u103a
p368
I10
ssg39
(dp369
V\u1001
p370
I1
sV\u1000
p371
I2
sV\u1002
p372
I1
sV\u1005
p373
I1
sV\u1004
p374
I1
sV\u1007
p375
I1
sV\u1006
p376
I1
sV\u100a
p377
I2
sV\u100d
p378
I1
sV\u1010
p379
I7
sV\u1012
p380
I4
sV\u1014
p381
I79
sV\u1017
p382
I1
sV\u1019
p383
I1
sV\u1098
p384
I3
sV\u101b
p385
I10
sV\u101d
p386
I2
sV\u101c
p387
I6
sV\u101f
p388
I3
sV\u101e
p389
I1
sg95
I1
sV\u102d
p390
I10
sV\u102c
p391
I27
sV\u102f
p392
I3
sV\u1031
p393
I5
sV\u1036
p394
I15
sV\u1039
p395
I18
sV\u1038
p396
I3
sV\u103a
p397
I5
sV\u103d
p398
I3
sV\u103c
p399
I16
sV\u103e
p400
I10
sV\u105b
p401
I1
sV\u105c
p402
I16
sV\u1062
p403
I10
sV\u1078
p404
I2
sV\u107c
p405
I6
ssg40
(dp406
V\u1015
p407
I1
sV\u101d
p408
I1
sV\u102c
p409
I15
sV\u102f
p410
I1
sV\u1004
p411
I2
ssg41
(dp412
V\u1002
p413
I3
sV\u1004
p414
I34
sV\u1086
p415
I1
sV\u100f
p416
I1
sV\u1010
p417
I1
sV\u1015
p418
I5
sV\u1014
p419
I1
sV\u1017
p420
I1
sV\u1019
p421
I4
sV\u1098
p422
I4
sV\u101d
p423
I3
sV\u101e
p424
I2
sV\u1021
p425
I1
sg95
I2
sV\u102d
p426
I12
sV\u102c
p427
I41
sV\u102f
p428
I1
sV\u102e
p429
I1
sV\u1031
p430
I1
sV\u1035
p431
I5
sV\u1036
p432
I1
sV\u1039
p433
I2
sV\u1038
p434
I7
sV\u103d
p435
I1
sV\u104b
p436
I18
sV\u104a
p437
I1
sV\u108f
p438
I2
sV\u107f
p439
I2
ssg42
(dp440
V\u1000
p441
I1
sV\u1088
p442
I3
sV\u101d
p443
I1
sV\u102d
p444
I1
sV\u102f
p445
I1
sV\u1032
p446
I1
sV\u1036
p447
I1
sV\u1038
p448
I1
sV\u103a
p449
I6
sV\u103d
p450
I5
sV\u103f
p451
I2
ssg43
(dp452
V\u1000
p453
I1
sV\u1002
p454
I1
sV\u1010
p455
I1
sV\u1004
p456
I12
sV\u1050
p457
I1
sV\u102b
p458
I8
sV\u102d
p459
I4
sV\u102f
p460
I2
sV\u1011
p461
I1
sV\u1019
p462
I4
sV\u1032
p463
I1
sV\u1035
p464
I18
sV\u1014
p465
I3
sV\u1039
p466
I81
sV\u1098
p467
I1
sV\u103d
p468
I2
sV\u103c
p469
I3
sV\u100f
p470
I1
ssg44
(dp471
V\u1000
p472
I5
sV\u1085
p473
I1
sV\u1004
p474
I11
sV\u100a
p475
I4
sV\u1010
p476
I3
sV\u1015
p477
I1
sV\u1019
p478
I4
sV\u101d
p479
I15
sV\u101c
p480
I5
sV\u101f
p481
I1
sV\u102d
p482
I26
sV\u102c
p483
I8
sV\u102f
p484
I23
sV\u102e
p485
I1
sV\u1031
p486
I1
sV\u1032
p487
I1
sV\u1035
p488
I3
sV\u1036
p489
I3
sV\u103a
p490
I1
sV\u103d
p491
I1
sV\u103c
p492
I2
sV\u103f
p493
I2
sV\u105b
p494
I3
sV\u1072
p495
I1
sV\u1075
p496
I1
sV\u1078
p497
I1
ssg45
(dp498
V\u1004
p499
I5
sV\u102d
p500
I2
sV\u102c
p501
I10
sV\u102f
p502
I14
sV\u1010
p503
I1
sV\u1036
p504
I4
sV\u1039
p505
I26
sV\u103c
p506
I18
ssg46
(dp507
V\u1000
p508
I5
sV\u1004
p509
I4
sV\u1007
p510
I4
sV\u100f
p511
I1
sV\u1010
p512
I6
sV\u1015
p513
I1
sV\u1014
p514
I11
sV\u1098
p515
I15
sV\u1019
p516
I1
sV\u1018
p517
I2
sV\u101d
p518
I2
sV\u102d
p519
I10
sV\u102c
p520
I22
sV\u102f
p521
I11
sV\u102e
p522
I3
sV\u1031
p523
I1
sV\u1033
p524
I2
sV\u1036
p525
I8
sV\u103c
p526
I27
sV\u103f
p527
I9
sV\u103e
p528
I10
sV\u105b
p529
I4
sV\u105c
p530
I3
sV\u1060
p531
I1
sV\u1062
p532
I8
sV\u1078
p533
I2
sV\u107b
p534
I1
ssg47
(dp535
V\u1001
p536
I3
sV\u1080
p537
I1
sV\u1005
p538
I3
sV\u1010
p539
I3
sV\u1013
p540
I1
sV\u1012
p541
I1
sV\u1015
p542
I9
sV\u1014
p543
I3
sV\u1019
p544
I1
sV\u101b
p545
I10
sV\u101d
p546
I4
sV\u101c
p547
I6
sV\u101e
p548
I5
sV\u102d
p549
I6
sV\u102c
p550
I18
sV\u102f
p551
I11
sV\u1031
p552
I20
sV\u1032
p553
I2
sV\u1035
p554
I1
sV\u1036
p555
I23
sV\u1039
p556
I11
sV\u1038
p557
I2
sV\u1065
p558
I2
sV\u107e
p559
I1
ssg48
(dp560
V\u1000
p561
I3
sV\u1033
p562
I2
sV\u1034
p563
I2
ssg49
(dp564
V\u1000
p565
I1
sV\u101e
p566
I1
ssg50
(dp567
V\u1000
p568
I1
ssg51
(dp569
V\u1000
p570
I1
sV\u1004
p571
I2
sV\u102d
p572
I24
sV\u102c
p573
I18
sV\u1010
p574
I8
sV\u1033
p575
I3
sV\u1036
p576
I5
sV\u1098
p577
I2
sV\u101d
p578
I1
sV\u101f
p579
I2
ssg52
(dp580
V\u102d
p581
I4
sV\u102c
p582
I2
sV\u102e
p583
I2
sV\u1010
p584
I1
sV\u1033
p585
I3
sV\u1032
p586
I12
sV\u1036
p587
I1
sV\u1019
p588
I1
sV\u1038
p589
I1
ssg53
(dp590
V\u1031
p591
I1
ssg54
(dp592
V\u1021
p593
I5
sg95
I5
sV\u1002
p594
I3
sV\u1004
p595
I2
sV\u1000
p596
I3
sV\u102d
p597
I10
sV\u102c
p598
I29
sV\u1010
p599
I3
sV\u1033
p600
I21
sV\u1012
p601
I3
sV\u1015
p602
I1
sV\u1014
p603
I5
sV\u1036
p604
I9
sV\u1098
p605
I5
sV\u1038
p606
I6
ssg55
(dp607
V)
p608
I1
sV\u1000
p609
I1
ssg56
(dp610
V\u1015
p611
I1
sV\u102c
p612
I2
ssg57
(dp613
V\u1018
p614
I1
ssg58
(dp615
g95
I1
sV\u102b
p616
I1
ssg59
(dp617
V\u1018
p618
I2
sV\u102d
p619
I1
ssg60
(dp620
V\u1021
p621
I1
sV\u1000
p622
I1
sV\u1015
p623
I1
sV\u100f
p624
I2
sV\u1010
p625
I1
ssg61
(dp626
V\u1004
p627
I1
ssg62
(dp628
V\u1031
p629
I1
sV\u1010
p630
I4
sV\u1013
p631
I1
ssg63
(dp632
V\u1007
p633
I2
ssg64
(dp634
V\u1010
p635
I3
sV\u101e
p636
I8
sV\u1000
p637
I3
sssS'totalNGram'
p638
I4085
sb.