ccopy_reg
_reconstructor
p0
(c__main__
markovModel
p1
c__builtin__
object
p2
Ntp3
Rp4
(dp5
S'lang'
p6
S'shan'
p7
sS'logSum'
p8
F106.11696029468357
sS'linesAdded'
p9
I112
sS'numSamples'
p10
I7092
sS'ngramLength'
p11
I2
sS'modelFileName'
p12
S'models/shanUnicode_2_MM_model.save'
p13
sS'detectorType'
p14
S'MARKOV'
p15
sS'probA'
p16
(dp17
V\u1081
p18
I240
sV\u1022
p19
I213
sV\u1004
p20
I808
sV\u107b
p21
I9
sV\u101a
p22
I178
sV\u1075
p23
I679
sV\u107a
p24
I51
sV\u107d
p25
I108
sV\u101c
p26
I471
sV\u1011
p27
I76
sV\u1010
p28
I606
sV\u1015
p29
I528
sV\u1076
p30
I207
sV\u1019
p31
I679
sV\u1078
p32
I279
sV\u101b
p33
I7
sV\u107e
p34
I41
sV\u101d
p35
I582
sV\u107c
p36
I1134
sV\u107f
p37
I3
sV\u101e
p38
I193
ssS'fileName'
p39
S'testdata/shanUnicode.txt'
p40
sS'model'
p41
(dp42
sS'font'
p43
S'unicode'
p44
sS'probBGivenA'
p45
(dp46
g18
(dp47
V\u1083
p48
I5
sV\u1082
p49
I18
sV\u1085
p50
I12
sV\u1004
p51
I2
sV\u1086
p52
I1
sV\u103d
p53
I19
sV\u102d
p54
I14
sV\u102f
p55
I1
sV\u1031
p56
I2
sV\u1030
p57
I72
sV\u1062
p58
I13
sV\u1035
p59
I43
sV\u1015
p60
I11
sV\u101d
p61
I17
sV\u107c
p62
I9
sV\u1084
p63
I1
ssg19
(dp64
V\u1083
p65
I3
sV\u1062
p66
I4
sV\u1085
p67
I1
sV\u1004
p68
I4
sV\u101d
p69
I21
sV\u102d
p70
I9
sV\u102f
p71
I4
sV\u1031
p72
I4
sV\u1030
p73
I17
sV\u1035
p74
I2
sV\u1019
p75
I53
sV\u103d
p76
I45
sV\u107c
p77
I46
ssg20
(dp78
V\u1062
p79
I9
sV\u1084
p80
I1
sV\u102d
p81
I8
sV\u102f
p82
I2
sV\u1019
p83
I10
sV\u103a
p84
I772
sV\u101d
p85
I6
ssg21
(dp86
V\u101b
p87
I2
sV\u102e
p88
I7
ssg22
(dp89
V\u1083
p90
I5
sV\u1062
p91
I14
sV\u1085
p92
I1
sV\u1004
p93
I9
sV\u103d
p94
I15
sV\u102d
p95
I63
sV\u102f
p96
I5
sV\u1030
p97
I22
sV\u1082
p98
I2
sV\u1035
p99
I14
sV\u1019
p100
I3
sV\u101d
p101
I25
ssg23
(dp102
V\u1083
p103
I21
sV\u1082
p104
I33
sV\u1085
p105
I4
sV\u1084
p106
I3
sV\u1086
p107
I1
sV\u1010
p108
I8
sV\u1015
p109
I17
sV\u1019
p110
I9
sV\u101d
p111
I2
sV\u1004
p112
I1
sV\u102d
p113
I22
sV\u102f
p114
I49
sV\u102e
p115
I2
sV\u1031
p116
I81
sV\u1030
p117
I93
sV\u1035
p118
I10
sV\u103b
p119
I13
sV\u103a
p120
I195
sV\u103d
p121
I21
sV\u1062
p122
I61
sV\u107d
p123
I1
sV\u107c
p124
I32
ssg24
(dp125
V\u1062
p126
I1
sV\u1083
p127
I4
sV\u103a
p128
I46
ssg25
(dp129
V\u1083
p130
I6
sV\u1062
p131
I9
sV\u1085
p132
I1
sV\u1084
p133
I1
sV\u102d
p134
I17
sV\u102f
p135
I1
sV\u102e
p136
I1
sV\u1031
p137
I4
sV\u1030
p138
I35
sV\u1035
p139
I14
sV\u1075
p140
I1
sV\u103d
p141
I18
ssg26
(dp142
V\u1083
p143
I7
sV\u1062
p144
I77
sV\u1085
p145
I11
sV\u1084
p146
I38
sV\u1086
p147
I70
sV\u102d
p148
I33
sV\u102f
p149
I19
sV\u102e
p150
I12
sV\u1031
p151
I2
sV\u1030
p152
I91
sV\u1082
p153
I5
sV\u1035
p154
I15
sV\u1010
p155
I1
sV\u1075
p156
I1
sV\u103b
p157
I1
sV\u103a
p158
I2
sV\u103d
p159
I85
sV\u1004
p160
I1
ssg27
(dp161
V\u1083
p162
I1
sV\u1062
p163
I6
sV\u1085
p164
I10
sV\u1030
p165
I10
sV\u1086
p166
I3
sV\u102d
p167
I9
sV\u102f
p168
I23
sV\u1031
p169
I1
sV\u1010
p170
I2
sV\u1035
p171
I2
sV\u1019
p172
I3
sV\u103d
p173
I6
ssg28
(dp174
V\u1083
p175
I29
sV\u1085
p176
I34
sV\u1084
p177
I14
sV\u1086
p178
I34
sV\u1011
p179
I1
sV\u1010
p180
I15
sV\u1015
p181
I5
sV\u101b
p182
I1
sV\u101c
p183
I1
sV\u1004
p184
I14
sV\u1022
p185
I1
sV\u102d
p186
I21
sV\u102f
p187
I13
sV\u102e
p188
I72
sV\u1031
p189
I47
sV\u1030
p190
I49
sV\u1035
p191
I5
sV\u103a
p192
I183
sV\u103d
p193
I15
sV\u103c
p194
I16
sV\u1062
p195
I29
sV\u1075
p196
I2
sV\u107c
p197
I5
ssg29
(dp198
V\u1083
p199
I30
sV\u1062
p200
I99
sV\u1085
p201
I19
sV\u1015
p202
I4
sV\u1086
p203
I11
sV\u101d
p204
I5
sV\u107a
p205
I1
sV\u102d
p206
I50
sV\u102f
p207
I3
sV\u102e
p208
I23
sV\u1031
p209
I27
sV\u1030
p210
I26
sV\u1035
p211
I57
sV\u1010
p212
I2
sV\u1075
p213
I2
sV\u103b
p214
I9
sV\u103a
p215
I102
sV\u103d
p216
I27
sV\u107c
p217
I31
ssg30
(dp218
V\u107b
p219
I7
sV\u1083
p220
I9
sV\u1062
p221
I15
sV\u1085
p222
I3
sV\u1084
p223
I5
sV\u1086
p224
I1
sV\u103d
p225
I16
sV\u102d
p226
I33
sV\u102f
p227
I2
sV\u102e
p228
I2
sV\u1031
p229
I13
sV\u1030
p230
I8
sV\u1082
p231
I5
sV\u1035
p232
I2
sV\u103b
p233
I2
sV\u1019
p234
I2
sV\u1015
p235
I2
sV\u101b
p236
I1
sV\u101d
p237
I76
sV\u1075
p238
I3
ssg31
(dp239
V\u1083
p240
I39
sV\u1062
p241
I35
sV\u1085
p242
I1
sV\u1084
p243
I3
sV\u1010
p244
I3
sV\u101d
p245
I1
sV\u1086
p246
I1
sV\u102d
p247
I113
sV\u102f
p248
I13
sV\u102e
p249
I40
sV\u1031
p250
I1
sV\u1030
p251
I13
sV\u1082
p252
I4
sV\u1035
p253
I1
sV\u1075
p254
I1
sV\u103a
p255
I364
sV\u103d
p256
I17
sV\u107c
p257
I29
ssg32
(dp258
V\u1083
p259
I4
sV\u1062
p260
I23
sV\u1085
p261
I6
sV\u1004
p262
I4
sV\u101d
p263
I9
sV\u102d
p264
I74
sV\u102f
p265
I73
sV\u102e
p266
I4
sV\u1031
p267
I2
sV\u1010
p268
I13
sV\u1082
p269
I7
sV\u1035
p270
I16
sV\u1019
p271
I4
sV\u1075
p272
I1
sV\u103d
p273
I21
sV\u107c
p274
I17
sV\u1084
p275
I1
ssg33
(dp276
V\u1031
p277
I2
sV\u102d
p278
I1
sV\u1084
p279
I2
sV\u1076
p280
I2
ssg34
(dp281
V\u1083
p282
I9
sV\u1062
p283
I24
sV\u1085
p284
I2
sV\u1084
p285
I1
sV\u1086
p286
I1
sV\u102d
p287
I3
sV\u1035
p288
I1
ssg35
(dp289
V\u1083
p290
I68
sV\u1062
p291
I12
sV\u1085
p292
I2
sV\u1086
p293
I24
sV\u101a
p294
I1
sV\u102d
p295
I2
sV\u1030
p296
I2
sV\u1082
p297
I2
sV\u1035
p298
I4
sV\u1019
p299
I1
sV\u103a
p300
I433
sV\u107c
p301
I30
sV\u101e
p302
I1
ssg36
(dp303
V\u1083
p304
I14
sV\u1062
p305
I66
sV\u1085
p306
I1
sV\u1004
p307
I27
sV\u1086
p308
I130
sV\u102d
p309
I26
sV\u102f
p310
I9
sV\u102e
p311
I6
sV\u1031
p312
I8
sV\u1030
p313
I1
sV\u1082
p314
I36
sV\u1019
p315
I20
sV\u103a
p316
I722
sV\u103d
p317
I14
sV\u107c
p318
I48
sV\u1084
p319
I6
ssg37
(dp320
V\u107c
p321
I2
sV\u102f
p322
I1
ssg38
(dp323
V\u1083
p324
I1
sV\u1062
p325
I31
sV\u1085
p326
I4
sV\u1004
p327
I5
sV\u1010
p328
I1
sV\u107d
p329
I6
sV\u103d
p330
I6
sV\u102d
p331
I33
sV\u102f
p332
I20
sV\u102e
p333
I2
sV\u1031
p334
I41
sV\u1030
p335
I6
sV\u1082
p336
I9
sV\u1035
p337
I8
sV\u1019
p338
I13
sV\u103b
p339
I2
sV\u103a
p340
I2
sV\u101d
p341
I1
sV\u101c
p342
I2
sssS'totalNGram'
p343
I7092
sb.