ccopy_reg
_reconstructor
p0
(c__main__
ngramModel
p1
c__builtin__
object
p2
Ntp3
Rp4
(dp5
S'lang'
p6
S'burmese'
p7
sS'logSum'
p8
F1235.0130134041794
sS'linesAdded'
p9
I81
sS'numSamples'
p10
I11193
sS'ngramLength'
p11
I2
sS'modelFileName'
p12
S'models/UnicodeBurmese_Model_2_model.save'
p13
sS'detectorType'
p14
S'NGRAM'
p15
sS'fileName'
p16
S'testdata/burmeseUnicode.txt'
p17
sS'model'
p18
(dp19
(V 
p20
V\u1043
p21
tp22
I5
s(V\u102b
p23
V\u1004
p24
tp25
I8
s(V\u101c
p26
V\u101e
p27
tp28
I4
s(V\u102d
p29
g20
tp30
I5
s(V\u103f
p31
V\u1014
p32
tp33
I1
s(V\u101c
p34
V\u1012
p35
tp36
I1
s(V\u102d
p37
V\u101b
p38
tp39
I3
s(V\u1016
p40
V\u1031
p41
tp42
I1
s(V\u101c
p43
V\u102f
p44
tp45
I19
s(V\u102b
p46
V\u1015
p47
tp48
I5
s(V\u1031
p49
V\u1015
p50
tp51
I4
s(V\u100a
p52
V\u102e
p53
tp54
I11
s(V\u103b
p55
V\u103e
p56
tp57
I3
s(V\u1037
p58
V\u1016
p59
tp60
I1
s(V\u101b
p61
V\u1015
p62
tp63
I23
s(VA
p64
VN
p65
tp66
I3
s(V\u1021
p67
V\u1015
p68
tp69
I11
s(g20
V\u101b
p70
tp71
I68
s(V\u103e
p72
V\u102f
p73
tp74
I26
s(V\u1031
p75
g20
tp76
I51
s(V\u1043
p77
V\u1001
p78
tp79
I1
s(g20
V\u1041
p80
tp81
I8
s(g20
V\u100a
p82
tp83
I17
s(V\u1019
p84
V\u103a
p85
tp86
I22
s(V\u102d
p87
V\u1015
p88
tp89
I7
s(V\u1021
p90
V\u1014
p91
tp92
I19
s(V\u1001
p93
V\u103b
p94
tp95
I30
s(V\u1014
p96
V\u1001
p97
tp98
I1
s(V\u103e
p99
V\u1004
p100
tp101
I1
s(V\u1021
p102
V\u1026
p103
tp104
I2
s(V\u1019
p105
V\u1000
p106
tp107
I1
s(V\u102c
p108
V\u1006
p109
tp110
I3
s(V\u103e
p111
V\u1036
p112
tp113
I1
s(V\u1018
p114
V\u1014
p115
tp116
I2
s(V\u1015
p117
V\u103a
p118
tp119
I62
s(V\u103e
p120
g20
tp121
I4
s(V\u103b
p122
V\u1014
p123
tp124
I2
s(V\u103a
p125
V\u1012
p126
tp127
I8
s(V\u1015
p128
V\u102b
p129
tp130
I105
s(V\u101e
p131
V\u102c
p132
tp133
I22
s(V\u1006
p134
V\u1031
p135
tp136
I14
s(V\u1001
p137
V\u101e
p138
tp139
I1
s(V\u102d
p140
V\u101c
p141
tp142
I2
s(V\u101b
p143
V\u100a
p144
tp145
I2
s(V\u1019
p146
V\u103e
p147
tp148
I80
s(Vd
p149
g20
tp150
I1
s(V\u1031
p151
V\u101e
p152
tp153
I10
s(V\u1016
p154
V\u1014
p155
tp156
I2
s(VP
p157
g20
tp158
I3
s(V\u1006
p159
V\u1032
p160
tp161
I1
s(V\u1005
p162
V\u1039
p163
tp164
I5
s(V\u1010
p165
V\u102f
p166
tp167
I8
s(V\u1000
p168
g20
tp169
I66
s(V\u102f
p170
V\u1010
p171
tp172
I24
s(V\u1038
p173
V\u1004
p174
tp175
I1
s(V\u103a
p176
V\u1014
p177
tp178
I46
s(V\u102c
p179
V\u1038
p180
tp181
I129
s(V\u1005
p182
V\u1005
p183
tp184
I6
s(V\u1030
p185
V\u1015
p186
tp187
I3
s(V\u102d
p188
V\u1011
p189
tp190
I1
s(V\u101e
p191
V\u1001
p192
tp193
I1
s(V\u102c
p194
V\u1014
p195
tp196
I8
s(V\u1021
p197
V\u1019
p198
tp199
I39
s(V\u103c
p200
V\u1032
p201
tp202
I1
s(V\u100d
p203
V\u102c
p204
tp205
I1
s(V\u1019
p206
V\u1031
p207
tp208
I23
s(V\u1017
p209
V\u102f
p210
tp211
I1
s(V\u1005
p212
V\u103b
p213
tp214
I4
s(V\u103b
p215
V\u1009
p216
tp217
I1
s(V\u1030
p218
V\u1038
p219
tp220
I13
s(V\u1010
p221
V\u102d
p222
tp223
I49
s(V\u1011
p224
V\u102f
p225
tp226
I4
s(V\u102c
p227
V\u1015
p228
tp229
I24
s(V\u100c
p230
V\u102c
p231
tp232
I1
s(V\u103b
p233
V\u102e
p234
tp235
I1
s(V\u102f
p236
V\u101d
p237
tp238
I1
s(V\u102e
p239
V\u1018
p240
tp241
I1
s(V\u1010
p242
V\u1001
p243
tp244
I1
s(V\u1032
p245
V\u1010
p246
tp247
I5
s(V\u102d
p248
V\u1018
p249
tp250
I3
s(V\u1031
p251
V\u101b
p252
tp253
I24
s(V\u101b
p254
V\u1031
p255
tp256
I57
s(V\u1007
p257
V\u1030
p258
tp259
I1
s(V\u1019
p260
V\u1014
p261
tp262
I2
s(V\u102b
p263
V\u101d
p264
tp265
I2
s(V\u1011
p266
V\u101b
p267
tp268
I7
s(V\u1036
p269
V\u1004
p270
tp271
I1
s(V\u1021
p272
V\u101b
p273
tp274
I16
s(V\u1002
p275
V\u102b
p276
tp277
I1
s(V\u1049
p278
V\u1014
p279
tp280
I1
s(V\u1041
p281
V\u1046
p282
tp283
I1
s(V\u1021
p284
V\u102d
p285
tp286
I8
s(g20
V\u1013
p287
tp288
I2
s(V\u1011
p289
V\u1032
p290
tp291
I13
s(V\u102f
p292
V\u1014
p293
tp294
I20
s(V\u1009
p295
V\u103a
p296
tp297
I12
s(V\u102e
p298
V\u1011
p299
tp300
I2
s(V\u103c
p301
V\u1004
p302
tp303
I15
s(V\u1015
p304
V\u1031
p305
tp306
I19
s(V\u103a
p307
V\u1021
p308
tp309
I37
s(g20
V\u1002
p310
tp311
I3
s(V\u1032
p312
V\u1012
p313
tp314
I2
s(VO
p315
Vr
p316
tp317
I1
s(V\u1021
p318
V\u102c
p319
tp320
I6
s(V\u1011
p321
V\u1031
p322
tp323
I11
s(V\u103c
p324
g20
tp325
I1
s(g20
V\u1048
p326
tp327
I1
s(g20
V\u1026
p328
tp329
I9
s(V\u103c
p330
V\u1005
p331
tp332
I28
s(V\u1014
p333
V\u102c
p334
tp335
I10
s(VS
p336
g20
tp337
I2
s(V\u1038
p338
V\u1016
p339
tp340
I16
s(V\u1038
p341
V\u104b
p342
tp343
I2
s(V\u1018
p344
V\u101c
p345
tp346
I1
s(V\u100a
p347
V\u1005
p348
tp349
I5
s(V\u1021
p350
V\u100a
p351
tp352
I2
s(g20
V\u1011
p353
tp354
I30
s(V\u1000
p355
V\u103a
p356
tp357
I190
s(V\u1038
p358
V\u1001
p359
tp360
I23
s(V\u1006
p361
V\u1004
p362
tp363
I4
s(V\u1001
p364
V\u1004
p365
tp366
I1
s(V\u102f
p367
V\u1021
p368
tp369
I7
s(V\u101e
p370
V\u1014
p371
tp372
I4
s(g20
V\u1000
p373
tp374
I75
s(V\u1032
p375
V\u1014
p376
tp377
I2
s(V\u102d
p378
V\u1014
p379
tp380
I21
s(V\u101c
p381
V\u103d
p382
tp383
I5
s(V\u1019
p384
V\u1006
p385
tp386
I2
s(V\u103e
p387
V\u1005
p388
tp389
I11
s(V\u1031
p390
V\u101f
p391
tp392
I3
s(V\u1005
p393
V\u1010
p394
tp395
I8
s(V\u1005
p396
V\u1036
p397
tp398
I1
s(V\u1031
p399
V\u1016
p400
tp401
I3
s(V\u1011
p402
V\u103d
p403
tp404
I4
s(V\u101b
p405
V\u1004
p406
tp407
I11
s(V\u1031
p408
V\u1001
p409
tp410
I2
s(V\u101d
p411
g20
tp412
I2
s(V\u1036
p413
V\u1000
p414
tp415
I3
s(V\u1041
p416
V\u1043
p417
tp418
I2
s(V\u1016
p419
V\u101b
p420
tp421
I3
s(V\u102f
p422
V\u1018
p423
tp424
I3
s(V\u1010
p425
V\u1036
p426
tp427
I2
s(V\u1038
p428
V\u1007
p429
tp430
I1
s(V\u101e
p431
V\u102d
p432
tp433
I15
s(V\u1025
p434
V\u101b
p435
tp436
I1
s(Vi
p437
g316
tp438
I1
s(V\u1000
p439
V\u101c
p440
tp441
I7
s(V\u1004
p442
V\u1037
p443
tp444
I11
s(V\u1044
p445
V\u1040
p446
tp447
I1
s(V\u103c
p448
V\u102e
p449
tp450
I44
s(V\u1004
p451
V\u103c
p452
tp453
I1
s(V\u102c
p454
V\u101e
p455
tp456
I6
s(V\u1014
p457
V\u101a
p458
tp459
I10
s(V\u1039
p460
V\u1010
p461
tp462
I2
s(V\u1030
p463
V\u101c
p464
tp465
I2
s(V\u1030
p466
V\u1021
p467
tp468
I2
s(V\u1010
p469
V\u100a
p470
tp471
I4
s(V\u1038
p472
V\u101a
p473
tp474
I12
s(V\u1018
p475
V\u102f
p476
tp477
I2
s(V\u101f
p478
V\u1031
p479
tp480
I12
s(V\u103c
p481
V\u102f
p482
tp483
I6
s(V\u1000
p484
V\u1021
p485
tp486
I1
s(V\u103d
p487
V\u1004
p488
tp489
I26
s(V\u102e
p490
V\u1016
p491
tp492
I1
s(V\u1038
p493
V\u1005
p494
tp495
I22
s(V(
p496
V\u1043
p497
tp498
I1
s(V\u102c
p499
V\u1012
p500
tp501
I2
s(V\u1000
p502
V\u1005
p503
tp504
I1
s(V\u102e
p505
g20
tp506
I31
s(g316
Vc
p507
tp508
I1
s(V\u101a
p509
g20
tp510
I1
s(V\u102d
p511
V\u1010
p512
tp513
I20
s(V\u100a
p514
V\u103a
p515
tp516
I73
s(V\u1045
p517
g20
tp518
I3
s(V\u103b
p519
V\u1019
p520
tp521
I1
s(g20
V\u1042
p522
tp523
I6
s(V\u1019
p524
V\u101c
p525
tp526
I1
s(V\u1031
p527
V\u1005
p528
tp529
I6
s(V\u102b
p530
g20
tp531
I5
s(V\u1021
p532
V\u1013
p533
tp534
I1
s(V\u103a
p535
V\u1005
p536
tp537
I18
s(V\u1036
p538
V\u101b
p539
tp540
I11
s(V\u101d
p541
V\u102d
p542
tp543
I1
s(V\u1037
p544
V\u1001
p545
tp546
I9
s(V\u102f
p547
V\u101c
p548
tp549
I17
s(V\u1011
p550
V\u1030
p551
tp552
I2
s(V\u102c
p553
V\u1037
p554
tp555
I13
s(V\u102e
p556
V\u1019
p557
tp558
I12
s(V\u103a
p559
V\u1039
p560
tp561
I8
s(g20
V\u101a
p562
tp563
I8
s(V\u1002
p564
V\u1014
p565
tp566
I2
s(V\u1039
p567
V\u1002
p568
tp569
I12
s(V\u102d
p570
V\u1005
p571
tp572
I3
s(V\u1039
p573
V\u100d
p574
tp575
I1
s(V\u1037
p576
V\u1000
p577
tp578
I17
s(V\u1036
p579
V\u1005
p580
tp581
I1
s(V\u1038
p582
V\u101e
p583
tp584
I36
s(V\u102c
p585
V\u101b
p586
tp587
I11
s(V\u101e
p588
V\u1030
p589
tp590
I38
s(V\u1036
p591
V\u101d
p592
tp593
I1
s(V\u1019
p594
V\u1039
p595
tp596
I8
s(V\u103d
p597
V\u1000
p598
tp599
I14
s(V\u1005
p600
V\u100a
p601
tp602
I11
s(V\u1032
p603
V\u1001
p604
tp605
I3
s(V\u1037
p606
V\u000a
p607
tp608
I1
s(V\u103a
p609
V\u000a
p610
tp611
I1
s(V\u1015
p612
V\u103b
p613
tp614
I2
s(V\u101e
p615
V\u101c
p616
tp617
I3
s(g20
V\u1018
p618
tp619
I11
s(V\u101b
p620
g20
tp621
I10
s(V\u1032
p622
V\u101c
p623
tp624
I2
s(V\u1031
p625
V\u101c
p626
tp627
I4
s(g20
V\u1019
p628
tp629
I44
s(V\u100a
p630
g20
tp631
I1
s(V\u103b
p632
V\u1031
p633
tp634
I8
s(V\u1040
p635
V\u1041
p636
tp637
I2
s(V\u1036
p638
V\u1018
p639
tp640
I1
s(V\u1041
p641
V\u1040
p642
tp643
I3
s(V\u1018
p644
V\u1031
p645
tp646
I10
s(V\u103a
p647
V\u1000
p648
tp649
I64
s(V\u1000
p650
V\u103b
p651
tp652
I15
s(V\u1000
p653
V\u1030
p654
tp655
I2
s(V\u103c
p656
V\u100a
p657
tp658
I22
s(V\u1037
p659
V\u1005
p660
tp661
I1
s(V\u102f
p662
g20
tp663
I71
s(V\u103d
p664
V\u1015
p665
tp666
I1
s(g20
V\u1015
p667
tp668
I100
s(V\u101e
p669
V\u1015
p670
tp671
I2
s(V\u1004
p672
V\u1036
p673
tp674
I23
s(V\u102f
p675
V\u1036
p676
tp677
I40
s(V\u1010
p678
V\u102e
p679
tp680
I30
s(V\u101b
p681
V\u102e
p682
tp683
I25
s(V\u1000
p684
V\u1014
p685
tp686
I18
s(V\u103d
p687
V\u103e
p688
tp689
I20
s(V\u1019
p690
V\u1011
p691
tp692
I1
s(V\u1013
p693
V\u102d
p694
tp695
I1
s(VM
p696
Va
p697
tp698
I1
s(V\u1036
p699
V\u1037
p700
tp701
I3
s(V\u1017
p702
V\u101b
p703
tp704
I1
s(V\u102c
p705
V\u1004
p706
tp707
I81
s(V\u102f
p708
V\u1019
p709
tp710
I3
s(V\u1039
p711
V\u1018
p712
tp713
I1
s(V\u1030
p714
V\u101b
p715
tp716
I2
s(V\u1010
p717
V\u1039
p718
tp719
I1
s(V\u1036
p720
V\u1001
p721
tp722
I12
s(V\u1019
p723
V\u1001
p724
tp725
I2
s(V\u103b
p726
V\u102c
p727
tp728
I12
s(V\u1031
p729
V\u104a
p730
tp731
I6
s(V\u102b
p732
V\u1010
p733
tp734
I92
s(V\u101c
p735
V\u1000
p736
tp737
I14
s(V\u102c
p738
V\u1005
p739
tp740
I2
s(V\u1037
p741
V\u101b
p742
tp743
I12
s(V\u1043
p744
g20
tp745
I6
s(V\u1001
p746
V\u1010
p747
tp748
I2
s(V\u103b
p749
V\u1036
p750
tp751
I1
s(V\u1041
p752
V\u101d
p753
tp754
I1
s(V\u1016
p755
V\u102d
p756
tp757
I20
s(V\u1010
p758
V\u102c
p759
tp760
I19
s(V\u1031
p761
V\u1010
p762
tp763
I9
s(V\u103b
p764
V\u102f
p765
tp766
I16
s(V\u101b
p767
V\u1001
p768
tp769
I17
s(V\u1031
p770
V\u1002
p771
tp772
I1
s(V\u1010
p773
V\u1000
p774
tp775
I3
s(g20
V\u104b
p776
tp777
I1
s(V\u1036
p778
V\u1014
p779
tp780
I1
s(V\u102e
p781
V\u1005
p782
tp783
I6
s(V\u1019
p784
V\u1032
p785
tp786
I1
s(V\u103a
p787
V\u101d
p788
tp789
I5
s(V\u1040
p790
g20
tp791
I4
s(V\u1037
p792
V\u1019
p793
tp794
I9
s(g20
V\u1004
p795
tp796
I2
s(V\u102e
p797
V\u1021
p798
tp799
I11
s(V\u103c
p800
V\u1014
p801
tp802
I15
s(V\u103e
p803
V\u1010
p804
tp805
I2
s(g20
V\u1012
p806
tp807
I27
s(VI
p808
g336
tp809
I2
s(V\u1002
p810
V\u101c
p811
tp812
I2
s(V\u104b
p813
V\u000a
p814
tp815
I69
s(V\u1037
p816
V\u1018
p817
tp818
I2
s(V\u1014
p819
V\u102e
p820
tp821
I5
s(V\u103b
p822
V\u1000
p823
tp824
I9
s(V\u1014
p825
V\u1037
p826
tp827
I6
s(V\u1017
p828
V\u102d
p829
tp830
I2
s(V\u103c
p831
V\u1015
p832
tp833
I3
s(V\u103e
p834
V\u102e
p835
tp836
I2
s(V\u1042
p837
V)
p838
tp839
I1
s(V\u103a
p840
V\u1006
p841
tp842
I18
s(V\u103a
p843
V\u101f
p844
tp845
I7
s(V\u1006
p846
V\u103d
p847
tp848
I9
s(g20
V\u1021
p849
tp850
I160
s(V\u103c
p851
V\u1031
p852
tp853
I46
s(V\u102c
p854
V\u104a
p855
tp856
I1
s(V\u1038
p857
V\u1011
p858
tp859
I12
s(V\u1001
p860
V\u1014
p861
tp862
I3
s(V\u1037
p863
V\u103a
p864
tp865
I27
s(V\u101e
p866
V\u1004
p867
tp868
I2
s(g20
V\u1010
p869
tp870
I78
s(V\u1019
p871
V\u1010
p872
tp873
I8
s(V\u1031
p874
V\u1014
p875
tp876
I9
s(V\u1038
p877
V\u1000
p878
tp879
I28
s(V\u1005
p880
V\u1000
p881
tp882
I9
s(V\u1031
p883
V\u1006
p884
tp885
I6
s(V\u1011
p886
V\u102d
p887
tp888
I10
s(V\u101b
p889
V\u1014
p890
tp891
I7
s(V\u1036
p892
V\u1010
p893
tp894
I12
s(V\u1017
p895
V\u103a
p896
tp897
I1
s(V\u1006
p898
V\u101a
p899
tp900
I1
s(V\u103a
p901
V\u1018
p902
tp903
I19
s(V\u101e
p904
V\u1031
p905
tp906
I6
s(V\u1030
p907
V\u1019
p908
tp909
I6
s(V\u1021
p910
V\u1031
p911
tp912
I15
s(V\u1037
p913
V\u101d
p914
tp915
I1
s(V\u103d
p916
V\u102d
p917
tp918
I1
s(V\u1011
p919
V\u102c
p920
tp921
I22
s(V\u102c
p922
g20
tp923
I98
s(V\u101b
p924
V\u102f
p925
tp926
I12
s(V\u1006
p927
V\u101b
p928
tp929
I1
s(V\u1010
p930
V\u1026
p931
tp932
I1
s(V\u1007
p933
V\u103d
p934
tp935
I1
s(V\u103d
p936
V\u1036
p937
tp938
I2
s(V\u103c
p939
V\u103e
p940
tp941
I1
s(V\u101a
p942
V\u1030
p943
tp944
I3
s(V\u101a
p945
V\u1037
p946
tp947
I6
s(V\u1037
p948
V\u101c
p949
tp950
I11
s(V\u1010
p951
V\u1031
p952
tp953
I22
s(V\u1032
p954
g20
tp955
I7
s(V\u1036
p956
V\u1019
p957
tp958
I4
s(V\u102c
p959
V\u1021
p960
tp961
I3
s(V\u101c
p962
V\u103a
p963
tp964
I5
s(V\u103c
p965
V\u103f
p966
tp967
I1
s(V\u1000
p968
V\u1031
p969
tp970
I4
s(V\u102e
p971
V\u1014
p972
tp973
I3
s(g20
g315
tp974
I1
s(V\u1030
p975
g20
tp976
I10
s(V\u1010
p977
V\u1015
p978
tp979
I6
s(V\u103d
p980
V\u1014
p981
tp982
I9
s(V\u100a
p983
V\u1037
p984
tp985
I1
s(V\u1038
p986
V\u1015
p987
tp988
I24
s(V\u101c
p989
V\u103b
p990
tp991
I1
s(V\u101b
p992
V\u102d
p993
tp994
I15
s(V\u102d
p995
V\u1000
p996
tp997
I16
s(V\u1043
p998
g838
tp999
I1
s(V\u1012
p1000
V\u100f
p1001
tp1002
I2
s(V\u1015
p1003
V\u103c
p1004
tp1005
I91
s(g20
V\u1007
p1006
tp1007
I2
s(V\u1021
p1008
V\u102f
p1009
tp1010
I1
s(V\u1018
p1011
V\u103d
p1012
tp1013
I6
s(V\u101b
p1014
V\u101b
p1015
tp1016
I3
s(V\u1015
p1017
V\u102d
p1018
tp1019
I12
s(V\u103a
p1020
V\u1015
p1021
tp1022
I46
s(g20
g696
tp1023
I1
s(V\u101e
p1024
V\u102f
p1025
tp1026
I1
s(V\u1026
p1027
g20
tp1028
I1
s(V\u1037
p1029
V\u1011
p1030
tp1031
I2
s(V\u1026
p1032
V\u1038
p1033
tp1034
I15
s(V\u1038
p1035
V\u101b
p1036
tp1037
I51
s(V\u1018
p1038
V\u102c
p1039
tp1040
I11
s(V\u103c
p1041
V\u102c
p1042
tp1043
I24
s(V\u1004
p1044
V\u103a
p1045
tp1046
I265
s(V\u103d
p1047
V\u1032
p1048
tp1049
I22
s(V\u103e
p1050
V\u100a
p1051
tp1052
I1
s(V\u1001
p1053
V\u101b
p1054
tp1055
I7
s(V\u1037
p1056
V\u1010
p1057
tp1058
I21
s(V\u1019
p1059
V\u103b
p1060
tp1061
I35
s(g20
V\u1005
p1062
tp1063
I43
s(V\u1000
p1064
V\u102e
p1065
tp1066
I3
s(V\u103c
p1067
V\u102d
p1068
tp1069
I27
s(V\u101e
p1070
V\u1036
p1071
tp1072
I2
s(V\u1006
p1073
V\u1010
p1074
tp1075
I1
s(V\u103a
p1076
V\u101e
p1077
tp1078
I30
s(V\u1015
p1079
V\u102f
p1080
tp1081
I5
s(V\u103a
p1082
V\u1017
p1083
tp1084
I1
s(V\u101e
p1085
g20
tp1086
I1
s(V\u103d
p1087
V\u1010
p1088
tp1089
I3
s(V\u1037
p1090
V\u1017
p1091
tp1092
I1
s(V\u1032
p1093
V\u1011
p1094
tp1095
I2
s(V\u1038
p1096
V\u1019
p1097
tp1098
I34
s(V\u1005
p1099
V\u102c
p1100
tp1101
I8
s(V\u103a
p1102
V\u104b
p1103
tp1104
I64
s(V\u1030
p1105
V\u1037
p1106
tp1107
I5
s(g20
g496
tp1108
I1
s(V\u1002
p1109
V\u1031
p1110
tp1111
I1
s(V\u101c
p1112
V\u1005
p1113
tp1114
I1
s(V\u1005
p1115
V\u103d
p1116
tp1117
I1
s(V\u1036
p1118
V\u101e
p1119
tp1120
I3
s(V\u1017
p1121
V\u102c
p1122
tp1123
I1
s(V\u1030
p1124
V\u1006
p1125
tp1126
I1
s(V\u1000
p1127
V\u102c
p1128
tp1129
I4
s(V\u101b
p1130
V\u101c
p1131
tp1132
I1
s(V\u1049
p1133
g20
tp1134
I1
s(V\u103a
p1135
V\u1010
p1136
tp1137
I66
s(V\u1030
p1138
V\u1011
p1139
tp1140
I4
s(V\u1010
p1141
V\u103a
p1142
tp1143
I36
s(V\u102e
p1144
V\u101b
p1145
tp1146
I2
s(V\u1012
p1147
V\u1014
p1148
tp1149
I2
s(V\u1037
p1150
V\u1015
p1151
tp1152
I13
s(V\u1042
p1153
g20
tp1154
I3
s(V\u1038
p1155
V\u101f
p1156
tp1157
I1
s(V\u1018
p1158
V\u1030
p1159
tp1160
I8
s(V\u101e
p1161
V\u1005
p1162
tp1163
I7
s(V\u1005
p1164
V\u102e
p1165
tp1166
I20
s(V\u101b
p1167
V\u103e
p1168
tp1169
I49
s(V\u103c
p1170
V\u1036
p1171
tp1172
I3
s(V\u1004
p1173
V\u1014
p1174
tp1175
I2
s(V\u1019
p1176
V\u102d
p1177
tp1178
I17
s(V\u1014
p1179
V\u102d
p1180
tp1181
I36
s(V\u102c
p1182
V\u101a
p1183
tp1184
I1
s(V\u1037
p1185
V\u1014
p1186
tp1187
I11
s(V\u1014
p1188
V\u1032
p1189
tp1190
I33
s(V\u1030
p1191
V\u1004
p1192
tp1193
I1
s(V\u1001
p1194
V\u103a
p1195
tp1196
I1
s(V\u102c
p1197
V\u1019
p1198
tp1199
I11
s(V\u101c
p1200
V\u1032
p1201
tp1202
I1
s(V\u1016
p1203
V\u103c
p1204
tp1205
I35
s(V\u1005
p1206
V\u101b
p1207
tp1208
I2
s(V\u102e
p1209
V\u101c
p1210
tp1211
I6
s(V\u1019
p1212
V\u102c
p1213
tp1214
I12
s(V\u102b
p1215
V\u1000
p1216
tp1217
I5
s(V\u103d
p1218
V\u102c
p1219
tp1220
I22
s(V\u1032
p1221
V\u1015
p1222
tp1223
I2
s(V\u1038
p1224
V\u101d
p1225
tp1226
I1
s(V\u1002
p1227
V\u1000
p1228
tp1229
I1
s(V\u102e
p1230
V\u1038
p1231
tp1232
I99
s(V\u1016
p1233
V\u103d
p1234
tp1235
I16
s(V\u1010
p1236
V\u101c
p1237
tp1238
I2
s(V\u1031
p1239
V\u1000
p1240
tp1241
I24
s(V\u104a
p1242
g20
tp1243
I11
s(V\u102f
p1244
V\u1002
p1245
tp1246
I3
s(V\u1011
p1247
V\u1019
p1248
tp1249
I3
s(g20
V\u101f
p1250
tp1251
I25
s(V\u101d
p1252
V\u1004
p1253
tp1254
I11
s(V\u102e
p1255
V\u1015
p1256
tp1257
I1
s(V\u1021
p1258
V\u1006
p1259
tp1260
I7
s(V\u1001
p1261
V\u102d
p1262
tp1263
I31
s(V\u102d
p1264
V\u101e
p1265
tp1266
I9
s(V\u1014
p1267
V\u1004
p1268
tp1269
I5
s(V\u1004
p1270
V\u103d
p1271
tp1272
I3
s(V\u1039
p1273
V\u1001
p1274
tp1275
I1
s(V\u103e
p1276
V\u1000
p1277
tp1278
I1
s(V\u102f
p1279
V\u104a
p1280
tp1281
I2
s(V\u1011
p1282
V\u100a
p1283
tp1284
I1
s(V\u1038
p1285
V\u1012
p1286
tp1287
I2
s(V\u102c
p1288
V\u1002
p1289
tp1290
I2
s(V\u103e
p1291
V\u1032
p1292
tp1293
I2
s(V\u1006
p1294
V\u102c
p1295
tp1296
I3
s(V\u101c
p1297
g20
tp1298
I5
s(V\u103e
p1299
V\u102c
p1300
tp1301
I60
s(g20
V\u101d
p1302
tp1303
I14
s(V\u1046
p1304
V\u1001
p1305
tp1306
I1
s(g838
V\u1015
p1307
tp1308
I1
s(V\u101f
p1309
V\u102d
p1310
tp1311
I6
s(V\u1006
p1312
V\u102d
p1313
tp1314
I19
s(g20
V\u100c
p1315
tp1316
I1
s(V\u1021
p1317
V\u1032
p1318
tp1319
I2
s(V\u1000
p1320
V\u101a
p1321
tp1322
I1
s(V\u1032
p1323
V\u1019
p1324
tp1325
I7
s(V\u1038
p1326
V\u1021
p1327
tp1328
I18
s(V\u1014
p1329
V\u103e
p1330
tp1331
I14
s(V\u103e
p1332
V\u1019
p1333
tp1334
I3
s(V\u103a
p1335
V\u104a
p1336
tp1337
I1
s(V\u1019
p1338
V\u102f
p1339
tp1340
I3
s(V\u103b
p1341
V\u102d
p1342
tp1343
I24
s(V\u1002
p1344
V\u1039
p1345
tp1346
I7
s(V\u1038
p1347
V\u1010
p1348
tp1349
I33
s(V\u100a
p1350
V\u103d
p1351
tp1352
I3
s(Vh
p1353
g437
tp1354
I1
s(V\u1000
p1355
V\u102f
p1356
tp1357
I8
s(V\u1036
p1358
V\u1016
p1359
tp1360
I3
s(V\u1031
p1361
V\u1021
p1362
tp1363
I5
s(V\u101d
p1364
V\u1000
p1365
tp1366
I3
s(V\u1005
p1367
V\u1001
p1368
tp1369
I1
s(V\u1006
p1370
V\u102f
p1371
tp1372
I21
s(V\u1010
p1373
V\u1032
p1374
tp1375
I43
s(V\u102d
p1376
V\u101a
p1377
tp1378
I1
s(V\u101d
p1379
V\u1031
p1380
tp1381
I8
s(V\u1014
p1382
V\u1000
p1383
tp1384
I1
s(V\u102f
p1385
V\u1038
p1386
tp1387
I42
s(V\u101a
p1388
V\u102c
p1389
tp1390
I11
s(V\u102c
p1391
V\u1010
p1392
tp1393
I15
s(V\u1000
p1394
V\u1032
p1395
tp1396
I1
s(V\u104b
p1397
g20
tp1398
I3
s(V\u101b
p1399
V\u1006
p1400
tp1401
I1
s(V\u101c
p1402
V\u102e
p1403
tp1404
I1
s(V\u1000
p1405
V\u102d
p1406
tp1407
I61
s(V\u103a
p1408
V\u1016
p1409
tp1410
I13
s(V\u1001
p1411
V\u1032
p1412
tp1413
I34
s(V\u102c
p1414
V\u1011
p1415
tp1416
I2
s(V\u101c
p1417
V\u100a
p1418
tp1419
I23
s(V\u102e
p1420
V\u100a
p1421
tp1422
I1
s(V\u1018
p1423
V\u100f
p1424
tp1425
I1
s(V\u102b
p1426
V\u1018
p1427
tp1428
I1
s(V\u1015
p1429
V\u1004
p1430
tp1431
I4
s(V\u1016
p1432
V\u1019
p1433
tp1434
I4
s(V\u1010
p1435
V\u1030
p1436
tp1437
I11
s(V\u1010
p1438
V\u1005
p1439
tp1440
I16
s(V\u1032
p1441
V\u101d
p1442
tp1443
I2
s(V\u1015
p1444
g20
tp1445
I2
s(V\u101b
p1446
V\u103d
p1447
tp1448
I27
s(V\u1010
p1449
V\u1014
p1450
tp1451
I15
s(V\u102f
p1452
V\u1037
p1453
tp1454
I94
s(V\u1031
p1455
V\u1038
p1456
tp1457
I69
s(V\u1038
p1458
V\u1014
p1459
tp1460
I20
s(V\u1002
p1461
V\u1010
p1462
tp1463
I1
s(V\u1015
p1464
V\u1011
p1465
tp1466
I2
s(V\u103a
p1467
V\u1001
p1468
tp1469
I41
s(V\u101b
p1470
V\u1019
p1471
tp1472
I6
s(g20
V\u1017
p1473
tp1474
I8
s(V\u1012
p1475
V\u1031
p1476
tp1477
I17
s(V\u1000
p1478
V\u1019
p1479
tp1480
I1
s(V\u1015
p1481
V\u103d
p1482
tp1483
I6
s(V\u1021
p1484
V\u101e
p1485
tp1486
I5
s(g20
V\u1006
p1487
tp1488
I36
s(g697
g437
tp1489
I1
s(V\u1013
p1490
V\u102c
p1491
tp1492
I2
s(Vy
p1493
Vf
p1494
tp1495
I1
s(V\u1015
p1496
V\u1010
p1497
tp1498
I11
s(V\u1019
p1499
V\u1002
p1500
tp1501
I4
s(V\u103c
p1502
V\u1001
p1503
tp1504
I1
s(V\u103e
p1505
V\u103a
p1506
tp1507
I2
s(V\u102b
p1508
V\u103a
p1509
tp1510
I18
s(V\u102f
p1511
V\u1001
p1512
tp1513
I4
s(V\u1014
p1514
V\u1031
p1515
tp1516
I60
s(V\u100a
p1517
V\u103e
p1518
tp1519
I2
s(V\u102c
p1520
V\u101f
p1521
tp1522
I1
s(g316
g20
tp1523
I1
s(V\u1001
p1524
V\u1036
p1525
tp1526
I19
s(V\u103c
p1527
V\u103d
p1528
tp1529
I1
s(V\u102d
p1530
V\u102f
p1531
tp1532
I370
s(V\u102b
p1533
V\u104b
p1534
tp1535
I6
s(V\u101c
p1536
V\u1014
p1537
tp1538
I2
s(V\u101e
p1539
V\u1010
p1540
tp1541
I5
s(V\u1005
p1542
V\u1014
p1543
tp1544
I2
s(V\u1036
p1545
g20
tp1546
I13
s(V\u1019
p1547
V\u100a
p1548
tp1549
I4
s(g65
g157
tp1550
I3
s(V\u1005
p1551
V\u101c
p1552
tp1553
I1
s(V\u1021
p1554
V\u1001
p1555
tp1556
I19
s(V\u101b
p1557
V\u1000
p1558
tp1559
I15
s(g496
V\u1042
p1560
tp1561
I1
s(V\u101c
p1562
V\u1015
p1563
tp1564
I1
s(V\u103a
p1565
V\u100c
p1566
tp1567
I1
s(V\u103e
p1568
V\u102d
p1569
tp1570
I32
s(V\u1031
p1571
V\u1037
p1572
tp1573
I29
s(V\u1005
p1574
V\u102d
p1575
tp1576
I17
s(V\u100f
p1577
V\u103a
p1578
tp1579
I2
s(V\u1017
p1580
V\u103c
p1581
tp1582
I8
s(V\u1011
p1583
V\u1015
p1584
tp1585
I3
s(V\u1010
p1586
V\u101b
p1587
tp1588
I6
s(V\u1000
p1589
V\u103c
p1590
tp1591
I84
s(V\u101f
p1592
V\u102c
p1593
tp1594
I20
s(V\u1021
p1595
V\u1000
p1596
tp1597
I27
s(V\u103a
p1598
g20
tp1599
I204
s(V\u1005
p1600
V\u1032
p1601
tp1602
I4
s(V\u1005
p1603
V\u1009
p1604
tp1605
I11
s(V\u1000
p1606
V\u101b
p1607
tp1608
I6
s(V\u1000
p1609
V\u1010
p1610
tp1611
I6
s(V\u1039
p1612
V\u1005
p1613
tp1614
I5
s(V\u1011
p1615
V\u1014
p1616
tp1617
I1
s(V\u1018
p1618
V\u1000
p1619
tp1620
I7
s(V\u1030
p1621
V\u1010
p1622
tp1623
I21
s(V\u1006
p1624
V\u102e
p1625
tp1626
I16
s(g1494
g697
tp1627
I1
s(V\u1019
p1628
V\u103d
p1629
tp1630
I3
s(V\u1014
p1631
V\u103d
p1632
tp1633
I8
s(V\u1005
p1634
V\u102f
p1635
tp1636
I15
s(V\u102e
p1637
V\u1000
p1638
tp1639
I5
s(V\u102b
p1640
V\u1014
p1641
tp1642
I2
s(V\u102f
p1643
V\u101b
p1644
tp1645
I6
s(V\u1044
p1646
V\u1045
p1647
tp1648
I1
s(V\u1019
p1649
V\u103c
p1650
tp1651
I19
s(V\u102f
p1652
V\u1006
p1653
tp1654
I3
s(V\u1037
p1655
V\u1006
p1656
tp1657
I3
s(V\u101b
p1658
V\u1005
p1659
tp1660
I4
s(V\u1021
p1661
V\u1005
p1662
tp1663
I31
s(V\u1041
p1664
V\u1049
p1665
tp1666
I1
s(V\u1037
p1667
V\u1021
p1668
tp1669
I9
s(V\u1038
p1670
V\u101c
p1671
tp1672
I19
s(V\u1031
p1673
V\u102b
p1674
tp1675
I29
s(V\u103a
p1676
V\u1019
p1677
tp1678
I45
s(V\u1042
p1679
V\u1040
p1680
tp1681
I2
s(V\u102c
p1682
V\u103a
p1683
tp1684
I31
s(V\u101d
p1685
V\u1014
p1686
tp1687
I10
s(V\u1021
p1688
V\u1004
p1689
tp1690
I5
s(V\u1001
p1691
V\u102b
p1692
tp1693
I5
s(V\u1012
p1694
V\u102d
p1695
tp1696
I1
s(V\u1037
p1697
g20
tp1698
I182
s(V\u103e
p1699
V\u1014
p1700
tp1701
I2
s(V\u1021
p1702
V\u1016
p1703
tp1704
I11
s(g20
V\u101e
p1705
tp1706
I47
s(V\u102c
p1707
V\u1016
p1708
tp1709
I5
s(V\u1032
p1710
V\u1037
p1711
tp1712
I136
s(V\u103d
p1713
V\u1031
p1714
tp1715
I97
s(V\u1018
p1716
V\u1004
p1717
tp1718
I2
s(V\u1012
p1719
V\u103a
p1720
tp1721
I2
s(V\u103e
p1722
V\u1030
p1723
tp1724
I3
s(V\u101a
p1725
V\u1031
p1726
tp1727
I16
s(g20
V\u1044
p1728
tp1729
I2
s(V\u103b
p1730
V\u1004
p1731
tp1732
I6
s(V\u1032
p1733
V\u1042
p1734
tp1735
I1
s(V\u103c
p1736
V\u1019
p1737
tp1738
I8
s(V\u1032
p1739
V\u1021
p1740
tp1741
I2
s(V\u101f
p1742
V\u102e
p1743
tp1744
I3
s(V\u1006
p1745
V\u101c
p1746
tp1747
I1
s(V\u1001
p1748
V\u103c
p1749
tp1750
I18
s(V\u103a
p1751
V\u1002
p1752
tp1753
I1
s(V\u1014
p1754
V\u1039
p1755
tp1756
I1
s(V\u100a
p1757
V\u1031
p1758
tp1759
I9
s(V\u101c
p1760
V\u1030
p1761
tp1762
I10
s(V\u103a
p1763
V\u101b
p1764
tp1765
I64
s(V\u103b
p1766
g20
tp1767
I4
s(V\u102f
p1768
V\u101f
p1769
tp1770
I1
s(V\u1016
p1771
V\u1000
p1772
tp1773
I8
s(V\u101e
p1774
V\u102e
p1775
tp1776
I2
s(V\u1019
p1777
V\u102e
p1778
tp1779
I14
s(V\u103a
p1780
V\u1026
p1781
tp1782
I3
s(V\u101e
p1783
V\u1018
p1784
tp1785
I8
s(g20
V\u101c
p1786
tp1787
I62
s(V\u101b
p1788
V\u102c
p1789
tp1790
I17
s(V\u1031
p1791
V\u1019
p1792
tp1793
I13
s(V\u101c
p1794
V\u1031
p1795
tp1796
I14
s(V\u1036
p1797
V\u1038
p1798
tp1799
I26
s(V\u101e
p1800
V\u100a
p1801
tp1802
I2
s(V\u1042
p1803
V\u1043
p1804
tp1805
I1
s(V\u101a
p1806
V\u103a
p1807
tp1808
I130
s(V\u1030
p1809
V\u100a
p1810
tp1811
I6
s(V\u103b
p1812
V\u103d
p1813
tp1814
I2
s(V\u100c
p1815
V\u1031
p1816
tp1817
I1
s(V\u102f
p1818
V\u1000
p1819
tp1820
I66
s(V\u1038
p1821
g20
tp1822
I197
s(V\u103a
p1823
V\u1004
p1824
tp1825
I26
s(V\u1012
p1826
V\u102b
p1827
tp1828
I7
s(V\u1005
p1829
V\u1015
p1830
tp1831
I1
s(V\u102f
p1832
V\u1016
p1833
tp1834
I1
s(V\u1031
p1835
V\u1026
p1836
tp1837
I1
s(V\u102e
p1838
V\u1017
p1839
tp1840
I1
s(g507
g1353
tp1841
I1
s(V\u1001
p1842
V\u102f
p1843
tp1844
I12
s(V\u103a
p1845
V\u1038
p1846
tp1847
I181
s(V\u1005
p1848
V\u103a
p1849
tp1850
I87
s(V\u1048
p1851
V\u101b
p1852
tp1853
I1
s(V\u1001
p1854
V\u1031
p1855
tp1856
I9
s(V\u1036
p1857
V\u1021
p1858
tp1859
I1
s(V\u1014
p1860
V\u1010
p1861
tp1862
I1
s(V\u1001
p1863
V\u103d
p1864
tp1865
I10
s(V\u1042
p1866
V\u1045
p1867
tp1868
I1
s(V\u1032
p1869
V\u101b
p1870
tp1871
I5
s(V\u1017
p1872
V\u101f
p1873
tp1874
I1
s(V\u102c
p1875
V\u1000
p1876
tp1877
I50
s(V\u1039
p1878
V\u101c
p1879
tp1880
I3
s(V\u1010
p1881
V\u103d
p1882
tp1883
I99
s(V\u101c
p1884
V\u103e
p1885
tp1886
I7
s(V\u1019
p1887
V\u1005
p1888
tp1889
I3
s(V\u103b
p1890
V\u101e
p1891
tp1892
I1
s(V\u1000
p1893
V\u103d
p1894
tp1895
I6
s(V\u1019
p1896
g20
tp1897
I2
s(V\u1032
p1898
V\u1000
p1899
tp1900
I4
s(V\u102c
p1901
V\u1001
p1902
tp1903
I1
s(V\u1014
p1904
V\u1014
p1905
tp1906
I8
s(V\u102f
p1907
V\u101a
p1908
tp1909
I2
s(V\u1038
p1910
V\u104a
p1911
tp1912
I1
s(V\u1012
p1913
V\u102e
p1914
tp1915
I18
s(V\u1015
p1916
V\u1014
p1917
tp1918
I1
s(V\u102d
p1919
V\u1001
p1920
tp1921
I4
s(V\u1010
p1922
g20
tp1923
I5
s(V\u1043
p1924
V\u1049
p1925
tp1926
I1
s(V\u1002
p1927
V\u103b
p1928
tp1929
I4
s(V\u1015
p1930
V\u1005
p1931
tp1932
I7
s(V\u1037
p1933
V\u101e
p1934
tp1935
I2
s(V\u1021
p1936
V\u101d
p1937
tp1938
I5
s(V\u1010
p1939
V\u1004
p1940
tp1941
I13
s(V\u1041
p1942
V\u1041
p1943
tp1944
I1
s(V\u1002
p1945
V\u102d
p1946
tp1947
I3
s(V\u102f
p1948
V\u1004
p1949
tp1950
I72
s(V\u102e
p1951
V\u1001
p1952
tp1953
I3
s(V\u1012
p1954
V\u102f
p1955
tp1956
I2
s(V\u103a
p1957
V\u1011
p1958
tp1959
I17
s(g20
g808
tp1960
I2
s(g20
g64
tp1961
I2
s(V\u103d
p1962
V\u101a
p1963
tp1964
I10
s(V\u1021
p1965
V\u101c
p1966
tp1967
I7
s(V\u103c
p1968
V\u1010
p1969
tp1970
I9
s(V\u1021
p1971
V\u102e
p1972
tp1973
I1
s(g20
V\u1016
p1974
tp1975
I35
s(g437
g149
tp1976
I1
s(g697
g1493
tp1977
I1
s(V\u1019
p1978
V\u1015
p1979
tp1980
I1
s(V\u1038
p1981
V\u1006
p1982
tp1983
I22
s(V\u1011
p1984
V\u1000
p1985
tp1986
I4
s(V\u1039
p1987
V\u1019
p1988
tp1989
I7
s(V\u101c
p1990
V\u102c
p1991
tp1992
I22
s(V\u1015
p1993
V\u1032
p1994
tp1995
I4
s(V\u1004
p1996
V\u101a
p1997
tp1998
I3
s(V\u1019
p1999
V\u1037
p2000
tp2001
I3
s(g20
V\u1001
p2002
tp2003
I33
s(g838
V\u101b
p2004
tp2005
I1
s(V\u1041
p2006
g20
tp2007
I1
s(V\u1006
p2008
V\u1014
p2009
tp2010
I13
s(V\u101d
p2011
V\u103a
p2012
tp2013
I7
s(V\u1030
p2014
V\u101f
p2015
tp2016
I1
s(V\u1019
p2017
V\u101b
p2018
tp2019
I4
s(g20
V\u1025
p2020
tp2021
I1
s(V\u101c
p2022
V\u102d
p2023
tp2024
I67
s(V\u1019
p2025
V\u1036
p2026
tp2027
I1
s(V\u1018
p2028
V\u102e
p2029
tp2030
I2
s(V\u1005
p2031
g20
tp2032
I2
s(V\u103a
p2033
V\u1037
p2034
tp2035
I28
s(V\u101e
p2036
V\u1000
p2037
tp2038
I5
s(g20
V\u1014
p2039
tp2040
I53
s(V\u1031
p2041
V\u1011
p2042
tp2043
I5
s(V\u1019
p2044
V\u101a
p2045
tp2046
I19
s(V\u1014
p2047
V\u103a
p2048
tp2049
I139
s(V\u103e
p2050
V\u1031
p2051
tp2052
I23
s(V\u100f
p2053
V\u1039
p2054
tp2055
I1
s(V\u1005
p2056
V\u1031
p2057
tp2058
I10
s(V\u1021
p2059
V\u1011
p2060
tp2061
I5
s(V\u1041
p2062
V\u1045
p2063
tp2064
I1
s(V\u1031
p2065
V\u102c
p2066
tp2067
I201
s(V\u1038
p2068
g496
tp2069
I1
s(V\u103a
p2070
V\u101c
p2071
tp2072
I48
s(V\u101e
p2073
V\u103d
p2074
tp2075
I17
s(V\u1005
p2076
V\u101d
p2077
tp2078
I7
s(V\u102f
p2079
V\u101e
p2080
tp2081
I4
s(V\u1032
p2082
V\u1006
p2083
tp2084
I1
s(V\u102e
p2085
V\u101f
p2086
tp2087
I1
s(V\u1002
p2088
g20
tp2089
I4
s(V\u1000
p2090
V\u1039
p2091
tp2092
I1
s(V\u102d
p2093
V\u1019
p2094
tp2095
I10
s(V\u1021
p2096
V\u1010
p2097
tp2098
I24
s(V\u1014
p2099
V\u1005
p2100
tp2101
I2
s(V\u101e
p2102
V\u1019
p2103
tp2104
I23
s(V\u102c
p2105
V\u101c
p2106
tp2107
I10
s(V\u1014
p2108
V\u100a
p2109
tp2110
I5
s(V\u103a
p2111
V\u101a
p2112
tp2113
I1
s(V\u1010
p2114
V\u101a
p2115
tp2116
I98
s(V\u101b
p2117
V\u1032
p2118
tp2119
I21
s(V\u1007
p2120
V\u1031
p2121
tp2122
I1
s(V\u1010
p2123
V\u101d
p2124
tp2125
I1
s(V\u1006
p2126
V\u1000
p2127
tp2128
I5
s(V\u1030
p2129
V\u1000
p2130
tp2131
I1
s(V\u102b
p2132
V\u1038
p2133
tp2134
I3
s(V\u101c
p2135
V\u1004
p2136
tp2137
I10
s(V\u101b
p2138
V\u101e
p2139
tp2140
I3
s(V\u102c
p2141
V\u101d
p2142
tp2143
I1
s(V\u101c
p2144
V\u1036
p2145
tp2146
I1
s(V\u102e
p2147
V\u1006
p2148
tp2149
I2
s(V\u102f
p2150
V\u1015
p2151
tp2152
I46
s(V\u102e
p2153
V\u1010
p2154
tp2155
I10
ssS'font'
p2156
S'unicode'
p2157
sS'totalNGram'
p2158
I11193
sb.