ccopy_reg
_reconstructor
p0
(c__main__
markovModel
p1
c__builtin__
object
p2
Ntp3
Rp4
(dp5
S'lang'
p6
S'burmese'
p7
sS'logSum'
p8
F121.9130388338093
sS'linesAdded'
p9
I81
sS'numSamples'
p10
I4473
sS'ngramLength'
p11
I2
sS'modelFileName'
p12
S'models/UnicodeBurmese_Model_2_MM_model.save'
p13
sS'detectorType'
p14
S'MARKOV'
p15
sS'probA'
p16
(dp17
V\u1001
p18
I183
sV\u1000
p19
I486
sV\u1002
p20
I26
sV\u1005
p21
I233
sV\u1004
p22
I308
sV\u1007
p23
I3
sV\u1006
p24
I109
sV\u1009
p25
I12
sV\u100a
p26
I105
sV\u100d
p27
I1
sV\u100c
p28
I2
sV\u100f
p29
I3
sV\u1011
p30
I85
sV\u1010
p31
I491
sV\u1013
p32
I3
sV\u1012
p33
I51
sV\u1015
p34
I333
sV\u1014
p35
I345
sV\u1017
p36
I15
sV\u1016
p37
I89
sV\u1019
p38
I295
sV\u1018
p39
I52
sV\u101b
p40
I326
sV\u101a
p41
I167
sV\u101d
p42
I42
sV\u101c
p43
I214
sV\u101f
p44
I41
sV\u101e
p45
I166
sV\u1021
p46
I269
sV\u1025
p47
I1
sV\u1026
p48
I16
sV\u103f
p49
I1
ssS'fileName'
p50
S'testdata/burmeseUnicode.txt'
p51
sS'model'
p52
(dp53
sS'font'
p54
S'unicode'
p55
sS'probBGivenA'
p56
(dp57
g18
(dp58
V\u1004
p59
I1
sV\u102b
p60
I5
sV\u102d
p61
I31
sV\u102f
p62
I12
sV\u1031
p63
I9
sV\u1010
p64
I2
sV\u1032
p65
I34
sV\u1014
p66
I3
sV\u101b
p67
I7
sV\u1036
p68
I19
sV\u103b
p69
I30
sV\u103a
p70
I1
sV\u103d
p71
I10
sV\u103c
p72
I18
sV\u101e
p73
I1
ssg19
(dp74
V\u102e
p75
I3
sV 
p76
I66
sV\u1039
p77
I1
sV\u1005
p78
I1
sV\u1030
p79
I2
sV\u101a
p80
I1
sV\u1021
p81
I1
sV\u102d
p82
I61
sV\u102c
p83
I4
sV\u102f
p84
I8
sV\u103c
p85
I84
sV\u1031
p86
I4
sV\u1010
p87
I6
sV\u1032
p88
I1
sV\u1014
p89
I18
sV\u103b
p90
I15
sV\u1019
p91
I1
sV\u101b
p92
I6
sV\u103a
p93
I190
sV\u103d
p94
I6
sV\u101c
p95
I7
ssg20
(dp96
g76
I4
sV\u1000
p97
I1
sV\u102b
p98
I1
sV\u102d
p99
I3
sV\u1031
p100
I1
sV\u1010
p101
I1
sV\u1014
p102
I2
sV\u1039
p103
I7
sV\u103b
p104
I4
sV\u101c
p105
I2
ssg21
(dp106
V\u1001
p107
I1
sV\u1000
p108
I9
sV\u1005
p109
I6
sV\u1009
p110
I11
sV\u100a
p111
I11
sV\u1010
p112
I8
sV\u1015
p113
I1
sV\u1014
p114
I2
sV\u101b
p115
I2
sV\u101d
p116
I7
sV\u101c
p117
I1
sg76
I2
sV\u102d
p118
I17
sV\u102c
p119
I8
sV\u102f
p120
I15
sV\u102e
p121
I20
sV\u1031
p122
I10
sV\u1032
p123
I4
sV\u1036
p124
I1
sV\u1039
p125
I5
sV\u103b
p126
I4
sV\u103a
p127
I87
sV\u103d
p128
I1
ssg22
(dp129
V\u103a
p130
I265
sV\u1014
p131
I2
sV\u1037
p132
I11
sV\u1036
p133
I23
sV\u101a
p134
I3
sV\u103d
p135
I3
sV\u103c
p136
I1
ssg23
(dp137
V\u1031
p138
I1
sV\u1030
p139
I1
sV\u103d
p140
I1
ssg24
(dp141
V\u1000
p142
I5
sV\u1004
p143
I4
sV\u102d
p144
I19
sV\u102c
p145
I3
sV\u102f
p146
I21
sV\u102e
p147
I16
sV\u1031
p148
I14
sV\u1010
p149
I1
sV\u1032
p150
I1
sV\u1014
p151
I13
sV\u101b
p152
I1
sV\u101a
p153
I1
sV\u103d
p154
I9
sV\u101c
p155
I1
ssg25
(dp156
V\u103a
p157
I12
ssg26
(dp158
g76
I1
sV\u1005
p159
I5
sV\u102e
p160
I11
sV\u1031
p161
I9
sV\u1037
p162
I1
sV\u103a
p163
I73
sV\u103d
p164
I3
sV\u103e
p165
I2
ssg27
(dp166
V\u102c
p167
I1
ssg28
(dp168
V\u1031
p169
I1
sV\u102c
p170
I1
ssg29
(dp171
V\u1039
p172
I1
sV\u103a
p173
I2
ssg30
(dp174
V\u1000
p175
I4
sV\u100a
p176
I1
sV\u102d
p177
I10
sV\u102c
p178
I22
sV\u102f
p179
I4
sV\u1031
p180
I11
sV\u1030
p181
I2
sV\u1032
p182
I13
sV\u1015
p183
I3
sV\u1014
p184
I1
sV\u1019
p185
I3
sV\u101b
p186
I7
sV\u103d
p187
I4
ssg31
(dp188
V\u1001
p189
I1
sV\u1000
p190
I3
sV\u1005
p191
I16
sV\u1004
p192
I13
sV\u100a
p193
I4
sV\u1015
p194
I6
sV\u1014
p195
I15
sV\u101b
p196
I6
sV\u101a
p197
I98
sV\u101d
p198
I1
sV\u101c
p199
I2
sg76
I5
sV\u1026
p200
I1
sV\u102d
p201
I49
sV\u102c
p202
I19
sV\u102f
p203
I8
sV\u102e
p204
I30
sV\u1031
p205
I22
sV\u1030
p206
I11
sV\u1032
p207
I43
sV\u1036
p208
I2
sV\u1039
p209
I1
sV\u103a
p210
I36
sV\u103d
p211
I99
ssg32
(dp212
V\u102d
p213
I1
sV\u102c
p214
I2
ssg33
(dp215
V\u102b
p216
I7
sV\u102d
p217
I1
sV\u102f
p218
I2
sV\u102e
p219
I18
sV\u1031
p220
I17
sV\u1014
p221
I2
sV\u103a
p222
I2
sV\u100f
p223
I2
ssg34
(dp224
g76
I2
sV\u1005
p225
I7
sV\u1004
p226
I4
sV\u102b
p227
I105
sV\u102d
p228
I12
sV\u102f
p229
I5
sV\u1031
p230
I19
sV\u1010
p231
I11
sV\u1011
p232
I2
sV\u1032
p233
I4
sV\u1014
p234
I1
sV\u103b
p235
I2
sV\u103a
p236
I62
sV\u103d
p237
I6
sV\u103c
p238
I91
ssg35
(dp239
V\u1001
p240
I1
sV\u1000
p241
I1
sV\u101a
p242
I10
sV\u1005
p243
I2
sV\u1004
p244
I5
sV\u100a
p245
I5
sV\u102d
p246
I36
sV\u102c
p247
I10
sV\u102e
p248
I5
sV\u1031
p249
I60
sV\u1010
p250
I1
sV\u1032
p251
I33
sV\u1014
p252
I8
sV\u1037
p253
I6
sV\u1039
p254
I1
sV\u103a
p255
I139
sV\u103d
p256
I8
sV\u103e
p257
I14
ssg36
(dp258
V\u102d
p259
I2
sV\u102c
p260
I1
sV\u102f
p261
I1
sV\u101b
p262
I1
sV\u103a
p263
I1
sV\u103c
p264
I8
sV\u101f
p265
I1
ssg37
(dp266
V\u1000
p267
I8
sV\u102d
p268
I20
sV\u1031
p269
I1
sV\u1014
p270
I2
sV\u1019
p271
I4
sV\u101b
p272
I3
sV\u103d
p273
I16
sV\u103c
p274
I35
ssg38
(dp275
V\u1001
p276
I2
sV\u1000
p277
I1
sV\u1002
p278
I4
sV\u1005
p279
I3
sV\u1006
p280
I2
sV\u100a
p281
I4
sV\u1011
p282
I1
sV\u1010
p283
I8
sV\u1015
p284
I1
sV\u1014
p285
I2
sV\u101b
p286
I4
sV\u101a
p287
I19
sV\u101c
p288
I1
sg76
I2
sV\u102d
p289
I17
sV\u102c
p290
I12
sV\u102f
p291
I3
sV\u102e
p292
I14
sV\u1031
p293
I23
sV\u1032
p294
I1
sV\u1037
p295
I3
sV\u1036
p296
I1
sV\u1039
p297
I8
sV\u103b
p298
I35
sV\u103a
p299
I22
sV\u103d
p300
I3
sV\u103c
p301
I19
sV\u103e
p302
I80
ssg39
(dp303
V\u1000
p304
I7
sV\u1004
p305
I2
sV\u102c
p306
I11
sV\u100f
p307
I1
sV\u102e
p308
I2
sV\u1031
p309
I10
sV\u1030
p310
I8
sV\u1014
p311
I2
sV\u103d
p312
I6
sV\u101c
p313
I1
sV\u102f
p314
I2
ssg40
(dp315
V\u1001
p316
I17
sV\u1000
p317
I15
sV\u100a
p318
I2
sV\u1005
p319
I4
sV\u1004
p320
I11
sg76
I10
sV\u1006
p321
I1
sV\u102d
p322
I15
sV\u102c
p323
I17
sV\u102f
p324
I12
sV\u102e
p325
I25
sV\u1031
p326
I57
sV\u1032
p327
I21
sV\u1015
p328
I23
sV\u1014
p329
I7
sV\u1019
p330
I6
sV\u101b
p331
I3
sV\u101e
p332
I3
sV\u103d
p333
I27
sV\u101c
p334
I1
sV\u103e
p335
I49
ssg41
(dp336
g76
I1
sV\u102c
p337
I11
sV\u1031
p338
I16
sV\u1030
p339
I3
sV\u1037
p340
I6
sV\u103a
p341
I130
ssg42
(dp342
V\u1000
p343
I3
sV\u1004
p344
I11
sg76
I2
sV\u102d
p345
I1
sV\u1031
p346
I8
sV\u1014
p347
I10
sV\u103a
p348
I7
ssg43
(dp349
V\u1000
p350
I14
sV\u101e
p351
I4
sV\u1005
p352
I1
sV\u1004
p353
I10
sg76
I5
sV\u100a
p354
I23
sV\u102d
p355
I67
sV\u102c
p356
I22
sV\u102f
p357
I19
sV\u102e
p358
I1
sV\u1031
p359
I14
sV\u1030
p360
I10
sV\u1012
p361
I1
sV\u1015
p362
I1
sV\u1014
p363
I2
sV\u1036
p364
I1
sV\u1032
p365
I1
sV\u103b
p366
I1
sV\u103a
p367
I5
sV\u103d
p368
I5
sV\u103e
p369
I7
ssg44
(dp370
V\u1031
p371
I12
sV\u102d
p372
I6
sV\u102c
p373
I20
sV\u102e
p374
I3
ssg45
(dp375
V\u1001
p376
I1
sV\u1000
p377
I5
sV\u1005
p378
I7
sV\u1004
p379
I2
sg76
I1
sV\u1010
p380
I5
sV\u100a
p381
I2
sV\u102d
p382
I15
sV\u102c
p383
I22
sV\u102f
p384
I1
sV\u102e
p385
I2
sV\u1031
p386
I6
sV\u1030
p387
I38
sV\u1015
p388
I2
sV\u1014
p389
I4
sV\u1036
p390
I2
sV\u1019
p391
I23
sV\u1018
p392
I8
sV\u103d
p393
I17
sV\u101c
p394
I3
ssg46
(dp395
V\u1001
p396
I19
sV\u1000
p397
I27
sV\u1005
p398
I31
sV\u1004
p399
I5
sV\u1006
p400
I7
sV\u100a
p401
I2
sV\u1011
p402
I5
sV\u1010
p403
I24
sV\u1013
p404
I1
sV\u1015
p405
I11
sV\u1014
p406
I19
sV\u1016
p407
I11
sV\u1019
p408
I39
sV\u101b
p409
I16
sV\u101d
p410
I5
sV\u101c
p411
I7
sV\u101e
p412
I5
sV\u1026
p413
I2
sV\u102d
p414
I8
sV\u102c
p415
I6
sV\u102f
p416
I1
sV\u102e
p417
I1
sV\u1031
p418
I15
sV\u1032
p419
I2
ssg47
(dp420
V\u101b
p421
I1
ssg48
(dp422
V\u1038
p423
I15
sg76
I1
ssg49
(dp424
V\u1014
p425
I1
sssS'totalNGram'
p426
I4473
sb.