ccopy_reg
_reconstructor
p0
(c__main__
markovModel
p1
c__builtin__
object
p2
Ntp3
Rp4
(dp5
S'lang'
p6
S'burmese'
p7
sS'logSum'
p8
F190.88995043288284
sS'linesAdded'
p9
I231
sS'numSamples'
p10
I16049
sS'ngramLength'
p11
I2
sS'modelFileName'
p12
S'models/ZawgyiModel_2_MM_model.save'
p13
sS'detectorType'
p14
S'MARKOV'
p15
sS'probA'
p16
(dp17
V\u1001
p18
I564
sV\u1000
p19
I1637
sV\u1002
p20
I43
sV\u1005
p21
I721
sV\u1004
p22
I1115
sV\u1007
p23
I34
sV\u1006
p24
I401
sV\u100b
p25
I6
sV\u100a
p26
I378
sV\u100c
p27
I10
sV\u100f
p28
I9
sV\u1011
p29
I223
sV\u1010
p30
I1854
sV\u1013
p31
I11
sV\u1012
p32
I273
sV\u1015
p33
I1373
sV\u1014
p34
I1058
sV\u1017
p35
I71
sV\u1016
p36
I343
sV\u1019
p37
I1088
sV\u1018
p38
I155
sV\u101b
p39
I1084
sV\u101a
p40
I555
sV\u101d
p41
I45
sV\u101c
p42
I729
sV\u101f
p43
I95
sV\u101e
p44
I537
sV\u1021
p45
I909
sV\u1025
p46
I132
sV\u1027
p47
I2
sV\u1080
p48
I84
sV\u105a
p49
I91
sV\u1061
p50
I13
sV\u1065
p51
I26
sV\u1075
p52
I7
sV\u1077
p53
I2
sV\u1076
p54
I1
sV\u1078
p55
I3
sV\u107b
p56
I2
sV\u107d
p57
I11
sV\u107c
p58
I7
sV\u107f
p59
I179
sV\u107e
p60
I168
ssS'fileName'
p61
S'testdata/zawgi_VOA_samples.txt'
p62
sS'model'
p63
(dp64
sS'font'
p65
S'zawgyi'
p66
sS'probBGivenA'
p67
(dp68
g18
(dp69
V\u1001
p70
I8
sV\u1000
p71
I2
sV\u1005
p72
I2
sV\u1004
p73
I21
sV\u1010
p74
I12
sV\u1014
p75
I6
sV\u1019
p76
I3
sV\u101b
p77
I30
sV\u101a
p78
I1
sV\u101c
p79
I1
sV\u1021
p80
I9
sV\u102b
p81
I22
sV\u102d
p82
I30
sV\u102c
p83
I27
sV\u102f
p84
I52
sV\u1031
p85
I2
sV\u1032
p86
I72
sV\u1036
p87
I83
sV\u103b
p88
I1
sV\u103a
p89
I158
sV\u103c
p90
I14
sV\u105a
p91
I8
ssg19
(dp92
V\u1001
p93
I3
sV\u1000
p94
I1
sV\u1005
p95
I2
sV\u1004
p96
I5
sV\u1006
p97
I3
sV-
p98
I1
sV\u100a
p99
I49
sV\u100f
p100
I2
sV\u1091
p101
I1
sV\u1010
p102
I6
sV\u1015
p103
I9
sV\u1014
p104
I35
sV\u1016
p105
I3
sV\u1019
p106
I11
sV\u1018
p107
I2
sV\u101b
p108
I6
sV\u101a
p109
I2
sV\u101d
p110
I1
sV\u101c
p111
I15
sV\u101e
p112
I1
sV\u1021
p113
I2
sV 
p114
I156
sV\u102d
p115
I272
sV\u102c
p116
I109
sV\u102f
p117
I23
sV\u102e
p118
I63
sV\u1031
p119
I65
sV\u1030
p120
I9
sV\u1032
p121
I6
sV\u1036
p122
I11
sV\u1039
p123
I566
sV\u1038
p124
I1
sV\u103b
p125
I1
sV\u103a
p126
I133
sV\u103c
p127
I27
sV\u104f
p128
I1
sV\u108f
p129
I1
sV\u1061
p130
I13
sV\u1060
p131
I8
sV\u1064
p132
I1
sV\u107d
p133
I11
ssg20
(dp134
V\u1062
p135
I16
sV\u1064
p136
I11
sV\u102b
p137
I1
sV\u102d
p138
I1
sV\u102f
p139
I9
sV\u1090
p140
I1
sV\u103a
p141
I3
sV\u103c
p142
I1
ssg21
(dp143
V\u1001
p144
I3
sV\u1000
p145
I9
sV\u1005
p146
I33
sV\u100a
p147
I26
sV\u1010
p148
I13
sV\u1015
p149
I4
sV\u1016
p150
I2
sV\u1019
p151
I2
sV\u1018
p152
I2
sV\u101b
p153
I4
sV\u101c
p154
I1
sV\u101e
p155
I7
sV\u1021
p156
I1
sg114
I2
sV\u1025
p157
I44
sV\u102d
p158
I84
sV\u102c
p159
I60
sV\u102f
p160
I82
sV\u102e
p161
I41
sV\u1031
p162
I9
sV\u1030
p163
I1
sV\u1032
p164
I6
sV\u1037
p165
I3
sV\u1036
p166
I10
sV\u1039
p167
I231
sV\u103c
p168
I15
sV\u1065
p169
I26
ssg22
(dp170
V\u1004
p171
I10
sV\u102b
p172
I2
sV\u102d
p173
I6
sV\u1019
p174
I2
sV\u1014
p175
I3
sV\u1037
p176
I6
sV\u1036
p177
I90
sV\u1039
p178
I990
sV\u1038
p179
I1
sV\u101a
p180
I4
sV\u103c
p181
I1
ssg23
(dp182
V\u1040
p183
I1
sV\u1004
p184
I1
sV\u102c
p185
I12
sV\u1030
p186
I3
sV\u1036
p187
I13
sV\u103c
p188
I4
ssg24
(dp189
V\u1000
p190
I33
sV\u1004
p191
I18
sg114
I1
sV\u100a
p192
I1
sV\u102d
p193
I108
sV\u102c
p194
I43
sV\u108f
p195
I6
sV\u102e
p196
I11
sV\u1031
p197
I1
sV\u1032
p198
I1
sV\u1015
p199
I7
sV\u1014
p200
I49
sV\u1036
p201
I60
sV\u1038
p202
I5
sV\u101b
p203
I1
sV\u101a
p204
I5
sV\u103c
p205
I29
sV\u102f
p206
I22
ssg25
(dp207
V\u102d
p208
I6
ssg26
(dp209
V\u1021
p210
I1
sg114
I5
sV\u1005
p211
I1
sV\u108a
p212
I18
sV\u102d
p213
I12
sV\u102c
p214
I8
sV\u102e
p215
I38
sV\u1031
p216
I3
sV\u1019
p217
I1
sV\u1037
p218
I1
sV\u1039
p219
I284
sV\u1038
p220
I1
sV\u103d
p221
I2
sV\u103c
p222
I3
ssg27
(dp223
g114
I1
sV\u1014
p224
I1
sV\u102c
p225
I4
sV\u1038
p226
I4
ssg28
(dp227
V\u1039
p228
I4
sV\u102c
p229
I3
sV\u1077
p230
I2
ssg29
(dp231
V\u1000
p232
I7
sV\u1004
p233
I16
sV\u102d
p234
I32
sV\u102c
p235
I94
sV\u102f
p236
I21
sV\u102e
p237
I2
sV\u1030
p238
I5
sV\u1032
p239
I5
sV\u1015
p240
I2
sV\u1014
p241
I1
sV\u1036
p242
I1
sV\u1019
p243
I8
sV\u101b
p244
I7
sV\u103c
p245
I22
ssg30
(dp246
V\u1001
p247
I24
sV\u1000
p248
I38
sV\u1005
p249
I1
sV\u1004
p250
I53
sV\u1006
p251
I1
sV\u100a
p252
I25
sV\u108f
p253
I1
sV\u1010
p254
I8
sV\u1015
p255
I43
sV\u1014
p256
I27
sV\u1016
p257
I7
sV\u1019
p258
I4
sV\u101b
p259
I83
sV\u101a
p260
I263
sV\u101e
p261
I2
sV\u1021
p262
I2
sg114
I6
sV\u1025
p263
I8
sV\u102d
p264
I150
sV\u102c
p265
I316
sV\u102f
p266
I46
sV\u102e
p267
I12
sV\u1031
p268
I3
sV\u1030
p269
I15
sV\u1032
p270
I194
sV\u1036
p271
I4
sV\u1039
p272
I230
sV\u1038
p273
I1
sV\u103b
p274
I3
sV\u103c
p275
I279
sV\u1040
p276
I2
sV\u1090
p277
I2
sV\u107f
p278
I1
ssg31
(dp279
V\u102b
p280
I5
sV\u102d
p281
I5
sV\u102c
p282
I1
ssg32
(dp283
V\u1021
p284
I10
sV\u1000
p285
I3
sV\u1005
p286
I3
sg114
I3
sV\u102b
p287
I41
sV\u1076
p288
I1
sV\u102d
p289
I4
sV\u102f
p290
I13
sV\u102e
p291
I107
sV\u1031
p292
I4
sV\u1032
p293
I2
sV\u1014
p294
I6
sV\u1038
p295
I2
sV\u1018
p296
I1
sV\u101b
p297
I2
sV\u105a
p298
I54
sV\u100f
p299
I1
sV\u101e
p300
I16
ssg33
(dp301
V\u1001
p302
I6
sV\u1000
p303
I9
sV\u1005
p304
I16
sV\u1004
p305
I39
sV\u1086
p306
I17
sV\u100b
p307
I6
sV\u100a
p308
I90
sV\u108f
p309
I1
sV\u1011
p310
I12
sV\u1010
p311
I33
sV\u1012
p312
I3
sV\u1014
p313
I36
sV\u1019
p314
I21
sV\u101b
p315
I3
sV\u101a
p316
I2
sV\u101c
p317
I2
sV\u101e
p318
I3
sg114
I1
sV\u102b
p319
I344
sV\u102d
p320
I47
sV\u102c
p321
I75
sV\u102f
p322
I21
sV\u102e
p323
I124
sV\u1031
p324
I18
sV\u1030
p325
I15
sV\u1033
p326
I15
sV\u1032
p327
I42
sV\u1036
p328
I23
sV\u1039
p329
I216
sV\u1038
p330
I43
sV\u103a
p331
I5
sV\u103c
p332
I51
sV\u104a
p333
I1
sV\u105a
p334
I28
sV\u1078
p335
I3
sV\u107f
p336
I2
ssg34
(dp337
V\u1001
p338
I1
sV\u1000
p339
I17
sV\u1002
p340
I5
sV\u1005
p341
I5
sV\u100a
p342
I22
sV\u108f
p343
I1
sV\u1011
p344
I4
sV\u1010
p345
I34
sV\u1095
p346
I5
sV\u1014
p347
I21
sV\u1019
p348
I3
sV\u101b
p349
I12
sV\u101a
p350
I35
sV\u101c
p351
I5
sV\u101e
p352
I5
sV\u1021
p353
I6
sg114
I17
sV\u102d
p354
I9
sV\u102c
p355
I126
sV\u102f
p356
I8
sV\u102e
p357
I7
sV\u1031
p358
I12
sV\u1032
p359
I157
sV\u1039
p360
I463
sV\u103d
p361
I1
sV\u1040
p362
I1
sV\u104a
p363
I1
sV\u1015
p364
I18
sV\u107e
p365
I4
sV\u107f
p366
I4
sV\u1094
p367
I49
ssg35
(dp368
V\u1005
p369
I2
sV\u102d
p370
I43
sV\u102c
p371
I1
sV\u102f
p372
I2
sV\u102e
p373
I6
sV\u103a
p374
I16
sV\u103c
p375
I1
ssg36
(dp376
V\u1000
p377
I11
sV\u103a
p378
I4
sV\u1005
p379
I115
sV\u1004
p380
I12
sV\u101a
p381
I2
sV\u102d
p382
I58
sV\u102c
p383
I18
sV\u102f
p384
I13
sV\u102e
p385
I3
sV\u1031
p386
I1
sV\u1010
p387
I11
sV\u1032
p388
I9
sV\u107e
p389
I1
sV\u1014
p390
I7
sV\u1036
p391
I2
sV\u1019
p392
I4
sV\u101b
p393
I15
sV\u105a
p394
I1
sV\u103c
p395
I52
sV\u1034
p396
I4
ssg37
(dp397
V\u1001
p398
I6
sV\u1000
p399
I5
sV\u1002
p400
I6
sV\u1005
p401
I9
sV\u1004
p402
I12
sV\u1080
p403
I4
sV\u1089
p404
I2
sV\u1088
p405
I51
sV\u100a
p406
I1
sV\u108f
p407
I1
sV\u1011
p408
I2
sV\u1010
p409
I17
sV\u1012
p410
I2
sV\u1015
p411
I6
sV\u1014
p412
I62
sV\u1019
p413
I2
sV\u101b
p414
I57
sV\u101a
p415
I77
sV\u101c
p416
I13
sV\u101f
p417
I16
sV\u1021
p418
I3
sg114
I6
sV\u1025
p419
I1
sV\u1006
p420
I3
sV\u102d
p421
I56
sV\u102c
p422
I72
sV\u102f
p423
I7
sV\u102e
p424
I6
sV\u1031
p425
I27
sV\u1030
p426
I22
sV\u1033
p427
I2
sV\u1032
p428
I8
sV\u1037
p429
I2
sV\u1036
p430
I8
sV\u1039
p431
I96
sV\u1038
p432
I5
sV\u103b
p433
I5
sV\u103a
p434
I82
sV\u103d
p435
I293
sV\u103c
p436
I13
sV\u107b
p437
I1
sV\u107c
p438
I7
sV\u107f
p439
I5
sV\u107e
p440
I7
ssg38
(dp441
V\u1000
p442
I24
sV\u102c
p443
I63
sV\u102f
p444
I5
sV\u1030
p445
I35
sV\u1032
p446
I11
sV\u101b
p447
I1
sV\u101a
p448
I16
ssg39
(dp449
V\u1001
p450
I8
sV\u1000
p451
I39
sV\u1005
p452
I15
sV\u1004
p453
I60
sV\u1088
p454
I3
sV\u108a
p455
I3
sV\u108f
p456
I2
sV\u1010
p457
I18
sV\u1012
p458
I4
sV\u1015
p459
I57
sV\u1014
p460
I12
sV\u1019
p461
I17
sV\u1018
p462
I2
sV\u101b
p463
I7
sV\u101a
p464
I7
sV\u101c
p465
I5
sV\u101e
p466
I7
sV\u1021
p467
I10
sg114
I24
sV\u102d
p468
I48
sV\u102c
p469
I123
sV\u102f
p470
I80
sV\u102e
p471
I44
sV\u1031
p472
I5
sV\u1032
p473
I72
sV\u1036
p474
I20
sV\u1038
p475
I158
sV\u103b
p476
I3
sV\u103d
p477
I174
sV\u103c
p478
I46
sV\u100a
p479
I7
sV\u107f
p480
I3
sV\u107e
p481
I1
ssg40
(dp482
V\u1000
p483
I8
sV\u1025
p484
I1
sV\u100a
p485
I1
sV\u102d
p486
I4
sV\u102c
p487
I13
sV\u102f
p488
I1
sV\u1030
p489
I32
sV\u1015
p490
I1
sV\u1014
p491
I4
sV\u1036
p492
I5
sV\u1039
p493
I479
sV\u1018
p494
I1
sV\u101b
p495
I1
sV\u103a
p496
I1
sV\u101d
p497
I1
sV\u103b
p498
I2
ssg41
(dp499
g114
I1
sV\u1004
p500
I16
sV\u102b
p501
I5
sV\u102d
p502
I1
sV\u102e
p503
I1
sV\u1010
p504
I1
sV\u1014
p505
I15
sV\u1016
p506
I4
sV\u1038
p507
I1
ssg42
(dp508
V\u1000
p509
I37
sV\u1005
p510
I6
sV\u1004
p511
I14
sV\u1006
p512
I3
sV\u1088
p513
I2
sV\u108a
p514
I12
sV\u1015
p515
I1
sV\u1014
p516
I7
sV\u1019
p517
I9
sV\u101a
p518
I14
sV\u101c
p519
I2
sV\u101e
p520
I5
sV\u1021
p521
I5
sg114
I22
sV\u102d
p522
I164
sV\u102c
p523
I103
sV\u102f
p524
I93
sV\u102e
p525
I4
sV\u1031
p526
I2
sV\u1030
p527
I27
sV\u1032
p528
I37
sV\u1037
p529
I5
sV\u1036
p530
I19
sV\u1039
p531
I19
sV\u1038
p532
I8
sV\u103a
p533
I6
sV\u103d
p534
I20
sV\u103c
p535
I28
sV\u100a
p536
I52
sV\u1064
p537
I2
sV\u1094
p538
I1
ssg43
(dp539
g114
I2
sV\u102d
p540
I1
sV\u102c
p541
I80
sV\u102f
p542
I7
sV\u102e
p543
I1
sV\u1030
p544
I1
sV\u1015
p545
I2
sV\u1037
p546
I1
ssg44
(dp547
V\u1001
p548
I3
sV\u1000
p549
I31
sV\u1002
p550
I7
sV\u1005
p551
I24
sV\u1004
p552
I9
sV\u1007
p553
I2
sV\u1006
p554
I4
sV\u100a
p555
I13
sV\u1090
p556
I1
sV\u1015
p557
I8
sV\u1014
p558
I14
sV\u1019
p559
I19
sV\u101b
p560
I2
sV\u101a
p561
I6
sV\u101c
p562
I18
sV\u101f
p563
I1
sV\u102d
p564
I42
sV\u102c
p565
I70
sV\u102f
p566
I3
sV\u102e
p567
I16
sV\u1031
p568
I36
sV\u1030
p569
I74
sV\u1032
p570
I5
sV\u1036
p571
I18
sV\u1038
p572
I15
sV\u103b
p573
I4
sV\u103c
p574
I61
sV\u1064
p575
I1
sV\u1010
p576
I29
sV\u107e
p577
I1
ssg45
(dp578
V\u1001
p579
I60
sV\u1080
p580
I15
sV\u1002
p581
I8
sV\u1005
p582
I75
sV\u1004
p583
I10
sV\u1006
p584
I18
sV\u100a
p585
I1
sV\u1011
p586
I10
sV\u1010
p587
I82
sV\u1013
p588
I5
sV\u1015
p589
I24
sV\u1014
p590
I5
sV\u1016
p591
I23
sV\u1019
p592
I37
sV\u101b
p593
I37
sV\u101a
p594
I6
sV\u101d
p595
I7
sV\u101c
p596
I13
sV\u101e
p597
I18
sg114
I5
sV\u1000
p598
I25
sV\u102d
p599
I19
sV\u102c
p600
I108
sV\u102f
p601
I18
sV\u1031
p602
I166
sV\u1032
p603
I46
sV\u1036
p604
I3
sV\u103b
p605
I40
sV\u1040
p606
I2
sV\u1090
p607
I5
sV\u107f
p608
I2
sV\u107e
p609
I16
ssg46
(dp610
V\u1000
p611
I4
sg114
I1
sV\u102e
p612
I58
sV\u1031
p613
I4
sV\u1015
p614
I17
sV\u1039
p615
I48
ssg47
(dp616
V\u1000
p617
I2
ssg48
(dp618
V\u1000
p619
I84
ssg49
(dp620
V\u1001
p621
I2
sg114
I14
sV\u1005
p622
I10
sV\u1031
p623
I45
sV\u1011
p624
I1
sV\u1014
p625
I3
sV\u1019
p626
I7
sV\u101a
p627
I1
sV\u101c
p628
I5
sV\u107f
p629
I2
sV\u107e
p630
I1
ssg50
(dp631
g114
I2
sV\u1005
p632
I2
sV\u102c
p633
I2
sV\u1031
p634
I2
sV\u1014
p635
I1
sV\u103b
p636
I2
sV\u101b
p637
I1
sV\u101e
p638
I1
ssg51
(dp639
V\u1021
p640
I1
sg114
I2
sV\u1000
p641
I9
sV\u104b
p642
I1
sV\u104a
p643
I2
sV\u1031
p644
I2
sV\u1014
p645
I1
sV\u1019
p646
I7
sV\u101c
p647
I1
ssg52
(dp648
g114
I5
sV\u102c
p649
I1
sV\u1000
p650
I1
ssg53
(dp651
V\u1031
p652
I2
ssg54
(dp653
V\u101f
p654
I1
ssg55
(dp655
V\u102b
p656
I1
sV\u1036
p657
I2
ssg56
(dp658
V\u102c
p659
I1
sV\u1094
p660
I1
ssg57
(dp661
V\u103c
p662
I11
ssg58
(dp663
V\u1010
p664
I6
sV\u102c
p665
I1
ssg59
(dp666
V\u1019
p667
I17
sV\u1015
p668
I115
sV\u1004
p669
I5
sV\u1017
p670
I37
sV\u1016
p671
I5
ssg60
(dp672
V\u1000
p673
I158
sV\u101e
p674
I10
sssS'totalNGram'
p675
I16049
sb.